
tcs3200.elf:     file format elf32-littlearm
tcs3200.elf
architecture: arm, flags 0x00000112:
EXEC_P, HAS_SYMS, D_PAGED
start address 0x00000129

Program Header:
    LOAD off    0x00008000 vaddr 0x00000000 paddr 0x00000000 align 2**15
         filesz 0x000030b4 memsz 0x000030b4 flags r-x
    LOAD off    0x000100c0 vaddr 0x100000c0 paddr 0x000030b8 align 2**15
         filesz 0x000008c8 memsz 0x000008c8 flags rw-
    LOAD off    0x00010988 vaddr 0x10000988 paddr 0x10000988 align 2**15
         filesz 0x00000000 memsz 0x00000108 flags rw-
private flags = 5000002: [Version5 EABI] [has entry point]

Sections:
Idx Name          Size      VMA       LMA       File off  Algn
  0 .text         000030b4  00000000  00000000  00008000  2**2
                  CONTENTS, ALLOC, LOAD, READONLY, CODE
  1 .data         000008c8  100000c0  000030b8  000100c0  2**3
                  CONTENTS, ALLOC, LOAD, DATA
  2 .bss          00000108  10000988  10000988  00010988  2**2
                  ALLOC
  3 .comment      00000011  00000000  00000000  00010988  2**0
                  CONTENTS, READONLY
  4 .ARM.attributes 00000033  00000000  00000000  00010999  2**0
                  CONTENTS, READONLY
  5 .debug_frame  00000854  00000000  00000000  000109cc  2**2
                  CONTENTS, READONLY, DEBUGGING
  6 .debug_line   000036da  00000000  00000000  00011220  2**0
                  CONTENTS, READONLY, DEBUGGING
  7 .debug_info   000101d9  00000000  00000000  000148fa  2**0
                  CONTENTS, READONLY, DEBUGGING
  8 .debug_abbrev 000030d2  00000000  00000000  00024ad3  2**0
                  CONTENTS, READONLY, DEBUGGING
  9 .debug_aranges 00000398  00000000  00000000  00027ba8  2**3
                  CONTENTS, READONLY, DEBUGGING
 10 .debug_str    00001646  00000000  00000000  00027f40  2**0
                  CONTENTS, READONLY, DEBUGGING
 11 .debug_loc    00006d59  00000000  00000000  00029586  2**0
                  CONTENTS, READONLY, DEBUGGING
 12 .debug_ranges 000002c0  00000000  00000000  000302df  2**0
                  CONTENTS, READONLY, DEBUGGING
SYMBOL TABLE:
00000000 l    d  .text	00000000 .text
100000c0 l    d  .data	00000000 .data
10000988 l    d  .bss	00000000 .bss
00000000 l    d  .comment	00000000 .comment
00000000 l    d  .ARM.attributes	00000000 .ARM.attributes
00000000 l    d  .debug_frame	00000000 .debug_frame
00000000 l    d  .debug_line	00000000 .debug_line
00000000 l    d  .debug_info	00000000 .debug_info
00000000 l    d  .debug_abbrev	00000000 .debug_abbrev
00000000 l    d  .debug_aranges	00000000 .debug_aranges
00000000 l    d  .debug_str	00000000 .debug_str
00000000 l    d  .debug_loc	00000000 .debug_loc
00000000 l    d  .debug_ranges	00000000 .debug_ranges
00000000 l    df *ABS*	00000000 startup_LPC11U24.c
00000000 l    df *ABS*	00000000 core_cm0.c
00000000 l    df *ABS*	00000000 system_LPC11Uxx.c
00000000 l    df *ABS*	00000000 uart.c
00000000 l    df *ABS*	00000000 main.c
00000000 l    df *ABS*	00000000 syscalls.c
100009a4 l     O .bss	00000004 heap_end.5006
00000800 l       .text	00000000 .udivsi3_skip_div0_test
00000000 l    df *ABS*	00000000 errno.c
00000000 l    df *ABS*	00000000 impure.c
100000d0 l     O .data	00000428 impure_data
00000000 l    df *ABS*	00000000 iprintf.c
00000000 l    df *ABS*	00000000 memset.c
00000000 l    df *ABS*	00000000 vfprintf.c
00003058 l     O .text	00000010 blanks.6690
00003068 l     O .text	00000010 zeroes.6691
00000000 l    df *ABS*	00000000 wsetup.c
00000000 l    df *ABS*	00000000 fflush.c
00000000 l    df *ABS*	00000000 findfp.c
00001640 l     F .text	00000004 __fp_lock
00001644 l     F .text	00000004 __fp_unlock
00001658 l     F .text	00000048 std.isra.0
00000000 l    df *ABS*	00000000 fputwc.c
00000000 l    df *ABS*	00000000 mallocr.c
00000000 l    df *ABS*	00000000 fvwrite.c
00000000 l    df *ABS*	00000000 fwalk.c
00000000 l    df *ABS*	00000000 locale.c
100004f8 l     O .data	00000020 lc_ctype_charset
1000051c l     O .data	00000020 lc_message_charset
1000053c l     O .data	00000038 lconv
00000000 l    df *ABS*	00000000 makebuf.c
00000000 l    df *ABS*	00000000 mallocr.c
00000000 l    df *ABS*	00000000 memchr-stub.c
00000000 l    df *ABS*	00000000 memcpy-stub.c
00000000 l    df *ABS*	00000000 memmove.c
00000000 l    df *ABS*	00000000 mlock.c
00000000 l    df *ABS*	00000000 mallocr.c
00000000 l    df *ABS*	00000000 stdio.c
00000000 l    df *ABS*	00000000 strcmp.c
00000000 l    df *ABS*	00000000 strlen.c
00000000 l    df *ABS*	00000000 wbuf.c
00000000 l    df *ABS*	00000000 wcrtomb.c
00000000 l    df *ABS*	00000000 wctomb_r.c
00000000 l    df *ABS*	00000000 fclose.c
000007f8 g     F .text	00000004 _isatty_r
100000c4 g     O .data	00000001 UARTTxEmpty
000000fc  w    F .text	00000004 TIMER16_0_IRQHandler
000000f0  w    F .text	00000004 SVCall_Handler
00000790 g     F .text	00000004 _lseek_r
20004800 g       *ABS*	00000000 __top_RamUsb2
000000c0 g       .text	00000000 __section_table_start
00002c8c g     F .text	00000058 _wcrtomb_r
00002b68 g     F .text	0000002c __sseek
000016dc g     F .text	00000050 __sinit
00002bc4 g     F .text	000000b0 __swbuf_r
000000ec  w    F .text	00000004 HardFault_Handler
00001ec4 g     F .text	00000044 _setlocale_r
000016a0 g     F .text	0000002a __sfmoreglue
0000271c g     F .text	00000002 __malloc_unlock
000000f8  w    F .text	00000004 SysTick_Handler
0000266c g     F .text	000000aa memmove
000016cc g     F .text	00000010 _cleanup
000000f4  w    F .text	00000004 PendSV_Handler
000000e8  w    F .text	00000004 NMI_Handler
000030b4 g       *ABS*	00000000 __exidx_end
00000740 g     F .text	00000040 UART_IRQHandler
000000d8 g       .text	00000000 __data_section_table_end
00000648 g     F .text	000000f8 TIMER32_0_IRQHandler
0000089c g     F .text	0000000c __errno
000000fc  w    F .text	00000004 FLEX_INT7_IRQHandler
000007e0 g     F .text	00000018 _fstat_r
00002b2c g     F .text	00000004 __seofread
000030b4 g       *ABS*	00000000 _etext
00000114 g     F .text	00000014 bss_init
000000fc  w    F .text	00000004 TIMER32_1_IRQHandler
0000049c g     F .text	00000024 UARTSend
000025e0 g     F .text	0000008c memcpy
00001648 g     F .text	00000010 _cleanup_r
1000098c g     O .bss	00000010 freq
100000c0 g     O .data	00000004 SystemCoreClock
000007fc g     F .text	00000088 __udivsi3
00001f08 g     F .text	00000008 __locale_charset
000000fc  w    F .text	00000004 FLEX_INT1_IRQHandler
100009b4 g     O .bss	00000004 __malloc_top_pad
10000518 g     O .data	00000004 __mb_cur_max
00001f2c g     F .text	0000000c _localeconv_r
00001b24 g     F .text	000002fc __sfvwrite_r
100009e8 g     O .bss	00000040 UARTBuffer
000007a8 g     F .text	00000038 _sbrk_r
000000fc  w    F .text	00000004 IntDefaultHandler
00000780 g     F .text	00000010 _read_r
00002da0 g     F .text	0000008c _fclose_r
00001618 g     F .text	00000028 fflush
100009e0 g     O .bss	00000004 __malloc_max_sbrked_mem
000000fc  w    F .text	00000004 SSP0_IRQHandler
000030b4 g       *ABS*	00000000 __exidx_start
00002eec g     O .text	00000004 _global_impure_ptr
00002720 g     F .text	000003e2 _realloc_r
000017f8 g     F .text	000000d4 _fputwc_r
000017c8 g     F .text	00000018 __fp_lock_all
000000c0 g       .text	00000000 __data_section_table
10000a90 g       .bss	00000000 _ebss
000000fc  w    F .text	00000004 USBWakeup_IRQHandler
00000100 g     F .text	00000014 data_init
000000fc  w    F .text	00000004 FLEX_INT0_IRQHandler
100009b0 g     O .bss	00000004 __nlocale_changed
000000fc  w    F .text	00000004 FLEX_INT2_IRQHandler
10000a90 g       .bss	00000000 end
100009a0 g     O .bss	00000004 UARTbufferPtr
000017b8 g     F .text	00000002 __sfp_lock_acquire
00002550 g     F .text	00000090 memchr
00001994 g     F .text	00000190 _free_r
00001f10 g     F .text	0000000c __locale_mb_cur_max
000000fc  w    F .text	00000004 TIMER16_1_IRQHandler
10000988 g       .bss	00000000 _bss
100009ac g     O .bss	00000004 __mlocale_changed
1000097c g     O .data	00000004 __malloc_sbrk_base
000000fc  w    F .text	00000004 USB_FIQHandler
000000fc  w    F .text	00000004 FLEX_INT5_IRQHandler
000003e0 g     F .text	000000bc UARTInit
000000fc  w    F .text	00000004 ADC_IRQHandler
1000099c g     O .bss	00000001 filter
10001000 g       *ABS*	00000000 _vStackTop
100009b8 g     O .bss	00000028 __malloc_current_mallinfo
000008cc g     F .text	0000001a _iprintf_r
000000fc  w    F .text	00000004 SSP1_IRQHandler
000000e8 g       .text	00000000 __bss_section_table_end
000007a4 g     F .text	00000004 _close_r
000000fc  w    F .text	00000004 FLEX_INT3_IRQHandler
000000fc  w    F .text	00000004 USB_IRQHandler
000013d0 g     F .text	000000cc __swsetup_r
10000a28 g     O .bss	00000004 UARTStatus
00000898  w    F .text	00000002 __aeabi_ldiv0
0000172c g     F .text	0000008c __sfp
00008000 g       *ABS*	00000000 __top_MFlash32
10000574 g     O .data	00000408 __malloc_av_
000000fc  w    F .text	00000004 BOD_IRQHandler
000017c4 g     F .text	00000002 __sinit_lock_release
00002b04 g     F .text	00000028 __sread
00002718 g     F .text	00000002 __malloc_lock
000015ec g     F .text	0000002a _fflush_r
000000fc  w    F .text	00000004 I2C_IRQHandler
000008e8 g     F .text	0000008e memset
000004c0 g     F .text	00000188 main
100009e4 g     O .bss	00000004 __malloc_max_total_mem
10001000 g       *ABS*	00000000 __top_RamLoc4
00002c74 g     F .text	00000018 __swbuf
000000fc  w    F .text	00000004 WDT_IRQHandler
000007fc g     F .text	00000000 __aeabi_uidiv
00002b94 g     F .text	0000000c __sclose
00002e2c g     F .text	00000014 fclose
00002038 g     F .text	00000518 _malloc_r
10000988 g     O .bss	00000004 UARTCount
00002d4c g     F .text	0000001e __ascii_wctomb
00001e20 g     F .text	0000004c _fwalk
000003dc g     F .text	00000002 ModemInit
000018f4 g     F .text	000000a0 _malloc_trim_r
00002ba0 g     F .text	00000014 strcmp
000013b4 g     F .text	0000001c vfiprintf
000002f8 g     F .text	000000e4 SystemInit
000000d8 g       .text	00000000 __bss_section_table
000008a8 g     F .text	00000024 iprintf
100009a8 g     O .bss	00000004 _PathLocale
00000794 g     F .text	00000010 _write_r
00001f38 g     F .text	00000018 setlocale
100000c8 g     O .data	00000004 _impure_ptr
0000149c g     F .text	00000150 __sflush_r
00001f28 g     F .text	00000004 __locale_cjk_lang
100000c0 g       .data	00000000 _data
000017e0 g     F .text	00000018 __fp_unlock_all
000000e8 g       .text	00000000 __section_table_end
000000fc  w    F .text	00000004 GINT0_IRQHandler
00001f50 g     F .text	0000000c localeconv
00000884 g     F .text	00000012 __aeabi_uidivmod
10000a2c g     O .bss	00000064 UARTbuffer
10000988 g       .data	00000000 _edata
00002b30 g     F .text	00000038 __swrite
10000980 g     O .data	00000004 __malloc_trim_threshold
00001f1c g     F .text	0000000c __locale_msgcharset
000009f8 g     F .text	000009bc _vfiprintf_r
000000fc  w    F .text	00000004 FLEX_INT4_IRQHandler
00000000 g     O .text	000000c0 g_pfnVectors
00000128 g     F .text	00000050 ResetISR
00001e6c g     F .text	00000056 _fwalk_reent
00000178 g     F .text	00000180 SystemCoreClockUpdate
000017bc g     F .text	00000002 __sfp_lock_release
00000898  w    F .text	00000002 __aeabi_idiv0
000000fc  w    F .text	00000004 FLEX_INT6_IRQHandler
00001f5c g     F .text	000000dc __smakebuf_r
00002bb4 g     F .text	0000000e strlen
10000984 g     O .data	00000004 __wctomb
000000fc  w    F .text	00000004 FMC_IRQHandler
00000978 g     F .text	0000007e __sprint_r
00002d6c g     F .text	00000034 _wctomb_r
000000fc  w    F .text	00000004 GINT1_IRQHandler
00002ce4 g     F .text	00000068 wcrtomb
000018cc g     F .text	00000028 fputwc
000017c0 g     F .text	00000002 __sinit_lock_acquire



Disassembly of section .text:

00000000 <g_pfnVectors>:
       0:	00 10 00 10 29 01 00 00 e9 00 00 00 ed 00 00 00     ....)...........
	...
      2c:	f1 00 00 00 00 00 00 00 00 00 00 00 f5 00 00 00     ................
      3c:	f9 00 00 00 fd 00 00 00 fd 00 00 00 fd 00 00 00     ................
      4c:	fd 00 00 00 fd 00 00 00 fd 00 00 00 fd 00 00 00     ................
      5c:	fd 00 00 00 fd 00 00 00 fd 00 00 00 00 00 00 00     ................
	...
      78:	fd 00 00 00 fd 00 00 00 fd 00 00 00 fd 00 00 00     ................
      88:	49 06 00 00 fd 00 00 00 fd 00 00 00 41 07 00 00     I...........A...
      98:	fd 00 00 00 fd 00 00 00 fd 00 00 00 fd 00 00 00     ................
      a8:	fd 00 00 00 fd 00 00 00 00 00 00 00 00 00 00 00     ................
      b8:	fd 00 00 00 00 00 00 00                             ........

000000c0 <__data_section_table>:
      c0:	000030b8 	.word	0x000030b8
      c4:	100000c0 	.word	0x100000c0
      c8:	000008c8 	.word	0x000008c8
      cc:	000030b4 	.word	0x000030b4
      d0:	20004000 	.word	0x20004000
      d4:	00000000 	.word	0x00000000

000000d8 <__bss_section_table>:
      d8:	10000988 	.word	0x10000988
      dc:	00000108 	.word	0x00000108
      e0:	20004000 	.word	0x20004000
      e4:	00000000 	.word	0x00000000

000000e8 <NMI_Handler>:
      e8:	b500      	push	{lr}
      ea:	e7fe      	b.n	ea <NMI_Handler+0x2>

000000ec <HardFault_Handler>:
      ec:	b500      	push	{lr}
      ee:	e7fe      	b.n	ee <HardFault_Handler+0x2>

000000f0 <SVCall_Handler>:
      f0:	b500      	push	{lr}
      f2:	e7fe      	b.n	f2 <SVCall_Handler+0x2>

000000f4 <PendSV_Handler>:
      f4:	b500      	push	{lr}
      f6:	e7fe      	b.n	f6 <PendSV_Handler+0x2>

000000f8 <SysTick_Handler>:
      f8:	b500      	push	{lr}
      fa:	e7fe      	b.n	fa <SysTick_Handler+0x2>

000000fc <ADC_IRQHandler>:
      fc:	b500      	push	{lr}
      fe:	e7fe      	b.n	fe <ADC_IRQHandler+0x2>

00000100 <data_init>:
     100:	b510      	push	{r4, lr}
     102:	1c0b      	adds	r3, r1, #0
     104:	2a00      	cmp	r2, #0
     106:	d004      	beq.n	112 <data_init+0x12>
     108:	c810      	ldmia	r0!, {r4}
     10a:	c310      	stmia	r3!, {r4}
     10c:	1a5c      	subs	r4, r3, r1
     10e:	4294      	cmp	r4, r2
     110:	d3fa      	bcc.n	108 <data_init+0x8>
     112:	bd10      	pop	{r4, pc}

00000114 <bss_init>:
     114:	b510      	push	{r4, lr}
     116:	1c03      	adds	r3, r0, #0
     118:	2900      	cmp	r1, #0
     11a:	d004      	beq.n	126 <bss_init+0x12>
     11c:	2400      	movs	r4, #0
     11e:	c310      	stmia	r3!, {r4}
     120:	1a1a      	subs	r2, r3, r0
     122:	428a      	cmp	r2, r1
     124:	d3fb      	bcc.n	11e <bss_init+0xa>
     126:	bd10      	pop	{r4, pc}

00000128 <ResetISR>:
     128:	b538      	push	{r3, r4, r5, lr}
     12a:	4b10      	ldr	r3, [pc, #64]	; (16c <ResetISR+0x44>)
     12c:	4a10      	ldr	r2, [pc, #64]	; (170 <ResetISR+0x48>)
     12e:	429a      	cmp	r2, r3
     130:	d20a      	bcs.n	148 <ResetISR+0x20>
     132:	1c14      	adds	r4, r2, #0
     134:	1c1d      	adds	r5, r3, #0
     136:	6820      	ldr	r0, [r4, #0]
     138:	6861      	ldr	r1, [r4, #4]
     13a:	68a2      	ldr	r2, [r4, #8]
     13c:	340c      	adds	r4, #12
     13e:	f7ff ffdf 	bl	100 <data_init>
     142:	42ac      	cmp	r4, r5
     144:	d3f7      	bcc.n	136 <ResetISR+0xe>
     146:	e000      	b.n	14a <ResetISR+0x22>
     148:	4c09      	ldr	r4, [pc, #36]	; (170 <ResetISR+0x48>)
     14a:	4b0a      	ldr	r3, [pc, #40]	; (174 <ResetISR+0x4c>)
     14c:	429c      	cmp	r4, r3
     14e:	d207      	bcs.n	160 <ResetISR+0x38>
     150:	1c1d      	adds	r5, r3, #0
     152:	6820      	ldr	r0, [r4, #0]
     154:	6861      	ldr	r1, [r4, #4]
     156:	3408      	adds	r4, #8
     158:	f7ff ffdc 	bl	114 <bss_init>
     15c:	42ac      	cmp	r4, r5
     15e:	d3f8      	bcc.n	152 <ResetISR+0x2a>
     160:	f000 f8ca 	bl	2f8 <SystemInit>
     164:	f000 f9ac 	bl	4c0 <main>
     168:	e7fe      	b.n	168 <ResetISR+0x40>
     16a:	46c0      	nop			; (mov r8, r8)
     16c:	000000d8 	.word	0x000000d8
     170:	000000c0 	.word	0x000000c0
     174:	000000e8 	.word	0x000000e8

00000178 <SystemCoreClockUpdate>:
     178:	b510      	push	{r4, lr}
     17a:	4b4c      	ldr	r3, [pc, #304]	; (2ac <SystemCoreClockUpdate+0x134>)
     17c:	6a5b      	ldr	r3, [r3, #36]	; 0x24
     17e:	05db      	lsls	r3, r3, #23
     180:	0f1b      	lsrs	r3, r3, #28
     182:	2b0f      	cmp	r3, #15
     184:	d803      	bhi.n	18e <SystemCoreClockUpdate+0x16>
     186:	009b      	lsls	r3, r3, #2
     188:	4a49      	ldr	r2, [pc, #292]	; (2b0 <SystemCoreClockUpdate+0x138>)
     18a:	58d3      	ldr	r3, [r2, r3]
     18c:	469f      	mov	pc, r3
     18e:	2000      	movs	r0, #0
     190:	e01c      	b.n	1cc <SystemCoreClockUpdate+0x54>
     192:	4848      	ldr	r0, [pc, #288]	; (2b4 <SystemCoreClockUpdate+0x13c>)
     194:	e01a      	b.n	1cc <SystemCoreClockUpdate+0x54>
     196:	4848      	ldr	r0, [pc, #288]	; (2b8 <SystemCoreClockUpdate+0x140>)
     198:	e018      	b.n	1cc <SystemCoreClockUpdate+0x54>
     19a:	4848      	ldr	r0, [pc, #288]	; (2bc <SystemCoreClockUpdate+0x144>)
     19c:	e016      	b.n	1cc <SystemCoreClockUpdate+0x54>
     19e:	4848      	ldr	r0, [pc, #288]	; (2c0 <SystemCoreClockUpdate+0x148>)
     1a0:	e014      	b.n	1cc <SystemCoreClockUpdate+0x54>
     1a2:	4848      	ldr	r0, [pc, #288]	; (2c4 <SystemCoreClockUpdate+0x14c>)
     1a4:	e012      	b.n	1cc <SystemCoreClockUpdate+0x54>
     1a6:	4848      	ldr	r0, [pc, #288]	; (2c8 <SystemCoreClockUpdate+0x150>)
     1a8:	e010      	b.n	1cc <SystemCoreClockUpdate+0x54>
     1aa:	4848      	ldr	r0, [pc, #288]	; (2cc <SystemCoreClockUpdate+0x154>)
     1ac:	e00e      	b.n	1cc <SystemCoreClockUpdate+0x54>
     1ae:	4848      	ldr	r0, [pc, #288]	; (2d0 <SystemCoreClockUpdate+0x158>)
     1b0:	e00c      	b.n	1cc <SystemCoreClockUpdate+0x54>
     1b2:	4848      	ldr	r0, [pc, #288]	; (2d4 <SystemCoreClockUpdate+0x15c>)
     1b4:	e00a      	b.n	1cc <SystemCoreClockUpdate+0x54>
     1b6:	4848      	ldr	r0, [pc, #288]	; (2d8 <SystemCoreClockUpdate+0x160>)
     1b8:	e008      	b.n	1cc <SystemCoreClockUpdate+0x54>
     1ba:	4848      	ldr	r0, [pc, #288]	; (2dc <SystemCoreClockUpdate+0x164>)
     1bc:	e006      	b.n	1cc <SystemCoreClockUpdate+0x54>
     1be:	4848      	ldr	r0, [pc, #288]	; (2e0 <SystemCoreClockUpdate+0x168>)
     1c0:	e004      	b.n	1cc <SystemCoreClockUpdate+0x54>
     1c2:	4848      	ldr	r0, [pc, #288]	; (2e4 <SystemCoreClockUpdate+0x16c>)
     1c4:	e002      	b.n	1cc <SystemCoreClockUpdate+0x54>
     1c6:	4848      	ldr	r0, [pc, #288]	; (2e8 <SystemCoreClockUpdate+0x170>)
     1c8:	e000      	b.n	1cc <SystemCoreClockUpdate+0x54>
     1ca:	4848      	ldr	r0, [pc, #288]	; (2ec <SystemCoreClockUpdate+0x174>)
     1cc:	4b37      	ldr	r3, [pc, #220]	; (2ac <SystemCoreClockUpdate+0x134>)
     1ce:	6a59      	ldr	r1, [r3, #36]	; 0x24
     1d0:	6f1b      	ldr	r3, [r3, #112]	; 0x70
     1d2:	2203      	movs	r2, #3
     1d4:	4013      	ands	r3, r2
     1d6:	2b01      	cmp	r3, #1
     1d8:	d00a      	beq.n	1f0 <SystemCoreClockUpdate+0x78>
     1da:	2b00      	cmp	r3, #0
     1dc:	d004      	beq.n	1e8 <SystemCoreClockUpdate+0x70>
     1de:	2b02      	cmp	r3, #2
     1e0:	d01d      	beq.n	21e <SystemCoreClockUpdate+0xa6>
     1e2:	2b03      	cmp	r3, #3
     1e4:	d15a      	bne.n	29c <SystemCoreClockUpdate+0x124>
     1e6:	e023      	b.n	230 <SystemCoreClockUpdate+0xb8>
     1e8:	4a41      	ldr	r2, [pc, #260]	; (2f0 <SystemCoreClockUpdate+0x178>)
     1ea:	4b42      	ldr	r3, [pc, #264]	; (2f4 <SystemCoreClockUpdate+0x17c>)
     1ec:	601a      	str	r2, [r3, #0]
     1ee:	e055      	b.n	29c <SystemCoreClockUpdate+0x124>
     1f0:	4b2e      	ldr	r3, [pc, #184]	; (2ac <SystemCoreClockUpdate+0x134>)
     1f2:	6c1b      	ldr	r3, [r3, #64]	; 0x40
     1f4:	2203      	movs	r2, #3
     1f6:	4013      	ands	r3, r2
     1f8:	2b01      	cmp	r3, #1
     1fa:	d008      	beq.n	20e <SystemCoreClockUpdate+0x96>
     1fc:	2b00      	cmp	r3, #0
     1fe:	d002      	beq.n	206 <SystemCoreClockUpdate+0x8e>
     200:	2b03      	cmp	r3, #3
     202:	d84b      	bhi.n	29c <SystemCoreClockUpdate+0x124>
     204:	e007      	b.n	216 <SystemCoreClockUpdate+0x9e>
     206:	4a3a      	ldr	r2, [pc, #232]	; (2f0 <SystemCoreClockUpdate+0x178>)
     208:	4b3a      	ldr	r3, [pc, #232]	; (2f4 <SystemCoreClockUpdate+0x17c>)
     20a:	601a      	str	r2, [r3, #0]
     20c:	e046      	b.n	29c <SystemCoreClockUpdate+0x124>
     20e:	4a38      	ldr	r2, [pc, #224]	; (2f0 <SystemCoreClockUpdate+0x178>)
     210:	4b38      	ldr	r3, [pc, #224]	; (2f4 <SystemCoreClockUpdate+0x17c>)
     212:	601a      	str	r2, [r3, #0]
     214:	e042      	b.n	29c <SystemCoreClockUpdate+0x124>
     216:	2200      	movs	r2, #0
     218:	4b36      	ldr	r3, [pc, #216]	; (2f4 <SystemCoreClockUpdate+0x17c>)
     21a:	601a      	str	r2, [r3, #0]
     21c:	e03e      	b.n	29c <SystemCoreClockUpdate+0x124>
     21e:	231f      	movs	r3, #31
     220:	4019      	ands	r1, r3
     222:	0049      	lsls	r1, r1, #1
     224:	3102      	adds	r1, #2
     226:	f000 fae9 	bl	7fc <__aeabi_uidiv>
     22a:	4b32      	ldr	r3, [pc, #200]	; (2f4 <SystemCoreClockUpdate+0x17c>)
     22c:	6018      	str	r0, [r3, #0]
     22e:	e035      	b.n	29c <SystemCoreClockUpdate+0x124>
     230:	4b1e      	ldr	r3, [pc, #120]	; (2ac <SystemCoreClockUpdate+0x134>)
     232:	6c1b      	ldr	r3, [r3, #64]	; 0x40
     234:	2203      	movs	r2, #3
     236:	4013      	ands	r3, r2
     238:	2b01      	cmp	r3, #1
     23a:	d018      	beq.n	26e <SystemCoreClockUpdate+0xf6>
     23c:	2b00      	cmp	r3, #0
     23e:	d002      	beq.n	246 <SystemCoreClockUpdate+0xce>
     240:	2b03      	cmp	r3, #3
     242:	d82b      	bhi.n	29c <SystemCoreClockUpdate+0x124>
     244:	e027      	b.n	296 <SystemCoreClockUpdate+0x11e>
     246:	4b19      	ldr	r3, [pc, #100]	; (2ac <SystemCoreClockUpdate+0x134>)
     248:	689a      	ldr	r2, [r3, #8]
     24a:	23c0      	movs	r3, #192	; 0xc0
     24c:	005b      	lsls	r3, r3, #1
     24e:	421a      	tst	r2, r3
     250:	d003      	beq.n	25a <SystemCoreClockUpdate+0xe2>
     252:	4a27      	ldr	r2, [pc, #156]	; (2f0 <SystemCoreClockUpdate+0x178>)
     254:	4b27      	ldr	r3, [pc, #156]	; (2f4 <SystemCoreClockUpdate+0x17c>)
     256:	601a      	str	r2, [r3, #0]
     258:	e020      	b.n	29c <SystemCoreClockUpdate+0x124>
     25a:	4b14      	ldr	r3, [pc, #80]	; (2ac <SystemCoreClockUpdate+0x134>)
     25c:	689b      	ldr	r3, [r3, #8]
     25e:	221f      	movs	r2, #31
     260:	4013      	ands	r3, r2
     262:	3301      	adds	r3, #1
     264:	4a22      	ldr	r2, [pc, #136]	; (2f0 <SystemCoreClockUpdate+0x178>)
     266:	435a      	muls	r2, r3
     268:	4b22      	ldr	r3, [pc, #136]	; (2f4 <SystemCoreClockUpdate+0x17c>)
     26a:	601a      	str	r2, [r3, #0]
     26c:	e016      	b.n	29c <SystemCoreClockUpdate+0x124>
     26e:	4b0f      	ldr	r3, [pc, #60]	; (2ac <SystemCoreClockUpdate+0x134>)
     270:	689a      	ldr	r2, [r3, #8]
     272:	23c0      	movs	r3, #192	; 0xc0
     274:	005b      	lsls	r3, r3, #1
     276:	421a      	tst	r2, r3
     278:	d003      	beq.n	282 <SystemCoreClockUpdate+0x10a>
     27a:	4a1d      	ldr	r2, [pc, #116]	; (2f0 <SystemCoreClockUpdate+0x178>)
     27c:	4b1d      	ldr	r3, [pc, #116]	; (2f4 <SystemCoreClockUpdate+0x17c>)
     27e:	601a      	str	r2, [r3, #0]
     280:	e00c      	b.n	29c <SystemCoreClockUpdate+0x124>
     282:	4b0a      	ldr	r3, [pc, #40]	; (2ac <SystemCoreClockUpdate+0x134>)
     284:	689b      	ldr	r3, [r3, #8]
     286:	221f      	movs	r2, #31
     288:	4013      	ands	r3, r2
     28a:	3301      	adds	r3, #1
     28c:	4a18      	ldr	r2, [pc, #96]	; (2f0 <SystemCoreClockUpdate+0x178>)
     28e:	435a      	muls	r2, r3
     290:	4b18      	ldr	r3, [pc, #96]	; (2f4 <SystemCoreClockUpdate+0x17c>)
     292:	601a      	str	r2, [r3, #0]
     294:	e002      	b.n	29c <SystemCoreClockUpdate+0x124>
     296:	2200      	movs	r2, #0
     298:	4b16      	ldr	r3, [pc, #88]	; (2f4 <SystemCoreClockUpdate+0x17c>)
     29a:	601a      	str	r2, [r3, #0]
     29c:	4b03      	ldr	r3, [pc, #12]	; (2ac <SystemCoreClockUpdate+0x134>)
     29e:	6f99      	ldr	r1, [r3, #120]	; 0x78
     2a0:	4c14      	ldr	r4, [pc, #80]	; (2f4 <SystemCoreClockUpdate+0x17c>)
     2a2:	6820      	ldr	r0, [r4, #0]
     2a4:	f000 faaa 	bl	7fc <__aeabi_uidiv>
     2a8:	6020      	str	r0, [r4, #0]
     2aa:	bd10      	pop	{r4, pc}
     2ac:	40048000 	.word	0x40048000
     2b0:	00002e40 	.word	0x00002e40
     2b4:	000c3500 	.word	0x000c3500
     2b8:	0010c8e0 	.word	0x0010c8e0
     2bc:	00155cc0 	.word	0x00155cc0
     2c0:	00186a00 	.word	0x00186a00
     2c4:	001b7740 	.word	0x001b7740
     2c8:	001e8480 	.word	0x001e8480
     2cc:	002191c0 	.word	0x002191c0
     2d0:	00249f00 	.word	0x00249f00
     2d4:	0027ac40 	.word	0x0027ac40
     2d8:	002932e0 	.word	0x002932e0
     2dc:	002c4020 	.word	0x002c4020
     2e0:	002f4d60 	.word	0x002f4d60
     2e4:	0030d400 	.word	0x0030d400
     2e8:	0033e140 	.word	0x0033e140
     2ec:	0007a120 	.word	0x0007a120
     2f0:	00b71b00 	.word	0x00b71b00
     2f4:	100000c0 	.word	0x100000c0

000002f8 <SystemInit>:
     2f8:	b510      	push	{r4, lr}
     2fa:	b082      	sub	sp, #8
     2fc:	4b34      	ldr	r3, [pc, #208]	; (3d0 <SystemInit+0xd8>)
     2fe:	228e      	movs	r2, #142	; 0x8e
     300:	0092      	lsls	r2, r2, #2
     302:	5899      	ldr	r1, [r3, r2]
     304:	2020      	movs	r0, #32
     306:	4381      	bics	r1, r0
     308:	5099      	str	r1, [r3, r2]
     30a:	2200      	movs	r2, #0
     30c:	621a      	str	r2, [r3, #32]
     30e:	9201      	str	r2, [sp, #4]
     310:	9b01      	ldr	r3, [sp, #4]
     312:	2bc7      	cmp	r3, #199	; 0xc7
     314:	d806      	bhi.n	324 <SystemInit+0x2c>
     316:	46c0      	nop			; (mov r8, r8)
     318:	9b01      	ldr	r3, [sp, #4]
     31a:	3301      	adds	r3, #1
     31c:	9301      	str	r3, [sp, #4]
     31e:	9b01      	ldr	r3, [sp, #4]
     320:	2bc7      	cmp	r3, #199	; 0xc7
     322:	d9f8      	bls.n	316 <SystemInit+0x1e>
     324:	4b2a      	ldr	r3, [pc, #168]	; (3d0 <SystemInit+0xd8>)
     326:	2201      	movs	r2, #1
     328:	641a      	str	r2, [r3, #64]	; 0x40
     32a:	645a      	str	r2, [r3, #68]	; 0x44
     32c:	2100      	movs	r1, #0
     32e:	6459      	str	r1, [r3, #68]	; 0x44
     330:	645a      	str	r2, [r3, #68]	; 0x44
     332:	1c19      	adds	r1, r3, #0
     334:	6c4b      	ldr	r3, [r1, #68]	; 0x44
     336:	421a      	tst	r2, r3
     338:	d0fc      	beq.n	334 <SystemInit+0x3c>
     33a:	4b25      	ldr	r3, [pc, #148]	; (3d0 <SystemInit+0xd8>)
     33c:	2223      	movs	r2, #35	; 0x23
     33e:	609a      	str	r2, [r3, #8]
     340:	228e      	movs	r2, #142	; 0x8e
     342:	0092      	lsls	r2, r2, #2
     344:	5899      	ldr	r1, [r3, r2]
     346:	2080      	movs	r0, #128	; 0x80
     348:	4381      	bics	r1, r0
     34a:	5099      	str	r1, [r3, r2]
     34c:	1c19      	adds	r1, r3, #0
     34e:	2201      	movs	r2, #1
     350:	68cb      	ldr	r3, [r1, #12]
     352:	421a      	tst	r2, r3
     354:	d0fc      	beq.n	350 <SystemInit+0x58>
     356:	4b1e      	ldr	r3, [pc, #120]	; (3d0 <SystemInit+0xd8>)
     358:	2203      	movs	r2, #3
     35a:	671a      	str	r2, [r3, #112]	; 0x70
     35c:	2201      	movs	r2, #1
     35e:	675a      	str	r2, [r3, #116]	; 0x74
     360:	2100      	movs	r1, #0
     362:	6759      	str	r1, [r3, #116]	; 0x74
     364:	675a      	str	r2, [r3, #116]	; 0x74
     366:	1c19      	adds	r1, r3, #0
     368:	6f4b      	ldr	r3, [r1, #116]	; 0x74
     36a:	421a      	tst	r2, r3
     36c:	d0fc      	beq.n	368 <SystemInit+0x70>
     36e:	4b18      	ldr	r3, [pc, #96]	; (3d0 <SystemInit+0xd8>)
     370:	2201      	movs	r2, #1
     372:	679a      	str	r2, [r3, #120]	; 0x78
     374:	218e      	movs	r1, #142	; 0x8e
     376:	0089      	lsls	r1, r1, #2
     378:	585c      	ldr	r4, [r3, r1]
     37a:	4816      	ldr	r0, [pc, #88]	; (3d4 <SystemInit+0xdc>)
     37c:	4020      	ands	r0, r4
     37e:	5058      	str	r0, [r3, r1]
     380:	585c      	ldr	r4, [r3, r1]
     382:	4815      	ldr	r0, [pc, #84]	; (3d8 <SystemInit+0xe0>)
     384:	4020      	ands	r0, r4
     386:	5058      	str	r0, [r3, r1]
     388:	649a      	str	r2, [r3, #72]	; 0x48
     38a:	64da      	str	r2, [r3, #76]	; 0x4c
     38c:	2100      	movs	r1, #0
     38e:	64d9      	str	r1, [r3, #76]	; 0x4c
     390:	64da      	str	r2, [r3, #76]	; 0x4c
     392:	1c19      	adds	r1, r3, #0
     394:	6ccb      	ldr	r3, [r1, #76]	; 0x4c
     396:	421a      	tst	r2, r3
     398:	d0fc      	beq.n	394 <SystemInit+0x9c>
     39a:	2223      	movs	r2, #35	; 0x23
     39c:	4b0c      	ldr	r3, [pc, #48]	; (3d0 <SystemInit+0xd8>)
     39e:	611a      	str	r2, [r3, #16]
     3a0:	1c19      	adds	r1, r3, #0
     3a2:	2201      	movs	r2, #1
     3a4:	694b      	ldr	r3, [r1, #20]
     3a6:	421a      	tst	r2, r3
     3a8:	d0fc      	beq.n	3a4 <SystemInit+0xac>
     3aa:	4b09      	ldr	r3, [pc, #36]	; (3d0 <SystemInit+0xd8>)
     3ac:	2200      	movs	r2, #0
     3ae:	21c0      	movs	r1, #192	; 0xc0
     3b0:	505a      	str	r2, [r3, r1]
     3b2:	21c4      	movs	r1, #196	; 0xc4
     3b4:	505a      	str	r2, [r3, r1]
     3b6:	2201      	movs	r2, #1
     3b8:	505a      	str	r2, [r3, r1]
     3ba:	21c8      	movs	r1, #200	; 0xc8
     3bc:	505a      	str	r2, [r3, r1]
     3be:	2280      	movs	r2, #128	; 0x80
     3c0:	5898      	ldr	r0, [r3, r2]
     3c2:	2180      	movs	r1, #128	; 0x80
     3c4:	0249      	lsls	r1, r1, #9
     3c6:	4301      	orrs	r1, r0
     3c8:	5099      	str	r1, [r3, r2]
     3ca:	b002      	add	sp, #8
     3cc:	bd10      	pop	{r4, pc}
     3ce:	46c0      	nop			; (mov r8, r8)
     3d0:	40048000 	.word	0x40048000
     3d4:	fffffbff 	.word	0xfffffbff
     3d8:	fffffeff 	.word	0xfffffeff

000003dc <ModemInit>:
     3dc:	4770      	bx	lr
     3de:	46c0      	nop			; (mov r8, r8)

000003e0 <UARTInit>:
     3e0:	b570      	push	{r4, r5, r6, lr}
     3e2:	2001      	movs	r0, #1
     3e4:	4b26      	ldr	r3, [pc, #152]	; (480 <UARTInit+0xa0>)
     3e6:	7018      	strb	r0, [r3, #0]
     3e8:	2200      	movs	r2, #0
     3ea:	4b26      	ldr	r3, [pc, #152]	; (484 <UARTInit+0xa4>)
     3ec:	601a      	str	r2, [r3, #0]
     3ee:	2180      	movs	r1, #128	; 0x80
     3f0:	2280      	movs	r2, #128	; 0x80
     3f2:	0392      	lsls	r2, r2, #14
     3f4:	4b24      	ldr	r3, [pc, #144]	; (488 <UARTInit+0xa8>)
     3f6:	505a      	str	r2, [r3, r1]
     3f8:	4b24      	ldr	r3, [pc, #144]	; (48c <UARTInit+0xac>)
     3fa:	22c8      	movs	r2, #200	; 0xc8
     3fc:	589c      	ldr	r4, [r3, r2]
     3fe:	2507      	movs	r5, #7
     400:	43ac      	bics	r4, r5
     402:	509c      	str	r4, [r3, r2]
     404:	589e      	ldr	r6, [r3, r2]
     406:	2402      	movs	r4, #2
     408:	4326      	orrs	r6, r4
     40a:	509e      	str	r6, [r3, r2]
     40c:	22cc      	movs	r2, #204	; 0xcc
     40e:	589e      	ldr	r6, [r3, r2]
     410:	43ae      	bics	r6, r5
     412:	509e      	str	r6, [r3, r2]
     414:	589d      	ldr	r5, [r3, r2]
     416:	432c      	orrs	r4, r5
     418:	509c      	str	r4, [r3, r2]
     41a:	4b1d      	ldr	r3, [pc, #116]	; (490 <UARTInit+0xb0>)
     41c:	585c      	ldr	r4, [r3, r1]
     41e:	2280      	movs	r2, #128	; 0x80
     420:	0152      	lsls	r2, r2, #5
     422:	4322      	orrs	r2, r4
     424:	505a      	str	r2, [r3, r1]
     426:	2298      	movs	r2, #152	; 0x98
     428:	5098      	str	r0, [r3, r2]
     42a:	4b1a      	ldr	r3, [pc, #104]	; (494 <UARTInit+0xb4>)
     42c:	46c0      	nop			; (mov r8, r8)
     42e:	3b01      	subs	r3, #1
     430:	2b00      	cmp	r3, #0
     432:	d1fb      	bne.n	42c <UARTInit+0x4c>
     434:	4b18      	ldr	r3, [pc, #96]	; (498 <UARTInit+0xb8>)
     436:	2283      	movs	r2, #131	; 0x83
     438:	60da      	str	r2, [r3, #12]
     43a:	2200      	movs	r2, #0
     43c:	605a      	str	r2, [r3, #4]
     43e:	22fa      	movs	r2, #250	; 0xfa
     440:	601a      	str	r2, [r3, #0]
     442:	2241      	movs	r2, #65	; 0x41
     444:	629a      	str	r2, [r3, #40]	; 0x28
     446:	2203      	movs	r2, #3
     448:	60da      	str	r2, [r3, #12]
     44a:	2207      	movs	r2, #7
     44c:	609a      	str	r2, [r3, #8]
     44e:	695b      	ldr	r3, [r3, #20]
     450:	4911      	ldr	r1, [pc, #68]	; (498 <UARTInit+0xb8>)
     452:	2260      	movs	r2, #96	; 0x60
     454:	694b      	ldr	r3, [r1, #20]
     456:	4013      	ands	r3, r2
     458:	2b60      	cmp	r3, #96	; 0x60
     45a:	d1fb      	bne.n	454 <UARTInit+0x74>
     45c:	4b0e      	ldr	r3, [pc, #56]	; (498 <UARTInit+0xb8>)
     45e:	695b      	ldr	r3, [r3, #20]
     460:	07da      	lsls	r2, r3, #31
     462:	d505      	bpl.n	470 <UARTInit+0x90>
     464:	4b0c      	ldr	r3, [pc, #48]	; (498 <UARTInit+0xb8>)
     466:	2101      	movs	r1, #1
     468:	681a      	ldr	r2, [r3, #0]
     46a:	695a      	ldr	r2, [r3, #20]
     46c:	4211      	tst	r1, r2
     46e:	d1fb      	bne.n	468 <UARTInit+0x88>
     470:	2280      	movs	r2, #128	; 0x80
     472:	0392      	lsls	r2, r2, #14
     474:	4b04      	ldr	r3, [pc, #16]	; (488 <UARTInit+0xa8>)
     476:	601a      	str	r2, [r3, #0]
     478:	2201      	movs	r2, #1
     47a:	4b07      	ldr	r3, [pc, #28]	; (498 <UARTInit+0xb8>)
     47c:	605a      	str	r2, [r3, #4]
     47e:	bd70      	pop	{r4, r5, r6, pc}
     480:	100000c4 	.word	0x100000c4
     484:	10000988 	.word	0x10000988
     488:	e000e100 	.word	0xe000e100
     48c:	40044000 	.word	0x40044000
     490:	40048000 	.word	0x40048000
     494:	000186a0 	.word	0x000186a0
     498:	40008000 	.word	0x40008000

0000049c <UARTSend>:
     49c:	b510      	push	{r4, lr}
     49e:	2900      	cmp	r1, #0
     4a0:	d00a      	beq.n	4b8 <UARTSend+0x1c>
     4a2:	1844      	adds	r4, r0, r1
     4a4:	4a05      	ldr	r2, [pc, #20]	; (4bc <UARTSend+0x20>)
     4a6:	2120      	movs	r1, #32
     4a8:	6953      	ldr	r3, [r2, #20]
     4aa:	4219      	tst	r1, r3
     4ac:	d0fc      	beq.n	4a8 <UARTSend+0xc>
     4ae:	7803      	ldrb	r3, [r0, #0]
     4b0:	6013      	str	r3, [r2, #0]
     4b2:	3001      	adds	r0, #1
     4b4:	42a0      	cmp	r0, r4
     4b6:	d1f7      	bne.n	4a8 <UARTSend+0xc>
     4b8:	bd10      	pop	{r4, pc}
     4ba:	46c0      	nop			; (mov r8, r8)
     4bc:	40008000 	.word	0x40008000

000004c0 <main>:
     4c0:	b5f0      	push	{r4, r5, r6, r7, lr}
     4c2:	464f      	mov	r7, r9
     4c4:	4646      	mov	r6, r8
     4c6:	b4c0      	push	{r6, r7}
     4c8:	b083      	sub	sp, #12
     4ca:	f7ff fe55 	bl	178 <SystemCoreClockUpdate>
     4ce:	4c4d      	ldr	r4, [pc, #308]	; (604 <main+0x144>)
     4d0:	2180      	movs	r1, #128	; 0x80
     4d2:	5862      	ldr	r2, [r4, r1]
     4d4:	4b4c      	ldr	r3, [pc, #304]	; (608 <main+0x148>)
     4d6:	4013      	ands	r3, r2
     4d8:	4a4c      	ldr	r2, [pc, #304]	; (60c <main+0x14c>)
     4da:	4313      	orrs	r3, r2
     4dc:	5063      	str	r3, [r4, r1]
     4de:	4a4c      	ldr	r2, [pc, #304]	; (610 <main+0x150>)
     4e0:	5051      	str	r1, [r2, r1]
     4e2:	2384      	movs	r3, #132	; 0x84
     4e4:	50d1      	str	r1, [r2, r3]
     4e6:	2388      	movs	r3, #136	; 0x88
     4e8:	50d1      	str	r1, [r2, r3]
     4ea:	238c      	movs	r3, #140	; 0x8c
     4ec:	50d1      	str	r1, [r2, r3]
     4ee:	23a0      	movs	r3, #160	; 0xa0
     4f0:	05db      	lsls	r3, r3, #23
     4f2:	25f0      	movs	r5, #240	; 0xf0
     4f4:	012d      	lsls	r5, r5, #4
     4f6:	4847      	ldr	r0, [pc, #284]	; (614 <main+0x154>)
     4f8:	501d      	str	r5, [r3, r0]
     4fa:	6b10      	ldr	r0, [r2, #48]	; 0x30
     4fc:	2507      	movs	r5, #7
     4fe:	46a9      	mov	r9, r5
     500:	43a8      	bics	r0, r5
     502:	6310      	str	r0, [r2, #48]	; 0x30
     504:	6b10      	ldr	r0, [r2, #48]	; 0x30
     506:	2501      	movs	r5, #1
     508:	4328      	orrs	r0, r5
     50a:	6310      	str	r0, [r2, #48]	; 0x30
     50c:	2089      	movs	r0, #137	; 0x89
     50e:	6350      	str	r0, [r2, #52]	; 0x34
     510:	6211      	str	r1, [r2, #32]
     512:	2780      	movs	r7, #128	; 0x80
     514:	01bf      	lsls	r7, r7, #6
     516:	20c4      	movs	r0, #196	; 0xc4
     518:	0180      	lsls	r0, r0, #6
     51a:	51d8      	str	r0, [r3, r7]
     51c:	208a      	movs	r0, #138	; 0x8a
     51e:	0180      	lsls	r0, r0, #6
     520:	4680      	mov	r8, r0
     522:	2080      	movs	r0, #128	; 0x80
     524:	0046      	lsls	r6, r0, #1
     526:	4640      	mov	r0, r8
     528:	501e      	str	r6, [r3, r0]
     52a:	501f      	str	r7, [r3, r0]
     52c:	4b3a      	ldr	r3, [pc, #232]	; (618 <main+0x158>)
     52e:	20c4      	movs	r0, #196	; 0xc4
     530:	0080      	lsls	r0, r0, #2
     532:	581e      	ldr	r6, [r3, r0]
     534:	46b4      	mov	ip, r6
     536:	4f39      	ldr	r7, [pc, #228]	; (61c <main+0x15c>)
     538:	1c3e      	adds	r6, r7, #0
     53a:	4667      	mov	r7, ip
     53c:	403e      	ands	r6, r7
     53e:	501e      	str	r6, [r3, r0]
     540:	2080      	movs	r0, #128	; 0x80
     542:	02c0      	lsls	r0, r0, #11
     544:	6018      	str	r0, [r3, #0]
     546:	5860      	ldr	r0, [r4, r1]
     548:	4b35      	ldr	r3, [pc, #212]	; (620 <main+0x160>)
     54a:	4018      	ands	r0, r3
     54c:	2380      	movs	r3, #128	; 0x80
     54e:	009b      	lsls	r3, r3, #2
     550:	4303      	orrs	r3, r0
     552:	5063      	str	r3, [r4, r1]
     554:	4833      	ldr	r0, [pc, #204]	; (624 <main+0x164>)
     556:	2300      	movs	r3, #0
     558:	6703      	str	r3, [r0, #112]	; 0x70
     55a:	4f33      	ldr	r7, [pc, #204]	; (628 <main+0x168>)
     55c:	60c7      	str	r7, [r0, #12]
     55e:	2703      	movs	r7, #3
     560:	6147      	str	r7, [r0, #20]
     562:	27fa      	movs	r7, #250	; 0xfa
     564:	6187      	str	r7, [r0, #24]
     566:	61c3      	str	r3, [r0, #28]
     568:	6203      	str	r3, [r0, #32]
     56a:	6243      	str	r3, [r0, #36]	; 0x24
     56c:	6283      	str	r3, [r0, #40]	; 0x28
     56e:	63c3      	str	r3, [r0, #60]	; 0x3c
     570:	6045      	str	r5, [r0, #4]
     572:	6f50      	ldr	r0, [r2, #116]	; 0x74
     574:	464e      	mov	r6, r9
     576:	43b0      	bics	r0, r6
     578:	6750      	str	r0, [r2, #116]	; 0x74
     57a:	6f50      	ldr	r0, [r2, #116]	; 0x74
     57c:	4328      	orrs	r0, r5
     57e:	6750      	str	r0, [r2, #116]	; 0x74
     580:	5860      	ldr	r0, [r4, r1]
     582:	4a2a      	ldr	r2, [pc, #168]	; (62c <main+0x16c>)
     584:	4010      	ands	r0, r2
     586:	2280      	movs	r2, #128	; 0x80
     588:	00d2      	lsls	r2, r2, #3
     58a:	4302      	orrs	r2, r0
     58c:	5062      	str	r2, [r4, r1]
     58e:	4a28      	ldr	r2, [pc, #160]	; (630 <main+0x170>)
     590:	6293      	str	r3, [r2, #40]	; 0x28
     592:	2105      	movs	r1, #5
     594:	6711      	str	r1, [r2, #112]	; 0x70
     596:	60d3      	str	r3, [r2, #12]
     598:	6193      	str	r3, [r2, #24]
     59a:	61d3      	str	r3, [r2, #28]
     59c:	6213      	str	r3, [r2, #32]
     59e:	6253      	str	r3, [r2, #36]	; 0x24
     5a0:	6153      	str	r3, [r2, #20]
     5a2:	63d3      	str	r3, [r2, #60]	; 0x3c
     5a4:	6055      	str	r5, [r2, #4]
     5a6:	2096      	movs	r0, #150	; 0x96
     5a8:	0180      	lsls	r0, r0, #6
     5aa:	f7ff ff19 	bl	3e0 <UARTInit>
     5ae:	23fd      	movs	r3, #253	; 0xfd
     5b0:	009b      	lsls	r3, r3, #2
     5b2:	58e1      	ldr	r1, [r4, r3]
     5b4:	481f      	ldr	r0, [pc, #124]	; (634 <main+0x174>)
     5b6:	f000 f977 	bl	8a8 <iprintf>
     5ba:	4c1f      	ldr	r4, [pc, #124]	; (638 <main+0x178>)
     5bc:	27a0      	movs	r7, #160	; 0xa0
     5be:	05ff      	lsls	r7, r7, #23
     5c0:	4e1e      	ldr	r6, [pc, #120]	; (63c <main+0x17c>)
     5c2:	68e3      	ldr	r3, [r4, #12]
     5c4:	2b00      	cmp	r3, #0
     5c6:	d0fc      	beq.n	5c2 <main+0x102>
     5c8:	59ba      	ldr	r2, [r7, r6]
     5ca:	2380      	movs	r3, #128	; 0x80
     5cc:	011b      	lsls	r3, r3, #4
     5ce:	4313      	orrs	r3, r2
     5d0:	51bb      	str	r3, [r7, r6]
     5d2:	4814      	ldr	r0, [pc, #80]	; (624 <main+0x164>)
     5d4:	4680      	mov	r8, r0
     5d6:	2302      	movs	r3, #2
     5d8:	6043      	str	r3, [r0, #4]
     5da:	4d17      	ldr	r5, [pc, #92]	; (638 <main+0x178>)
     5dc:	6869      	ldr	r1, [r5, #4]
     5de:	682a      	ldr	r2, [r5, #0]
     5e0:	68eb      	ldr	r3, [r5, #12]
     5e2:	68a8      	ldr	r0, [r5, #8]
     5e4:	9000      	str	r0, [sp, #0]
     5e6:	4816      	ldr	r0, [pc, #88]	; (640 <main+0x180>)
     5e8:	f000 f95e 	bl	8a8 <iprintf>
     5ec:	2300      	movs	r3, #0
     5ee:	60eb      	str	r3, [r5, #12]
     5f0:	4a0f      	ldr	r2, [pc, #60]	; (630 <main+0x170>)
     5f2:	6093      	str	r3, [r2, #8]
     5f4:	2301      	movs	r3, #1
     5f6:	4642      	mov	r2, r8
     5f8:	6053      	str	r3, [r2, #4]
     5fa:	59ba      	ldr	r2, [r7, r6]
     5fc:	4b11      	ldr	r3, [pc, #68]	; (644 <main+0x184>)
     5fe:	4013      	ands	r3, r2
     600:	51bb      	str	r3, [r7, r6]
     602:	e7de      	b.n	5c2 <main+0x102>
     604:	40048000 	.word	0x40048000
     608:	098cffbf 	.word	0x098cffbf
     60c:	00010040 	.word	0x00010040
     610:	40044000 	.word	0x40044000
     614:	00002004 	.word	0x00002004
     618:	e000e100 	.word	0xe000e100
     61c:	ff00ffff 	.word	0xff00ffff
     620:	098dfdff 	.word	0x098dfdff
     624:	40014000 	.word	0x40014000
     628:	0000bb7f 	.word	0x0000bb7f
     62c:	098dfbff 	.word	0x098dfbff
     630:	40018000 	.word	0x40018000
     634:	00002e80 	.word	0x00002e80
     638:	1000098c 	.word	0x1000098c
     63c:	00002104 	.word	0x00002104
     640:	00002ea8 	.word	0x00002ea8
     644:	fffff7ff 	.word	0xfffff7ff

00000648 <TIMER32_0_IRQHandler>:
     648:	b500      	push	{lr}
     64a:	4b37      	ldr	r3, [pc, #220]	; (728 <TIMER32_0_IRQHandler+0xe0>)
     64c:	7c19      	ldrb	r1, [r3, #16]
     64e:	4a37      	ldr	r2, [pc, #220]	; (72c <TIMER32_0_IRQHandler+0xe4>)
     650:	6890      	ldr	r0, [r2, #8]
     652:	0089      	lsls	r1, r1, #2
     654:	50c8      	str	r0, [r1, r3]
     656:	2100      	movs	r1, #0
     658:	6091      	str	r1, [r2, #8]
     65a:	7c1a      	ldrb	r2, [r3, #16]
     65c:	3201      	adds	r2, #1
     65e:	b2d2      	uxtb	r2, r2
     660:	741a      	strb	r2, [r3, #16]
     662:	7c1a      	ldrb	r2, [r3, #16]
     664:	2103      	movs	r1, #3
     666:	400a      	ands	r2, r1
     668:	741a      	strb	r2, [r3, #16]
     66a:	7c1b      	ldrb	r3, [r3, #16]
     66c:	2b00      	cmp	r3, #0
     66e:	d112      	bne.n	696 <TIMER32_0_IRQHandler+0x4e>
     670:	22a0      	movs	r2, #160	; 0xa0
     672:	05d2      	lsls	r2, r2, #23
     674:	2384      	movs	r3, #132	; 0x84
     676:	019b      	lsls	r3, r3, #6
     678:	58d0      	ldr	r0, [r2, r3]
     67a:	492d      	ldr	r1, [pc, #180]	; (730 <TIMER32_0_IRQHandler+0xe8>)
     67c:	4001      	ands	r1, r0
     67e:	50d1      	str	r1, [r2, r3]
     680:	46c0      	nop			; (mov r8, r8)
     682:	58d0      	ldr	r0, [r2, r3]
     684:	492b      	ldr	r1, [pc, #172]	; (734 <TIMER32_0_IRQHandler+0xec>)
     686:	4001      	ands	r1, r0
     688:	50d1      	str	r1, [r2, r3]
     68a:	46c0      	nop			; (mov r8, r8)
     68c:	58d0      	ldr	r0, [r2, r3]
     68e:	492a      	ldr	r1, [pc, #168]	; (738 <TIMER32_0_IRQHandler+0xf0>)
     690:	4001      	ands	r1, r0
     692:	50d1      	str	r1, [r2, r3]
     694:	e043      	b.n	71e <TIMER32_0_IRQHandler+0xd6>
     696:	4b24      	ldr	r3, [pc, #144]	; (728 <TIMER32_0_IRQHandler+0xe0>)
     698:	7c1b      	ldrb	r3, [r3, #16]
     69a:	2b01      	cmp	r3, #1
     69c:	d112      	bne.n	6c4 <TIMER32_0_IRQHandler+0x7c>
     69e:	22a0      	movs	r2, #160	; 0xa0
     6a0:	05d2      	lsls	r2, r2, #23
     6a2:	2384      	movs	r3, #132	; 0x84
     6a4:	019b      	lsls	r3, r3, #6
     6a6:	58d0      	ldr	r0, [r2, r3]
     6a8:	2180      	movs	r1, #128	; 0x80
     6aa:	0049      	lsls	r1, r1, #1
     6ac:	4301      	orrs	r1, r0
     6ae:	50d1      	str	r1, [r2, r3]
     6b0:	58d0      	ldr	r0, [r2, r3]
     6b2:	2180      	movs	r1, #128	; 0x80
     6b4:	0149      	lsls	r1, r1, #5
     6b6:	4301      	orrs	r1, r0
     6b8:	50d1      	str	r1, [r2, r3]
     6ba:	58d0      	ldr	r0, [r2, r3]
     6bc:	491e      	ldr	r1, [pc, #120]	; (738 <TIMER32_0_IRQHandler+0xf0>)
     6be:	4001      	ands	r1, r0
     6c0:	50d1      	str	r1, [r2, r3]
     6c2:	e02c      	b.n	71e <TIMER32_0_IRQHandler+0xd6>
     6c4:	4b18      	ldr	r3, [pc, #96]	; (728 <TIMER32_0_IRQHandler+0xe0>)
     6c6:	7c1b      	ldrb	r3, [r3, #16]
     6c8:	2b02      	cmp	r3, #2
     6ca:	d111      	bne.n	6f0 <TIMER32_0_IRQHandler+0xa8>
     6cc:	22a0      	movs	r2, #160	; 0xa0
     6ce:	05d2      	lsls	r2, r2, #23
     6d0:	2384      	movs	r3, #132	; 0x84
     6d2:	019b      	lsls	r3, r3, #6
     6d4:	58d0      	ldr	r0, [r2, r3]
     6d6:	4916      	ldr	r1, [pc, #88]	; (730 <TIMER32_0_IRQHandler+0xe8>)
     6d8:	4001      	ands	r1, r0
     6da:	50d1      	str	r1, [r2, r3]
     6dc:	58d0      	ldr	r0, [r2, r3]
     6de:	4915      	ldr	r1, [pc, #84]	; (734 <TIMER32_0_IRQHandler+0xec>)
     6e0:	4001      	ands	r1, r0
     6e2:	50d1      	str	r1, [r2, r3]
     6e4:	58d0      	ldr	r0, [r2, r3]
     6e6:	2180      	movs	r1, #128	; 0x80
     6e8:	0189      	lsls	r1, r1, #6
     6ea:	4301      	orrs	r1, r0
     6ec:	50d1      	str	r1, [r2, r3]
     6ee:	e016      	b.n	71e <TIMER32_0_IRQHandler+0xd6>
     6f0:	4b0d      	ldr	r3, [pc, #52]	; (728 <TIMER32_0_IRQHandler+0xe0>)
     6f2:	7c1b      	ldrb	r3, [r3, #16]
     6f4:	2b03      	cmp	r3, #3
     6f6:	d112      	bne.n	71e <TIMER32_0_IRQHandler+0xd6>
     6f8:	22a0      	movs	r2, #160	; 0xa0
     6fa:	05d2      	lsls	r2, r2, #23
     6fc:	2384      	movs	r3, #132	; 0x84
     6fe:	019b      	lsls	r3, r3, #6
     700:	58d0      	ldr	r0, [r2, r3]
     702:	2180      	movs	r1, #128	; 0x80
     704:	0049      	lsls	r1, r1, #1
     706:	4301      	orrs	r1, r0
     708:	50d1      	str	r1, [r2, r3]
     70a:	58d0      	ldr	r0, [r2, r3]
     70c:	2180      	movs	r1, #128	; 0x80
     70e:	0149      	lsls	r1, r1, #5
     710:	4301      	orrs	r1, r0
     712:	50d1      	str	r1, [r2, r3]
     714:	58d0      	ldr	r0, [r2, r3]
     716:	2180      	movs	r1, #128	; 0x80
     718:	0189      	lsls	r1, r1, #6
     71a:	4301      	orrs	r1, r0
     71c:	50d1      	str	r1, [r2, r3]
     71e:	2201      	movs	r2, #1
     720:	4b06      	ldr	r3, [pc, #24]	; (73c <TIMER32_0_IRQHandler+0xf4>)
     722:	601a      	str	r2, [r3, #0]
     724:	bd00      	pop	{pc}
     726:	46c0      	nop			; (mov r8, r8)
     728:	1000098c 	.word	0x1000098c
     72c:	40018000 	.word	0x40018000
     730:	fffffeff 	.word	0xfffffeff
     734:	ffffefff 	.word	0xffffefff
     738:	ffffdfff 	.word	0xffffdfff
     73c:	40014000 	.word	0x40014000

00000740 <UART_IRQHandler>:
     740:	b508      	push	{r3, lr}
     742:	4b0a      	ldr	r3, [pc, #40]	; (76c <UART_IRQHandler+0x2c>)
     744:	695a      	ldr	r2, [r3, #20]
     746:	490a      	ldr	r1, [pc, #40]	; (770 <UART_IRQHandler+0x30>)
     748:	6808      	ldr	r0, [r1, #0]
     74a:	b2c0      	uxtb	r0, r0
     74c:	4909      	ldr	r1, [pc, #36]	; (774 <UART_IRQHandler+0x34>)
     74e:	5488      	strb	r0, [r1, r2]
     750:	3201      	adds	r2, #1
     752:	615a      	str	r2, [r3, #20]
     754:	7c1a      	ldrb	r2, [r3, #16]
     756:	4908      	ldr	r1, [pc, #32]	; (778 <UART_IRQHandler+0x38>)
     758:	6889      	ldr	r1, [r1, #8]
     75a:	0092      	lsls	r2, r2, #2
     75c:	50d1      	str	r1, [r2, r3]
     75e:	7c1a      	ldrb	r2, [r3, #16]
     760:	0092      	lsls	r2, r2, #2
     762:	58d1      	ldr	r1, [r2, r3]
     764:	4805      	ldr	r0, [pc, #20]	; (77c <UART_IRQHandler+0x3c>)
     766:	f000 f89f 	bl	8a8 <iprintf>
     76a:	bd08      	pop	{r3, pc}
     76c:	1000098c 	.word	0x1000098c
     770:	40008000 	.word	0x40008000
     774:	10000a2c 	.word	0x10000a2c
     778:	40018000 	.word	0x40018000
     77c:	00002ed8 	.word	0x00002ed8

00000780 <_read_r>:
     780:	b508      	push	{r3, lr}
     782:	f000 f88b 	bl	89c <__errno>
     786:	2316      	movs	r3, #22
     788:	6003      	str	r3, [r0, #0]
     78a:	2001      	movs	r0, #1
     78c:	4240      	negs	r0, r0
     78e:	bd08      	pop	{r3, pc}

00000790 <_lseek_r>:
     790:	2000      	movs	r0, #0
     792:	4770      	bx	lr

00000794 <_write_r>:
     794:	b510      	push	{r4, lr}
     796:	1c1c      	adds	r4, r3, #0
     798:	1c10      	adds	r0, r2, #0
     79a:	1c19      	adds	r1, r3, #0
     79c:	f7ff fe7e 	bl	49c <UARTSend>
     7a0:	1c20      	adds	r0, r4, #0
     7a2:	bd10      	pop	{r4, pc}

000007a4 <_close_r>:
     7a4:	2000      	movs	r0, #0
     7a6:	4770      	bx	lr

000007a8 <_sbrk_r>:
     7a8:	b508      	push	{r3, lr}
     7aa:	4b0b      	ldr	r3, [pc, #44]	; (7d8 <_sbrk_r+0x30>)
     7ac:	681b      	ldr	r3, [r3, #0]
     7ae:	2b00      	cmp	r3, #0
     7b0:	d102      	bne.n	7b8 <_sbrk_r+0x10>
     7b2:	4a0a      	ldr	r2, [pc, #40]	; (7dc <_sbrk_r+0x34>)
     7b4:	4b08      	ldr	r3, [pc, #32]	; (7d8 <_sbrk_r+0x30>)
     7b6:	601a      	str	r2, [r3, #0]
     7b8:	4b07      	ldr	r3, [pc, #28]	; (7d8 <_sbrk_r+0x30>)
     7ba:	6818      	ldr	r0, [r3, #0]
     7bc:	1841      	adds	r1, r0, r1
     7be:	466b      	mov	r3, sp
     7c0:	4299      	cmp	r1, r3
     7c2:	d906      	bls.n	7d2 <_sbrk_r+0x2a>
     7c4:	f000 f86a 	bl	89c <__errno>
     7c8:	230c      	movs	r3, #12
     7ca:	6003      	str	r3, [r0, #0]
     7cc:	2001      	movs	r0, #1
     7ce:	4240      	negs	r0, r0
     7d0:	e001      	b.n	7d6 <_sbrk_r+0x2e>
     7d2:	4b01      	ldr	r3, [pc, #4]	; (7d8 <_sbrk_r+0x30>)
     7d4:	6019      	str	r1, [r3, #0]
     7d6:	bd08      	pop	{r3, pc}
     7d8:	100009a4 	.word	0x100009a4
     7dc:	10000a90 	.word	0x10000a90

000007e0 <_fstat_r>:
     7e0:	b510      	push	{r4, lr}
     7e2:	1c14      	adds	r4, r2, #0
     7e4:	1c10      	adds	r0, r2, #0
     7e6:	2100      	movs	r1, #0
     7e8:	223c      	movs	r2, #60	; 0x3c
     7ea:	f000 f87d 	bl	8e8 <memset>
     7ee:	2380      	movs	r3, #128	; 0x80
     7f0:	019b      	lsls	r3, r3, #6
     7f2:	6063      	str	r3, [r4, #4]
     7f4:	2000      	movs	r0, #0
     7f6:	bd10      	pop	{r4, pc}

000007f8 <_isatty_r>:
     7f8:	2001      	movs	r0, #1
     7fa:	4770      	bx	lr

000007fc <__aeabi_uidiv>:
     7fc:	2900      	cmp	r1, #0
     7fe:	d034      	beq.n	86a <.udivsi3_skip_div0_test+0x6a>

00000800 <.udivsi3_skip_div0_test>:
     800:	2301      	movs	r3, #1
     802:	2200      	movs	r2, #0
     804:	b410      	push	{r4}
     806:	4288      	cmp	r0, r1
     808:	d32c      	bcc.n	864 <.udivsi3_skip_div0_test+0x64>
     80a:	2401      	movs	r4, #1
     80c:	0724      	lsls	r4, r4, #28
     80e:	42a1      	cmp	r1, r4
     810:	d204      	bcs.n	81c <.udivsi3_skip_div0_test+0x1c>
     812:	4281      	cmp	r1, r0
     814:	d202      	bcs.n	81c <.udivsi3_skip_div0_test+0x1c>
     816:	0109      	lsls	r1, r1, #4
     818:	011b      	lsls	r3, r3, #4
     81a:	e7f8      	b.n	80e <.udivsi3_skip_div0_test+0xe>
     81c:	00e4      	lsls	r4, r4, #3
     81e:	42a1      	cmp	r1, r4
     820:	d204      	bcs.n	82c <.udivsi3_skip_div0_test+0x2c>
     822:	4281      	cmp	r1, r0
     824:	d202      	bcs.n	82c <.udivsi3_skip_div0_test+0x2c>
     826:	0049      	lsls	r1, r1, #1
     828:	005b      	lsls	r3, r3, #1
     82a:	e7f8      	b.n	81e <.udivsi3_skip_div0_test+0x1e>
     82c:	4288      	cmp	r0, r1
     82e:	d301      	bcc.n	834 <.udivsi3_skip_div0_test+0x34>
     830:	1a40      	subs	r0, r0, r1
     832:	431a      	orrs	r2, r3
     834:	084c      	lsrs	r4, r1, #1
     836:	42a0      	cmp	r0, r4
     838:	d302      	bcc.n	840 <.udivsi3_skip_div0_test+0x40>
     83a:	1b00      	subs	r0, r0, r4
     83c:	085c      	lsrs	r4, r3, #1
     83e:	4322      	orrs	r2, r4
     840:	088c      	lsrs	r4, r1, #2
     842:	42a0      	cmp	r0, r4
     844:	d302      	bcc.n	84c <.udivsi3_skip_div0_test+0x4c>
     846:	1b00      	subs	r0, r0, r4
     848:	089c      	lsrs	r4, r3, #2
     84a:	4322      	orrs	r2, r4
     84c:	08cc      	lsrs	r4, r1, #3
     84e:	42a0      	cmp	r0, r4
     850:	d302      	bcc.n	858 <.udivsi3_skip_div0_test+0x58>
     852:	1b00      	subs	r0, r0, r4
     854:	08dc      	lsrs	r4, r3, #3
     856:	4322      	orrs	r2, r4
     858:	2800      	cmp	r0, #0
     85a:	d003      	beq.n	864 <.udivsi3_skip_div0_test+0x64>
     85c:	091b      	lsrs	r3, r3, #4
     85e:	d001      	beq.n	864 <.udivsi3_skip_div0_test+0x64>
     860:	0909      	lsrs	r1, r1, #4
     862:	e7e3      	b.n	82c <.udivsi3_skip_div0_test+0x2c>
     864:	1c10      	adds	r0, r2, #0
     866:	bc10      	pop	{r4}
     868:	4770      	bx	lr
     86a:	2800      	cmp	r0, #0
     86c:	d001      	beq.n	872 <.udivsi3_skip_div0_test+0x72>
     86e:	2000      	movs	r0, #0
     870:	43c0      	mvns	r0, r0
     872:	b407      	push	{r0, r1, r2}
     874:	4802      	ldr	r0, [pc, #8]	; (880 <.udivsi3_skip_div0_test+0x80>)
     876:	a102      	add	r1, pc, #8	; (adr r1, 880 <.udivsi3_skip_div0_test+0x80>)
     878:	1840      	adds	r0, r0, r1
     87a:	9002      	str	r0, [sp, #8]
     87c:	bd03      	pop	{r0, r1, pc}
     87e:	46c0      	nop			; (mov r8, r8)
     880:	00000019 	.word	0x00000019

00000884 <__aeabi_uidivmod>:
     884:	2900      	cmp	r1, #0
     886:	d0f0      	beq.n	86a <.udivsi3_skip_div0_test+0x6a>
     888:	b503      	push	{r0, r1, lr}
     88a:	f7ff ffb9 	bl	800 <.udivsi3_skip_div0_test>
     88e:	bc0e      	pop	{r1, r2, r3}
     890:	4342      	muls	r2, r0
     892:	1a89      	subs	r1, r1, r2
     894:	4718      	bx	r3
     896:	46c0      	nop			; (mov r8, r8)

00000898 <__aeabi_idiv0>:
     898:	4770      	bx	lr
     89a:	46c0      	nop			; (mov r8, r8)

0000089c <__errno>:
     89c:	4b01      	ldr	r3, [pc, #4]	; (8a4 <__errno+0x8>)
     89e:	6818      	ldr	r0, [r3, #0]
     8a0:	4770      	bx	lr
     8a2:	46c0      	nop			; (mov r8, r8)
     8a4:	100000c8 	.word	0x100000c8

000008a8 <iprintf>:
     8a8:	b40f      	push	{r0, r1, r2, r3}
     8aa:	b500      	push	{lr}
     8ac:	b083      	sub	sp, #12
     8ae:	ab04      	add	r3, sp, #16
     8b0:	cb04      	ldmia	r3!, {r2}
     8b2:	4a05      	ldr	r2, [pc, #20]	; (8c8 <iprintf+0x20>)
     8b4:	9301      	str	r3, [sp, #4]
     8b6:	6810      	ldr	r0, [r2, #0]
     8b8:	9a04      	ldr	r2, [sp, #16]
     8ba:	6881      	ldr	r1, [r0, #8]
     8bc:	f000 f89c 	bl	9f8 <_vfiprintf_r>
     8c0:	b003      	add	sp, #12
     8c2:	bc08      	pop	{r3}
     8c4:	b004      	add	sp, #16
     8c6:	4718      	bx	r3
     8c8:	100000c8 	.word	0x100000c8

000008cc <_iprintf_r>:
     8cc:	b40e      	push	{r1, r2, r3}
     8ce:	b500      	push	{lr}
     8d0:	b082      	sub	sp, #8
     8d2:	ab03      	add	r3, sp, #12
     8d4:	cb04      	ldmia	r3!, {r2}
     8d6:	6881      	ldr	r1, [r0, #8]
     8d8:	9301      	str	r3, [sp, #4]
     8da:	f000 f88d 	bl	9f8 <_vfiprintf_r>
     8de:	b002      	add	sp, #8
     8e0:	bc08      	pop	{r3}
     8e2:	b003      	add	sp, #12
     8e4:	4718      	bx	r3
     8e6:	46c0      	nop			; (mov r8, r8)

000008e8 <memset>:
     8e8:	b570      	push	{r4, r5, r6, lr}
     8ea:	0783      	lsls	r3, r0, #30
     8ec:	d03e      	beq.n	96c <memset+0x84>
     8ee:	1e54      	subs	r4, r2, #1
     8f0:	2a00      	cmp	r2, #0
     8f2:	d03a      	beq.n	96a <memset+0x82>
     8f4:	b2ce      	uxtb	r6, r1
     8f6:	1c03      	adds	r3, r0, #0
     8f8:	2503      	movs	r5, #3
     8fa:	e003      	b.n	904 <memset+0x1c>
     8fc:	1e62      	subs	r2, r4, #1
     8fe:	2c00      	cmp	r4, #0
     900:	d033      	beq.n	96a <memset+0x82>
     902:	1c14      	adds	r4, r2, #0
     904:	701e      	strb	r6, [r3, #0]
     906:	3301      	adds	r3, #1
     908:	422b      	tst	r3, r5
     90a:	d1f7      	bne.n	8fc <memset+0x14>
     90c:	2c03      	cmp	r4, #3
     90e:	d924      	bls.n	95a <memset+0x72>
     910:	22ff      	movs	r2, #255	; 0xff
     912:	400a      	ands	r2, r1
     914:	0215      	lsls	r5, r2, #8
     916:	432a      	orrs	r2, r5
     918:	0415      	lsls	r5, r2, #16
     91a:	432a      	orrs	r2, r5
     91c:	2c0f      	cmp	r4, #15
     91e:	d928      	bls.n	972 <memset+0x8a>
     920:	1c26      	adds	r6, r4, #0
     922:	3e10      	subs	r6, #16
     924:	0936      	lsrs	r6, r6, #4
     926:	3601      	adds	r6, #1
     928:	0136      	lsls	r6, r6, #4
     92a:	199e      	adds	r6, r3, r6
     92c:	601a      	str	r2, [r3, #0]
     92e:	605a      	str	r2, [r3, #4]
     930:	609a      	str	r2, [r3, #8]
     932:	60da      	str	r2, [r3, #12]
     934:	3310      	adds	r3, #16
     936:	429e      	cmp	r6, r3
     938:	d1f8      	bne.n	92c <memset+0x44>
     93a:	230f      	movs	r3, #15
     93c:	401c      	ands	r4, r3
     93e:	1c35      	adds	r5, r6, #0
     940:	1c33      	adds	r3, r6, #0
     942:	2c03      	cmp	r4, #3
     944:	d909      	bls.n	95a <memset+0x72>
     946:	1f23      	subs	r3, r4, #4
     948:	089b      	lsrs	r3, r3, #2
     94a:	3301      	adds	r3, #1
     94c:	009b      	lsls	r3, r3, #2
     94e:	18eb      	adds	r3, r5, r3
     950:	c504      	stmia	r5!, {r2}
     952:	429d      	cmp	r5, r3
     954:	d1fc      	bne.n	950 <memset+0x68>
     956:	2203      	movs	r2, #3
     958:	4014      	ands	r4, r2
     95a:	2c00      	cmp	r4, #0
     95c:	d005      	beq.n	96a <memset+0x82>
     95e:	b2c9      	uxtb	r1, r1
     960:	191c      	adds	r4, r3, r4
     962:	7019      	strb	r1, [r3, #0]
     964:	3301      	adds	r3, #1
     966:	42a3      	cmp	r3, r4
     968:	d1fb      	bne.n	962 <memset+0x7a>
     96a:	bd70      	pop	{r4, r5, r6, pc}
     96c:	1c03      	adds	r3, r0, #0
     96e:	1c14      	adds	r4, r2, #0
     970:	e7cc      	b.n	90c <memset+0x24>
     972:	1c1d      	adds	r5, r3, #0
     974:	e7e7      	b.n	946 <memset+0x5e>
     976:	46c0      	nop			; (mov r8, r8)

00000978 <__sprint_r>:
     978:	b5f0      	push	{r4, r5, r6, r7, lr}
     97a:	6893      	ldr	r3, [r2, #8]
     97c:	464e      	mov	r6, r9
     97e:	4645      	mov	r5, r8
     980:	4657      	mov	r7, sl
     982:	b4e0      	push	{r5, r6, r7}
     984:	4680      	mov	r8, r0
     986:	1c0e      	adds	r6, r1, #0
     988:	4691      	mov	r9, r2
     98a:	2b00      	cmp	r3, #0
     98c:	d02c      	beq.n	9e8 <__sprint_r+0x70>
     98e:	6e49      	ldr	r1, [r1, #100]	; 0x64
     990:	0489      	lsls	r1, r1, #18
     992:	d52c      	bpl.n	9ee <__sprint_r+0x76>
     994:	6812      	ldr	r2, [r2, #0]
     996:	4692      	mov	sl, r2
     998:	4652      	mov	r2, sl
     99a:	6852      	ldr	r2, [r2, #4]
     99c:	4651      	mov	r1, sl
     99e:	0897      	lsrs	r7, r2, #2
     9a0:	680d      	ldr	r5, [r1, #0]
     9a2:	2400      	movs	r4, #0
     9a4:	2f00      	cmp	r7, #0
     9a6:	dc03      	bgt.n	9b0 <__sprint_r+0x38>
     9a8:	e014      	b.n	9d4 <__sprint_r+0x5c>
     9aa:	3401      	adds	r4, #1
     9ac:	42a7      	cmp	r7, r4
     9ae:	d00f      	beq.n	9d0 <__sprint_r+0x58>
     9b0:	1c32      	adds	r2, r6, #0
     9b2:	cd02      	ldmia	r5!, {r1}
     9b4:	4640      	mov	r0, r8
     9b6:	f000 ff1f 	bl	17f8 <_fputwc_r>
     9ba:	1c42      	adds	r2, r0, #1
     9bc:	d1f5      	bne.n	9aa <__sprint_r+0x32>
     9be:	2300      	movs	r3, #0
     9c0:	464a      	mov	r2, r9
     9c2:	6093      	str	r3, [r2, #8]
     9c4:	6053      	str	r3, [r2, #4]
     9c6:	bc1c      	pop	{r2, r3, r4}
     9c8:	4690      	mov	r8, r2
     9ca:	4699      	mov	r9, r3
     9cc:	46a2      	mov	sl, r4
     9ce:	bdf0      	pop	{r4, r5, r6, r7, pc}
     9d0:	4649      	mov	r1, r9
     9d2:	688b      	ldr	r3, [r1, #8]
     9d4:	00bf      	lsls	r7, r7, #2
     9d6:	1bdb      	subs	r3, r3, r7
     9d8:	464a      	mov	r2, r9
     9da:	2108      	movs	r1, #8
     9dc:	6093      	str	r3, [r2, #8]
     9de:	448a      	add	sl, r1
     9e0:	2b00      	cmp	r3, #0
     9e2:	d1d9      	bne.n	998 <__sprint_r+0x20>
     9e4:	2000      	movs	r0, #0
     9e6:	e7ea      	b.n	9be <__sprint_r+0x46>
     9e8:	6053      	str	r3, [r2, #4]
     9ea:	2000      	movs	r0, #0
     9ec:	e7eb      	b.n	9c6 <__sprint_r+0x4e>
     9ee:	1c31      	adds	r1, r6, #0
     9f0:	f001 f898 	bl	1b24 <__sfvwrite_r>
     9f4:	e7e3      	b.n	9be <__sprint_r+0x46>
     9f6:	46c0      	nop			; (mov r8, r8)

000009f8 <_vfiprintf_r>:
     9f8:	b5f0      	push	{r4, r5, r6, r7, lr}
     9fa:	4656      	mov	r6, sl
     9fc:	464d      	mov	r5, r9
     9fe:	4644      	mov	r4, r8
     a00:	465f      	mov	r7, fp
     a02:	b4f0      	push	{r4, r5, r6, r7}
     a04:	4ccf      	ldr	r4, [pc, #828]	; (d44 <_vfiprintf_r+0x34c>)
     a06:	468a      	mov	sl, r1
     a08:	44a5      	add	sp, r4
     a0a:	9006      	str	r0, [sp, #24]
     a0c:	1c15      	adds	r5, r2, #0
     a0e:	930a      	str	r3, [sp, #40]	; 0x28
     a10:	2800      	cmp	r0, #0
     a12:	d004      	beq.n	a1e <_vfiprintf_r+0x26>
     a14:	6b80      	ldr	r0, [r0, #56]	; 0x38
     a16:	2800      	cmp	r0, #0
     a18:	d101      	bne.n	a1e <_vfiprintf_r+0x26>
     a1a:	f000 fc06 	bl	122a <_vfiprintf_r+0x832>
     a1e:	4651      	mov	r1, sl
     a20:	2280      	movs	r2, #128	; 0x80
     a22:	898b      	ldrh	r3, [r1, #12]
     a24:	0192      	lsls	r2, r2, #6
     a26:	4213      	tst	r3, r2
     a28:	d105      	bne.n	a36 <_vfiprintf_r+0x3e>
     a2a:	4313      	orrs	r3, r2
     a2c:	6e4c      	ldr	r4, [r1, #100]	; 0x64
     a2e:	4ac6      	ldr	r2, [pc, #792]	; (d48 <_vfiprintf_r+0x350>)
     a30:	818b      	strh	r3, [r1, #12]
     a32:	4022      	ands	r2, r4
     a34:	664a      	str	r2, [r1, #100]	; 0x64
     a36:	0719      	lsls	r1, r3, #28
     a38:	d400      	bmi.n	a3c <_vfiprintf_r+0x44>
     a3a:	e38a      	b.n	1152 <_vfiprintf_r+0x75a>
     a3c:	4652      	mov	r2, sl
     a3e:	6912      	ldr	r2, [r2, #16]
     a40:	2a00      	cmp	r2, #0
     a42:	d100      	bne.n	a46 <_vfiprintf_r+0x4e>
     a44:	e385      	b.n	1152 <_vfiprintf_r+0x75a>
     a46:	221a      	movs	r2, #26
     a48:	1c19      	adds	r1, r3, #0
     a4a:	4013      	ands	r3, r2
     a4c:	2b0a      	cmp	r3, #10
     a4e:	d100      	bne.n	a52 <_vfiprintf_r+0x5a>
     a50:	e38e      	b.n	1170 <_vfiprintf_r+0x778>
     a52:	2400      	movs	r4, #0
     a54:	940e      	str	r4, [sp, #56]	; 0x38
     a56:	9408      	str	r4, [sp, #32]
     a58:	466c      	mov	r4, sp
     a5a:	347f      	adds	r4, #127	; 0x7f
     a5c:	a83a      	add	r0, sp, #232	; 0xe8
     a5e:	9404      	str	r4, [sp, #16]
     a60:	9013      	str	r0, [sp, #76]	; 0x4c
     a62:	1c06      	adds	r6, r0, #0
     a64:	9804      	ldr	r0, [sp, #16]
     a66:	ac20      	add	r4, sp, #128	; 0x80
     a68:	2300      	movs	r3, #0
     a6a:	9403      	str	r4, [sp, #12]
     a6c:	1a24      	subs	r4, r4, r0
     a6e:	9315      	str	r3, [sp, #84]	; 0x54
     a70:	9314      	str	r3, [sp, #80]	; 0x50
     a72:	940f      	str	r4, [sp, #60]	; 0x3c
     a74:	782b      	ldrb	r3, [r5, #0]
     a76:	1c2c      	adds	r4, r5, #0
     a78:	2b25      	cmp	r3, #37	; 0x25
     a7a:	d019      	beq.n	ab0 <_vfiprintf_r+0xb8>
     a7c:	2b00      	cmp	r3, #0
     a7e:	d102      	bne.n	a86 <_vfiprintf_r+0x8e>
     a80:	e016      	b.n	ab0 <_vfiprintf_r+0xb8>
     a82:	2b00      	cmp	r3, #0
     a84:	d003      	beq.n	a8e <_vfiprintf_r+0x96>
     a86:	3401      	adds	r4, #1
     a88:	7823      	ldrb	r3, [r4, #0]
     a8a:	2b25      	cmp	r3, #37	; 0x25
     a8c:	d1f9      	bne.n	a82 <_vfiprintf_r+0x8a>
     a8e:	1b67      	subs	r7, r4, r5
     a90:	d00e      	beq.n	ab0 <_vfiprintf_r+0xb8>
     a92:	9915      	ldr	r1, [sp, #84]	; 0x54
     a94:	6035      	str	r5, [r6, #0]
     a96:	19cb      	adds	r3, r1, r7
     a98:	9315      	str	r3, [sp, #84]	; 0x54
     a9a:	9b14      	ldr	r3, [sp, #80]	; 0x50
     a9c:	6077      	str	r7, [r6, #4]
     a9e:	3301      	adds	r3, #1
     aa0:	9314      	str	r3, [sp, #80]	; 0x50
     aa2:	2b07      	cmp	r3, #7
     aa4:	dd00      	ble.n	aa8 <_vfiprintf_r+0xb0>
     aa6:	e398      	b.n	11da <_vfiprintf_r+0x7e2>
     aa8:	3608      	adds	r6, #8
     aaa:	9a08      	ldr	r2, [sp, #32]
     aac:	19d2      	adds	r2, r2, r7
     aae:	9208      	str	r2, [sp, #32]
     ab0:	7823      	ldrb	r3, [r4, #0]
     ab2:	2b00      	cmp	r3, #0
     ab4:	d101      	bne.n	aba <_vfiprintf_r+0xc2>
     ab6:	f000 fc28 	bl	130a <_vfiprintf_r+0x912>
     aba:	1c65      	adds	r5, r4, #1
     abc:	2447      	movs	r4, #71	; 0x47
     abe:	2300      	movs	r3, #0
     ac0:	446c      	add	r4, sp
     ac2:	7023      	strb	r3, [r4, #0]
     ac4:	2401      	movs	r4, #1
     ac6:	4264      	negs	r4, r4
     ac8:	46a0      	mov	r8, r4
     aca:	2280      	movs	r2, #128	; 0x80
     acc:	2400      	movs	r4, #0
     ace:	2304      	movs	r3, #4
     ad0:	499e      	ldr	r1, [pc, #632]	; (d4c <_vfiprintf_r+0x354>)
     ad2:	2000      	movs	r0, #0
     ad4:	9409      	str	r4, [sp, #36]	; 0x24
     ad6:	46a3      	mov	fp, r4
     ad8:	2710      	movs	r7, #16
     ada:	4691      	mov	r9, r2
     adc:	469c      	mov	ip, r3
     ade:	782b      	ldrb	r3, [r5, #0]
     ae0:	3501      	adds	r5, #1
     ae2:	1c1a      	adds	r2, r3, #0
     ae4:	3a20      	subs	r2, #32
     ae6:	2a58      	cmp	r2, #88	; 0x58
     ae8:	d90f      	bls.n	b0a <_vfiprintf_r+0x112>
     aea:	2447      	movs	r4, #71	; 0x47
     aec:	446c      	add	r4, sp
     aee:	7020      	strb	r0, [r4, #0]
     af0:	2b00      	cmp	r3, #0
     af2:	d101      	bne.n	af8 <_vfiprintf_r+0x100>
     af4:	f000 fc09 	bl	130a <_vfiprintf_r+0x912>
     af8:	aa16      	add	r2, sp, #88	; 0x58
     afa:	7013      	strb	r3, [r2, #0]
     afc:	2300      	movs	r3, #0
     afe:	7023      	strb	r3, [r4, #0]
     b00:	2401      	movs	r4, #1
     b02:	9405      	str	r4, [sp, #20]
     b04:	9407      	str	r4, [sp, #28]
     b06:	920d      	str	r2, [sp, #52]	; 0x34
     b08:	e149      	b.n	d9e <_vfiprintf_r+0x3a6>
     b0a:	0092      	lsls	r2, r2, #2
     b0c:	588a      	ldr	r2, [r1, r2]
     b0e:	4697      	mov	pc, r2
     b10:	465c      	mov	r4, fp
     b12:	2310      	movs	r3, #16
     b14:	431c      	orrs	r4, r3
     b16:	46a3      	mov	fp, r4
     b18:	4658      	mov	r0, fp
     b1a:	06c0      	lsls	r0, r0, #27
     b1c:	d400      	bmi.n	b20 <_vfiprintf_r+0x128>
     b1e:	e3bb      	b.n	1298 <_vfiprintf_r+0x8a0>
     b20:	9c0a      	ldr	r4, [sp, #40]	; 0x28
     b22:	6827      	ldr	r7, [r4, #0]
     b24:	1c39      	adds	r1, r7, #0
     b26:	3404      	adds	r4, #4
     b28:	1e4b      	subs	r3, r1, #1
     b2a:	4199      	sbcs	r1, r3
     b2c:	940a      	str	r4, [sp, #40]	; 0x28
     b2e:	2301      	movs	r3, #1
     b30:	2047      	movs	r0, #71	; 0x47
     b32:	2200      	movs	r2, #0
     b34:	4468      	add	r0, sp
     b36:	7002      	strb	r2, [r0, #0]
     b38:	2400      	movs	r4, #0
     b3a:	4642      	mov	r2, r8
     b3c:	2a00      	cmp	r2, #0
     b3e:	db03      	blt.n	b48 <_vfiprintf_r+0x150>
     b40:	4658      	mov	r0, fp
     b42:	2280      	movs	r2, #128	; 0x80
     b44:	4390      	bics	r0, r2
     b46:	4683      	mov	fp, r0
     b48:	4642      	mov	r2, r8
     b4a:	2a00      	cmp	r2, #0
     b4c:	d102      	bne.n	b54 <_vfiprintf_r+0x15c>
     b4e:	2900      	cmp	r1, #0
     b50:	d100      	bne.n	b54 <_vfiprintf_r+0x15c>
     b52:	e275      	b.n	1040 <_vfiprintf_r+0x648>
     b54:	2b01      	cmp	r3, #1
     b56:	d100      	bne.n	b5a <_vfiprintf_r+0x162>
     b58:	e371      	b.n	123e <_vfiprintf_r+0x846>
     b5a:	2b02      	cmp	r3, #2
     b5c:	d100      	bne.n	b60 <_vfiprintf_r+0x168>
     b5e:	e389      	b.n	1274 <_vfiprintf_r+0x87c>
     b60:	466b      	mov	r3, sp
     b62:	337f      	adds	r3, #127	; 0x7f
     b64:	2107      	movs	r1, #7
     b66:	1c0a      	adds	r2, r1, #0
     b68:	403a      	ands	r2, r7
     b6a:	3230      	adds	r2, #48	; 0x30
     b6c:	1c18      	adds	r0, r3, #0
     b6e:	701a      	strb	r2, [r3, #0]
     b70:	08ff      	lsrs	r7, r7, #3
     b72:	3b01      	subs	r3, #1
     b74:	2f00      	cmp	r7, #0
     b76:	d1f6      	bne.n	b66 <_vfiprintf_r+0x16e>
     b78:	900d      	str	r0, [sp, #52]	; 0x34
     b7a:	1c01      	adds	r1, r0, #0
     b7c:	4658      	mov	r0, fp
     b7e:	07c0      	lsls	r0, r0, #31
     b80:	d400      	bmi.n	b84 <_vfiprintf_r+0x18c>
     b82:	e3a9      	b.n	12d8 <_vfiprintf_r+0x8e0>
     b84:	2a30      	cmp	r2, #48	; 0x30
     b86:	d101      	bne.n	b8c <_vfiprintf_r+0x194>
     b88:	f000 fbf4 	bl	1374 <_vfiprintf_r+0x97c>
     b8c:	930d      	str	r3, [sp, #52]	; 0x34
     b8e:	3901      	subs	r1, #1
     b90:	2330      	movs	r3, #48	; 0x30
     b92:	700b      	strb	r3, [r1, #0]
     b94:	9a0d      	ldr	r2, [sp, #52]	; 0x34
     b96:	9903      	ldr	r1, [sp, #12]
     b98:	1a89      	subs	r1, r1, r2
     b9a:	9107      	str	r1, [sp, #28]
     b9c:	e25e      	b.n	105c <_vfiprintf_r+0x664>
     b9e:	4658      	mov	r0, fp
     ba0:	2310      	movs	r3, #16
     ba2:	4318      	orrs	r0, r3
     ba4:	4683      	mov	fp, r0
     ba6:	4659      	mov	r1, fp
     ba8:	06c9      	lsls	r1, r1, #27
     baa:	d400      	bmi.n	bae <_vfiprintf_r+0x1b6>
     bac:	e37b      	b.n	12a6 <_vfiprintf_r+0x8ae>
     bae:	9c0a      	ldr	r4, [sp, #40]	; 0x28
     bb0:	6827      	ldr	r7, [r4, #0]
     bb2:	1c39      	adds	r1, r7, #0
     bb4:	3404      	adds	r4, #4
     bb6:	1e4b      	subs	r3, r1, #1
     bb8:	4199      	sbcs	r1, r3
     bba:	940a      	str	r4, [sp, #40]	; 0x28
     bbc:	2300      	movs	r3, #0
     bbe:	e7b7      	b.n	b30 <_vfiprintf_r+0x138>
     bc0:	9c0a      	ldr	r4, [sp, #40]	; 0x28
     bc2:	6824      	ldr	r4, [r4, #0]
     bc4:	9409      	str	r4, [sp, #36]	; 0x24
     bc6:	9c0a      	ldr	r4, [sp, #40]	; 0x28
     bc8:	3404      	adds	r4, #4
     bca:	940a      	str	r4, [sp, #40]	; 0x28
     bcc:	9c09      	ldr	r4, [sp, #36]	; 0x24
     bce:	2c00      	cmp	r4, #0
     bd0:	da85      	bge.n	ade <_vfiprintf_r+0xe6>
     bd2:	4264      	negs	r4, r4
     bd4:	9409      	str	r4, [sp, #36]	; 0x24
     bd6:	465a      	mov	r2, fp
     bd8:	4663      	mov	r3, ip
     bda:	431a      	orrs	r2, r3
     bdc:	4693      	mov	fp, r2
     bde:	e77e      	b.n	ade <_vfiprintf_r+0xe6>
     be0:	9c0a      	ldr	r4, [sp, #40]	; 0x28
     be2:	2047      	movs	r0, #71	; 0x47
     be4:	9f0a      	ldr	r7, [sp, #40]	; 0x28
     be6:	6824      	ldr	r4, [r4, #0]
     be8:	2300      	movs	r3, #0
     bea:	4468      	add	r0, sp
     bec:	7003      	strb	r3, [r0, #0]
     bee:	3704      	adds	r7, #4
     bf0:	940d      	str	r4, [sp, #52]	; 0x34
     bf2:	2c00      	cmp	r4, #0
     bf4:	d100      	bne.n	bf8 <_vfiprintf_r+0x200>
     bf6:	e3b2      	b.n	135e <_vfiprintf_r+0x966>
     bf8:	4640      	mov	r0, r8
     bfa:	2800      	cmp	r0, #0
     bfc:	da00      	bge.n	c00 <_vfiprintf_r+0x208>
     bfe:	e3a3      	b.n	1348 <_vfiprintf_r+0x950>
     c00:	980d      	ldr	r0, [sp, #52]	; 0x34
     c02:	2100      	movs	r1, #0
     c04:	4642      	mov	r2, r8
     c06:	f001 fca3 	bl	2550 <memchr>
     c0a:	2800      	cmp	r0, #0
     c0c:	d100      	bne.n	c10 <_vfiprintf_r+0x218>
     c0e:	e392      	b.n	1336 <_vfiprintf_r+0x93e>
     c10:	9c0d      	ldr	r4, [sp, #52]	; 0x34
     c12:	1b00      	subs	r0, r0, r4
     c14:	9007      	str	r0, [sp, #28]
     c16:	4540      	cmp	r0, r8
     c18:	dd00      	ble.n	c1c <_vfiprintf_r+0x224>
     c1a:	e38c      	b.n	1336 <_vfiprintf_r+0x93e>
     c1c:	2047      	movs	r0, #71	; 0x47
     c1e:	4468      	add	r0, sp
     c20:	2100      	movs	r1, #0
     c22:	7804      	ldrb	r4, [r0, #0]
     c24:	970a      	str	r7, [sp, #40]	; 0x28
     c26:	910b      	str	r1, [sp, #44]	; 0x2c
     c28:	e21a      	b.n	1060 <_vfiprintf_r+0x668>
     c2a:	2147      	movs	r1, #71	; 0x47
     c2c:	4469      	add	r1, sp
     c2e:	4c48      	ldr	r4, [pc, #288]	; (d50 <_vfiprintf_r+0x358>)
     c30:	7008      	strb	r0, [r1, #0]
     c32:	4658      	mov	r0, fp
     c34:	940e      	str	r4, [sp, #56]	; 0x38
     c36:	06c0      	lsls	r0, r0, #27
     c38:	d400      	bmi.n	c3c <_vfiprintf_r+0x244>
     c3a:	e1c3      	b.n	fc4 <_vfiprintf_r+0x5cc>
     c3c:	9c0a      	ldr	r4, [sp, #40]	; 0x28
     c3e:	6827      	ldr	r7, [r4, #0]
     c40:	3404      	adds	r4, #4
     c42:	940a      	str	r4, [sp, #40]	; 0x28
     c44:	4658      	mov	r0, fp
     c46:	07c0      	lsls	r0, r0, #31
     c48:	d500      	bpl.n	c4c <_vfiprintf_r+0x254>
     c4a:	e1c7      	b.n	fdc <_vfiprintf_r+0x5e4>
     c4c:	1c39      	adds	r1, r7, #0
     c4e:	1e4b      	subs	r3, r1, #1
     c50:	4199      	sbcs	r1, r3
     c52:	2302      	movs	r3, #2
     c54:	e76c      	b.n	b30 <_vfiprintf_r+0x138>
     c56:	2247      	movs	r2, #71	; 0x47
     c58:	446a      	add	r2, sp
     c5a:	465b      	mov	r3, fp
     c5c:	7010      	strb	r0, [r2, #0]
     c5e:	06db      	lsls	r3, r3, #27
     c60:	d500      	bpl.n	c64 <_vfiprintf_r+0x26c>
     c62:	e33d      	b.n	12e0 <_vfiprintf_r+0x8e8>
     c64:	4658      	mov	r0, fp
     c66:	0640      	lsls	r0, r0, #25
     c68:	d400      	bmi.n	c6c <_vfiprintf_r+0x274>
     c6a:	e339      	b.n	12e0 <_vfiprintf_r+0x8e8>
     c6c:	990a      	ldr	r1, [sp, #40]	; 0x28
     c6e:	9c0a      	ldr	r4, [sp, #40]	; 0x28
     c70:	466a      	mov	r2, sp
     c72:	2320      	movs	r3, #32
     c74:	6809      	ldr	r1, [r1, #0]
     c76:	5a9b      	ldrh	r3, [r3, r2]
     c78:	3404      	adds	r4, #4
     c7a:	9101      	str	r1, [sp, #4]
     c7c:	800b      	strh	r3, [r1, #0]
     c7e:	940a      	str	r4, [sp, #40]	; 0x28
     c80:	e6f8      	b.n	a74 <_vfiprintf_r+0x7c>
     c82:	465a      	mov	r2, fp
     c84:	433a      	orrs	r2, r7
     c86:	4693      	mov	fp, r2
     c88:	e729      	b.n	ade <_vfiprintf_r+0xe6>
     c8a:	9b0a      	ldr	r3, [sp, #40]	; 0x28
     c8c:	4658      	mov	r0, fp
     c8e:	1c1c      	adds	r4, r3, #0
     c90:	3404      	adds	r4, #4
     c92:	681f      	ldr	r7, [r3, #0]
     c94:	2302      	movs	r3, #2
     c96:	4318      	orrs	r0, r3
     c98:	a912      	add	r1, sp, #72	; 0x48
     c9a:	2330      	movs	r3, #48	; 0x30
     c9c:	940a      	str	r4, [sp, #40]	; 0x28
     c9e:	2249      	movs	r2, #73	; 0x49
     ca0:	4c2b      	ldr	r4, [pc, #172]	; (d50 <_vfiprintf_r+0x358>)
     ca2:	700b      	strb	r3, [r1, #0]
     ca4:	446a      	add	r2, sp
     ca6:	2378      	movs	r3, #120	; 0x78
     ca8:	1c39      	adds	r1, r7, #0
     caa:	7013      	strb	r3, [r2, #0]
     cac:	4683      	mov	fp, r0
     cae:	1e4b      	subs	r3, r1, #1
     cb0:	4199      	sbcs	r1, r3
     cb2:	940e      	str	r4, [sp, #56]	; 0x38
     cb4:	2302      	movs	r3, #2
     cb6:	e73b      	b.n	b30 <_vfiprintf_r+0x138>
     cb8:	782b      	ldrb	r3, [r5, #0]
     cba:	3501      	adds	r5, #1
     cbc:	2b2a      	cmp	r3, #42	; 0x2a
     cbe:	d100      	bne.n	cc2 <_vfiprintf_r+0x2ca>
     cc0:	e367      	b.n	1392 <_vfiprintf_r+0x99a>
     cc2:	1c1a      	adds	r2, r3, #0
     cc4:	3a30      	subs	r2, #48	; 0x30
     cc6:	2400      	movs	r4, #0
     cc8:	2a09      	cmp	r2, #9
     cca:	d80f      	bhi.n	cec <_vfiprintf_r+0x2f4>
     ccc:	00a3      	lsls	r3, r4, #2
     cce:	191c      	adds	r4, r3, r4
     cd0:	782b      	ldrb	r3, [r5, #0]
     cd2:	0064      	lsls	r4, r4, #1
     cd4:	1914      	adds	r4, r2, r4
     cd6:	1c1a      	adds	r2, r3, #0
     cd8:	3a30      	subs	r2, #48	; 0x30
     cda:	3501      	adds	r5, #1
     cdc:	2a09      	cmp	r2, #9
     cde:	d9f5      	bls.n	ccc <_vfiprintf_r+0x2d4>
     ce0:	46a0      	mov	r8, r4
     ce2:	2c00      	cmp	r4, #0
     ce4:	db00      	blt.n	ce8 <_vfiprintf_r+0x2f0>
     ce6:	e6fc      	b.n	ae2 <_vfiprintf_r+0xea>
     ce8:	2401      	movs	r4, #1
     cea:	4264      	negs	r4, r4
     cec:	46a0      	mov	r8, r4
     cee:	e6f8      	b.n	ae2 <_vfiprintf_r+0xea>
     cf0:	1c1a      	adds	r2, r3, #0
     cf2:	2400      	movs	r4, #0
     cf4:	3a30      	subs	r2, #48	; 0x30
     cf6:	00a3      	lsls	r3, r4, #2
     cf8:	191c      	adds	r4, r3, r4
     cfa:	782b      	ldrb	r3, [r5, #0]
     cfc:	0064      	lsls	r4, r4, #1
     cfe:	18a4      	adds	r4, r4, r2
     d00:	1c1a      	adds	r2, r3, #0
     d02:	3a30      	subs	r2, #48	; 0x30
     d04:	3501      	adds	r5, #1
     d06:	2a09      	cmp	r2, #9
     d08:	d9f5      	bls.n	cf6 <_vfiprintf_r+0x2fe>
     d0a:	9409      	str	r4, [sp, #36]	; 0x24
     d0c:	e6e9      	b.n	ae2 <_vfiprintf_r+0xea>
     d0e:	465b      	mov	r3, fp
     d10:	464c      	mov	r4, r9
     d12:	4323      	orrs	r3, r4
     d14:	469b      	mov	fp, r3
     d16:	e6e2      	b.n	ade <_vfiprintf_r+0xe6>
     d18:	202b      	movs	r0, #43	; 0x2b
     d1a:	e6e0      	b.n	ade <_vfiprintf_r+0xe6>
     d1c:	465a      	mov	r2, fp
     d1e:	2301      	movs	r3, #1
     d20:	431a      	orrs	r2, r3
     d22:	4693      	mov	fp, r2
     d24:	e6db      	b.n	ade <_vfiprintf_r+0xe6>
     d26:	2800      	cmp	r0, #0
     d28:	d000      	beq.n	d2c <_vfiprintf_r+0x334>
     d2a:	e6d8      	b.n	ade <_vfiprintf_r+0xe6>
     d2c:	2020      	movs	r0, #32
     d2e:	e6d6      	b.n	ade <_vfiprintf_r+0xe6>
     d30:	465c      	mov	r4, fp
     d32:	433c      	orrs	r4, r7
     d34:	46a3      	mov	fp, r4
     d36:	e6d2      	b.n	ade <_vfiprintf_r+0xe6>
     d38:	465a      	mov	r2, fp
     d3a:	2340      	movs	r3, #64	; 0x40
     d3c:	431a      	orrs	r2, r3
     d3e:	4693      	mov	fp, r2
     d40:	e6cd      	b.n	ade <_vfiprintf_r+0xe6>
     d42:	46c0      	nop			; (mov r8, r8)
     d44:	fffffb14 	.word	0xfffffb14
     d48:	ffffdfff 	.word	0xffffdfff
     d4c:	00002ef4 	.word	0x00002ef4
     d50:	0000308c 	.word	0x0000308c
     d54:	2447      	movs	r4, #71	; 0x47
     d56:	446c      	add	r4, sp
     d58:	465b      	mov	r3, fp
     d5a:	7020      	strb	r0, [r4, #0]
     d5c:	06db      	lsls	r3, r3, #27
     d5e:	d400      	bmi.n	d62 <_vfiprintf_r+0x36a>
     d60:	e156      	b.n	1010 <_vfiprintf_r+0x618>
     d62:	9c0a      	ldr	r4, [sp, #40]	; 0x28
     d64:	6827      	ldr	r7, [r4, #0]
     d66:	3404      	adds	r4, #4
     d68:	940a      	str	r4, [sp, #40]	; 0x28
     d6a:	2f00      	cmp	r7, #0
     d6c:	da00      	bge.n	d70 <_vfiprintf_r+0x378>
     d6e:	e15c      	b.n	102a <_vfiprintf_r+0x632>
     d70:	2047      	movs	r0, #71	; 0x47
     d72:	4468      	add	r0, sp
     d74:	1c39      	adds	r1, r7, #0
     d76:	1e4b      	subs	r3, r1, #1
     d78:	4199      	sbcs	r1, r3
     d7a:	7804      	ldrb	r4, [r0, #0]
     d7c:	2301      	movs	r3, #1
     d7e:	e6dc      	b.n	b3a <_vfiprintf_r+0x142>
     d80:	9a0a      	ldr	r2, [sp, #40]	; 0x28
     d82:	ab16      	add	r3, sp, #88	; 0x58
     d84:	1c14      	adds	r4, r2, #0
     d86:	6812      	ldr	r2, [r2, #0]
     d88:	3404      	adds	r4, #4
     d8a:	2047      	movs	r0, #71	; 0x47
     d8c:	940a      	str	r4, [sp, #40]	; 0x28
     d8e:	701a      	strb	r2, [r3, #0]
     d90:	2401      	movs	r4, #1
     d92:	2200      	movs	r2, #0
     d94:	4468      	add	r0, sp
     d96:	7002      	strb	r2, [r0, #0]
     d98:	9405      	str	r4, [sp, #20]
     d9a:	9407      	str	r4, [sp, #28]
     d9c:	930d      	str	r3, [sp, #52]	; 0x34
     d9e:	2400      	movs	r4, #0
     da0:	940b      	str	r4, [sp, #44]	; 0x2c
     da2:	2302      	movs	r3, #2
     da4:	465c      	mov	r4, fp
     da6:	401c      	ands	r4, r3
     da8:	940c      	str	r4, [sp, #48]	; 0x30
     daa:	d002      	beq.n	db2 <_vfiprintf_r+0x3ba>
     dac:	9c05      	ldr	r4, [sp, #20]
     dae:	3402      	adds	r4, #2
     db0:	9405      	str	r4, [sp, #20]
     db2:	2384      	movs	r3, #132	; 0x84
     db4:	4658      	mov	r0, fp
     db6:	4018      	ands	r0, r3
     db8:	4681      	mov	r9, r0
     dba:	d138      	bne.n	e2e <_vfiprintf_r+0x436>
     dbc:	9909      	ldr	r1, [sp, #36]	; 0x24
     dbe:	9a05      	ldr	r2, [sp, #20]
     dc0:	1a8c      	subs	r4, r1, r2
     dc2:	2c00      	cmp	r4, #0
     dc4:	dd33      	ble.n	e2e <_vfiprintf_r+0x436>
     dc6:	4fbe      	ldr	r7, [pc, #760]	; (10c0 <_vfiprintf_r+0x6c8>)
     dc8:	2c10      	cmp	r4, #16
     dca:	dd24      	ble.n	e16 <_vfiprintf_r+0x41e>
     dcc:	2310      	movs	r3, #16
     dce:	4698      	mov	r8, r3
     dd0:	1c33      	adds	r3, r6, #0
     dd2:	4656      	mov	r6, sl
     dd4:	46aa      	mov	sl, r5
     dd6:	9d06      	ldr	r5, [sp, #24]
     dd8:	e003      	b.n	de2 <_vfiprintf_r+0x3ea>
     dda:	3c10      	subs	r4, #16
     ddc:	3308      	adds	r3, #8
     dde:	2c10      	cmp	r4, #16
     de0:	dd16      	ble.n	e10 <_vfiprintf_r+0x418>
     de2:	9a15      	ldr	r2, [sp, #84]	; 0x54
     de4:	4640      	mov	r0, r8
     de6:	3210      	adds	r2, #16
     de8:	9215      	str	r2, [sp, #84]	; 0x54
     dea:	9a14      	ldr	r2, [sp, #80]	; 0x50
     dec:	601f      	str	r7, [r3, #0]
     dee:	3201      	adds	r2, #1
     df0:	6058      	str	r0, [r3, #4]
     df2:	9214      	str	r2, [sp, #80]	; 0x50
     df4:	2a07      	cmp	r2, #7
     df6:	ddf0      	ble.n	dda <_vfiprintf_r+0x3e2>
     df8:	1c28      	adds	r0, r5, #0
     dfa:	1c31      	adds	r1, r6, #0
     dfc:	aa13      	add	r2, sp, #76	; 0x4c
     dfe:	f7ff fdbb 	bl	978 <__sprint_r>
     e02:	2800      	cmp	r0, #0
     e04:	d000      	beq.n	e08 <_vfiprintf_r+0x410>
     e06:	e137      	b.n	1078 <_vfiprintf_r+0x680>
     e08:	3c10      	subs	r4, #16
     e0a:	ab3a      	add	r3, sp, #232	; 0xe8
     e0c:	2c10      	cmp	r4, #16
     e0e:	dce8      	bgt.n	de2 <_vfiprintf_r+0x3ea>
     e10:	4655      	mov	r5, sl
     e12:	46b2      	mov	sl, r6
     e14:	1c1e      	adds	r6, r3, #0
     e16:	9915      	ldr	r1, [sp, #84]	; 0x54
     e18:	9b14      	ldr	r3, [sp, #80]	; 0x50
     e1a:	6074      	str	r4, [r6, #4]
     e1c:	3301      	adds	r3, #1
     e1e:	190c      	adds	r4, r1, r4
     e20:	6037      	str	r7, [r6, #0]
     e22:	9415      	str	r4, [sp, #84]	; 0x54
     e24:	9314      	str	r3, [sp, #80]	; 0x50
     e26:	2b07      	cmp	r3, #7
     e28:	dd00      	ble.n	e2c <_vfiprintf_r+0x434>
     e2a:	e243      	b.n	12b4 <_vfiprintf_r+0x8bc>
     e2c:	3608      	adds	r6, #8
     e2e:	2247      	movs	r2, #71	; 0x47
     e30:	446a      	add	r2, sp
     e32:	7813      	ldrb	r3, [r2, #0]
     e34:	2b00      	cmp	r3, #0
     e36:	d00c      	beq.n	e52 <_vfiprintf_r+0x45a>
     e38:	2301      	movs	r3, #1
     e3a:	6073      	str	r3, [r6, #4]
     e3c:	9b15      	ldr	r3, [sp, #84]	; 0x54
     e3e:	6032      	str	r2, [r6, #0]
     e40:	3301      	adds	r3, #1
     e42:	9315      	str	r3, [sp, #84]	; 0x54
     e44:	9b14      	ldr	r3, [sp, #80]	; 0x50
     e46:	3301      	adds	r3, #1
     e48:	9314      	str	r3, [sp, #80]	; 0x50
     e4a:	2b07      	cmp	r3, #7
     e4c:	dd00      	ble.n	e50 <_vfiprintf_r+0x458>
     e4e:	e1e2      	b.n	1216 <_vfiprintf_r+0x81e>
     e50:	3608      	adds	r6, #8
     e52:	9c0c      	ldr	r4, [sp, #48]	; 0x30
     e54:	2c00      	cmp	r4, #0
     e56:	d00d      	beq.n	e74 <_vfiprintf_r+0x47c>
     e58:	ab12      	add	r3, sp, #72	; 0x48
     e5a:	6033      	str	r3, [r6, #0]
     e5c:	2302      	movs	r3, #2
     e5e:	6073      	str	r3, [r6, #4]
     e60:	9b15      	ldr	r3, [sp, #84]	; 0x54
     e62:	3302      	adds	r3, #2
     e64:	9315      	str	r3, [sp, #84]	; 0x54
     e66:	9b14      	ldr	r3, [sp, #80]	; 0x50
     e68:	3301      	adds	r3, #1
     e6a:	9314      	str	r3, [sp, #80]	; 0x50
     e6c:	2b07      	cmp	r3, #7
     e6e:	dd00      	ble.n	e72 <_vfiprintf_r+0x47a>
     e70:	e1c7      	b.n	1202 <_vfiprintf_r+0x80a>
     e72:	3608      	adds	r6, #8
     e74:	4648      	mov	r0, r9
     e76:	2880      	cmp	r0, #128	; 0x80
     e78:	d100      	bne.n	e7c <_vfiprintf_r+0x484>
     e7a:	e10e      	b.n	109a <_vfiprintf_r+0x6a2>
     e7c:	980b      	ldr	r0, [sp, #44]	; 0x2c
     e7e:	9907      	ldr	r1, [sp, #28]
     e80:	1a44      	subs	r4, r0, r1
     e82:	2c00      	cmp	r4, #0
     e84:	dd38      	ble.n	ef8 <_vfiprintf_r+0x500>
     e86:	4f8e      	ldr	r7, [pc, #568]	; (10c0 <_vfiprintf_r+0x6c8>)
     e88:	2c10      	cmp	r4, #16
     e8a:	dd28      	ble.n	ede <_vfiprintf_r+0x4e6>
     e8c:	2210      	movs	r2, #16
     e8e:	2310      	movs	r3, #16
     e90:	19d2      	adds	r2, r2, r7
     e92:	4698      	mov	r8, r3
     e94:	4691      	mov	r9, r2
     e96:	1c33      	adds	r3, r6, #0
     e98:	4656      	mov	r6, sl
     e9a:	46aa      	mov	sl, r5
     e9c:	9d06      	ldr	r5, [sp, #24]
     e9e:	e003      	b.n	ea8 <_vfiprintf_r+0x4b0>
     ea0:	3c10      	subs	r4, #16
     ea2:	3308      	adds	r3, #8
     ea4:	2c10      	cmp	r4, #16
     ea6:	dd17      	ble.n	ed8 <_vfiprintf_r+0x4e0>
     ea8:	9a15      	ldr	r2, [sp, #84]	; 0x54
     eaa:	4648      	mov	r0, r9
     eac:	3210      	adds	r2, #16
     eae:	9215      	str	r2, [sp, #84]	; 0x54
     eb0:	9a14      	ldr	r2, [sp, #80]	; 0x50
     eb2:	4641      	mov	r1, r8
     eb4:	3201      	adds	r2, #1
     eb6:	6018      	str	r0, [r3, #0]
     eb8:	6059      	str	r1, [r3, #4]
     eba:	9214      	str	r2, [sp, #80]	; 0x50
     ebc:	2a07      	cmp	r2, #7
     ebe:	ddef      	ble.n	ea0 <_vfiprintf_r+0x4a8>
     ec0:	1c28      	adds	r0, r5, #0
     ec2:	1c31      	adds	r1, r6, #0
     ec4:	aa13      	add	r2, sp, #76	; 0x4c
     ec6:	f7ff fd57 	bl	978 <__sprint_r>
     eca:	2800      	cmp	r0, #0
     ecc:	d000      	beq.n	ed0 <_vfiprintf_r+0x4d8>
     ece:	e0d3      	b.n	1078 <_vfiprintf_r+0x680>
     ed0:	3c10      	subs	r4, #16
     ed2:	ab3a      	add	r3, sp, #232	; 0xe8
     ed4:	2c10      	cmp	r4, #16
     ed6:	dce7      	bgt.n	ea8 <_vfiprintf_r+0x4b0>
     ed8:	4655      	mov	r5, sl
     eda:	46b2      	mov	sl, r6
     edc:	1c1e      	adds	r6, r3, #0
     ede:	9a15      	ldr	r2, [sp, #84]	; 0x54
     ee0:	9b14      	ldr	r3, [sp, #80]	; 0x50
     ee2:	3710      	adds	r7, #16
     ee4:	6074      	str	r4, [r6, #4]
     ee6:	3301      	adds	r3, #1
     ee8:	1914      	adds	r4, r2, r4
     eea:	6037      	str	r7, [r6, #0]
     eec:	9415      	str	r4, [sp, #84]	; 0x54
     eee:	9314      	str	r3, [sp, #80]	; 0x50
     ef0:	2b07      	cmp	r3, #7
     ef2:	dd00      	ble.n	ef6 <_vfiprintf_r+0x4fe>
     ef4:	e17b      	b.n	11ee <_vfiprintf_r+0x7f6>
     ef6:	3608      	adds	r6, #8
     ef8:	9c0d      	ldr	r4, [sp, #52]	; 0x34
     efa:	9815      	ldr	r0, [sp, #84]	; 0x54
     efc:	6034      	str	r4, [r6, #0]
     efe:	9c07      	ldr	r4, [sp, #28]
     f00:	1903      	adds	r3, r0, r4
     f02:	9315      	str	r3, [sp, #84]	; 0x54
     f04:	9b14      	ldr	r3, [sp, #80]	; 0x50
     f06:	6074      	str	r4, [r6, #4]
     f08:	3301      	adds	r3, #1
     f0a:	9314      	str	r3, [sp, #80]	; 0x50
     f0c:	2b07      	cmp	r3, #7
     f0e:	dd00      	ble.n	f12 <_vfiprintf_r+0x51a>
     f10:	e108      	b.n	1124 <_vfiprintf_r+0x72c>
     f12:	1c33      	adds	r3, r6, #0
     f14:	3308      	adds	r3, #8
     f16:	4659      	mov	r1, fp
     f18:	0749      	lsls	r1, r1, #29
     f1a:	d53a      	bpl.n	f92 <_vfiprintf_r+0x59a>
     f1c:	9a09      	ldr	r2, [sp, #36]	; 0x24
     f1e:	9805      	ldr	r0, [sp, #20]
     f20:	1a14      	subs	r4, r2, r0
     f22:	2c00      	cmp	r4, #0
     f24:	dd35      	ble.n	f92 <_vfiprintf_r+0x59a>
     f26:	4f66      	ldr	r7, [pc, #408]	; (10c0 <_vfiprintf_r+0x6c8>)
     f28:	2c10      	cmp	r4, #16
     f2a:	dd21      	ble.n	f70 <_vfiprintf_r+0x578>
     f2c:	46a8      	mov	r8, r5
     f2e:	2610      	movs	r6, #16
     f30:	1c25      	adds	r5, r4, #0
     f32:	4654      	mov	r4, sl
     f34:	e003      	b.n	f3e <_vfiprintf_r+0x546>
     f36:	3d10      	subs	r5, #16
     f38:	3308      	adds	r3, #8
     f3a:	2d10      	cmp	r5, #16
     f3c:	dd15      	ble.n	f6a <_vfiprintf_r+0x572>
     f3e:	9a15      	ldr	r2, [sp, #84]	; 0x54
     f40:	601f      	str	r7, [r3, #0]
     f42:	3210      	adds	r2, #16
     f44:	9215      	str	r2, [sp, #84]	; 0x54
     f46:	9a14      	ldr	r2, [sp, #80]	; 0x50
     f48:	605e      	str	r6, [r3, #4]
     f4a:	3201      	adds	r2, #1
     f4c:	9214      	str	r2, [sp, #80]	; 0x50
     f4e:	2a07      	cmp	r2, #7
     f50:	ddf1      	ble.n	f36 <_vfiprintf_r+0x53e>
     f52:	9806      	ldr	r0, [sp, #24]
     f54:	1c21      	adds	r1, r4, #0
     f56:	aa13      	add	r2, sp, #76	; 0x4c
     f58:	f7ff fd0e 	bl	978 <__sprint_r>
     f5c:	2800      	cmp	r0, #0
     f5e:	d000      	beq.n	f62 <_vfiprintf_r+0x56a>
     f60:	e1dd      	b.n	131e <_vfiprintf_r+0x926>
     f62:	3d10      	subs	r5, #16
     f64:	ab3a      	add	r3, sp, #232	; 0xe8
     f66:	2d10      	cmp	r5, #16
     f68:	dce9      	bgt.n	f3e <_vfiprintf_r+0x546>
     f6a:	46a2      	mov	sl, r4
     f6c:	1c2c      	adds	r4, r5, #0
     f6e:	4645      	mov	r5, r8
     f70:	605c      	str	r4, [r3, #4]
     f72:	9915      	ldr	r1, [sp, #84]	; 0x54
     f74:	601f      	str	r7, [r3, #0]
     f76:	9b14      	ldr	r3, [sp, #80]	; 0x50
     f78:	1864      	adds	r4, r4, r1
     f7a:	3301      	adds	r3, #1
     f7c:	9415      	str	r4, [sp, #84]	; 0x54
     f7e:	9314      	str	r3, [sp, #80]	; 0x50
     f80:	2b07      	cmp	r3, #7
     f82:	dd07      	ble.n	f94 <_vfiprintf_r+0x59c>
     f84:	9806      	ldr	r0, [sp, #24]
     f86:	4651      	mov	r1, sl
     f88:	aa13      	add	r2, sp, #76	; 0x4c
     f8a:	f7ff fcf5 	bl	978 <__sprint_r>
     f8e:	2800      	cmp	r0, #0
     f90:	d173      	bne.n	107a <_vfiprintf_r+0x682>
     f92:	9c15      	ldr	r4, [sp, #84]	; 0x54
     f94:	9b05      	ldr	r3, [sp, #20]
     f96:	9a09      	ldr	r2, [sp, #36]	; 0x24
     f98:	4293      	cmp	r3, r2
     f9a:	da00      	bge.n	f9e <_vfiprintf_r+0x5a6>
     f9c:	1c13      	adds	r3, r2, #0
     f9e:	9808      	ldr	r0, [sp, #32]
     fa0:	18c0      	adds	r0, r0, r3
     fa2:	9008      	str	r0, [sp, #32]
     fa4:	2c00      	cmp	r4, #0
     fa6:	d000      	beq.n	faa <_vfiprintf_r+0x5b2>
     fa8:	e0c5      	b.n	1136 <_vfiprintf_r+0x73e>
     faa:	2300      	movs	r3, #0
     fac:	9314      	str	r3, [sp, #80]	; 0x50
     fae:	ae3a      	add	r6, sp, #232	; 0xe8
     fb0:	e560      	b.n	a74 <_vfiprintf_r+0x7c>
     fb2:	2147      	movs	r1, #71	; 0x47
     fb4:	4469      	add	r1, sp
     fb6:	4c43      	ldr	r4, [pc, #268]	; (10c4 <_vfiprintf_r+0x6cc>)
     fb8:	7008      	strb	r0, [r1, #0]
     fba:	4658      	mov	r0, fp
     fbc:	940e      	str	r4, [sp, #56]	; 0x38
     fbe:	06c0      	lsls	r0, r0, #27
     fc0:	d500      	bpl.n	fc4 <_vfiprintf_r+0x5cc>
     fc2:	e63b      	b.n	c3c <_vfiprintf_r+0x244>
     fc4:	4658      	mov	r0, fp
     fc6:	9c0a      	ldr	r4, [sp, #40]	; 0x28
     fc8:	0640      	lsls	r0, r0, #25
     fca:	d400      	bmi.n	fce <_vfiprintf_r+0x5d6>
     fcc:	e199      	b.n	1302 <_vfiprintf_r+0x90a>
     fce:	8827      	ldrh	r7, [r4, #0]
     fd0:	4658      	mov	r0, fp
     fd2:	3404      	adds	r4, #4
     fd4:	940a      	str	r4, [sp, #40]	; 0x28
     fd6:	07c0      	lsls	r0, r0, #31
     fd8:	d400      	bmi.n	fdc <_vfiprintf_r+0x5e4>
     fda:	e637      	b.n	c4c <_vfiprintf_r+0x254>
     fdc:	2f00      	cmp	r7, #0
     fde:	d100      	bne.n	fe2 <_vfiprintf_r+0x5ea>
     fe0:	e18b      	b.n	12fa <_vfiprintf_r+0x902>
     fe2:	2230      	movs	r2, #48	; 0x30
     fe4:	a912      	add	r1, sp, #72	; 0x48
     fe6:	700a      	strb	r2, [r1, #0]
     fe8:	2249      	movs	r2, #73	; 0x49
     fea:	446a      	add	r2, sp
     fec:	465c      	mov	r4, fp
     fee:	7013      	strb	r3, [r2, #0]
     ff0:	2302      	movs	r3, #2
     ff2:	431c      	orrs	r4, r3
     ff4:	46a3      	mov	fp, r4
     ff6:	2101      	movs	r1, #1
     ff8:	e59a      	b.n	b30 <_vfiprintf_r+0x138>
     ffa:	2310      	movs	r3, #16
     ffc:	465a      	mov	r2, fp
     ffe:	431a      	orrs	r2, r3
    1000:	2147      	movs	r1, #71	; 0x47
    1002:	4693      	mov	fp, r2
    1004:	4469      	add	r1, sp
    1006:	465b      	mov	r3, fp
    1008:	7008      	strb	r0, [r1, #0]
    100a:	06db      	lsls	r3, r3, #27
    100c:	d500      	bpl.n	1010 <_vfiprintf_r+0x618>
    100e:	e6a8      	b.n	d62 <_vfiprintf_r+0x36a>
    1010:	4658      	mov	r0, fp
    1012:	9c0a      	ldr	r4, [sp, #40]	; 0x28
    1014:	0640      	lsls	r0, r0, #25
    1016:	d400      	bmi.n	101a <_vfiprintf_r+0x622>
    1018:	e16b      	b.n	12f2 <_vfiprintf_r+0x8fa>
    101a:	2700      	movs	r7, #0
    101c:	5fe7      	ldrsh	r7, [r4, r7]
    101e:	9c0a      	ldr	r4, [sp, #40]	; 0x28
    1020:	3404      	adds	r4, #4
    1022:	940a      	str	r4, [sp, #40]	; 0x28
    1024:	2f00      	cmp	r7, #0
    1026:	db00      	blt.n	102a <_vfiprintf_r+0x632>
    1028:	e6a2      	b.n	d70 <_vfiprintf_r+0x378>
    102a:	2147      	movs	r1, #71	; 0x47
    102c:	232d      	movs	r3, #45	; 0x2d
    102e:	4469      	add	r1, sp
    1030:	427f      	negs	r7, r7
    1032:	700b      	strb	r3, [r1, #0]
    1034:	1c39      	adds	r1, r7, #0
    1036:	1e4b      	subs	r3, r1, #1
    1038:	4199      	sbcs	r1, r3
    103a:	242d      	movs	r4, #45	; 0x2d
    103c:	2301      	movs	r3, #1
    103e:	e57c      	b.n	b3a <_vfiprintf_r+0x142>
    1040:	2b00      	cmp	r3, #0
    1042:	d000      	beq.n	1046 <_vfiprintf_r+0x64e>
    1044:	e080      	b.n	1148 <_vfiprintf_r+0x750>
    1046:	4659      	mov	r1, fp
    1048:	07c9      	lsls	r1, r1, #31
    104a:	d400      	bmi.n	104e <_vfiprintf_r+0x656>
    104c:	e0f2      	b.n	1234 <_vfiprintf_r+0x83c>
    104e:	227f      	movs	r2, #127	; 0x7f
    1050:	2330      	movs	r3, #48	; 0x30
    1052:	446a      	add	r2, sp
    1054:	7013      	strb	r3, [r2, #0]
    1056:	9b0f      	ldr	r3, [sp, #60]	; 0x3c
    1058:	920d      	str	r2, [sp, #52]	; 0x34
    105a:	9307      	str	r3, [sp, #28]
    105c:	4642      	mov	r2, r8
    105e:	920b      	str	r2, [sp, #44]	; 0x2c
    1060:	9807      	ldr	r0, [sp, #28]
    1062:	990b      	ldr	r1, [sp, #44]	; 0x2c
    1064:	9005      	str	r0, [sp, #20]
    1066:	4288      	cmp	r0, r1
    1068:	da00      	bge.n	106c <_vfiprintf_r+0x674>
    106a:	9105      	str	r1, [sp, #20]
    106c:	9a05      	ldr	r2, [sp, #20]
    106e:	1e63      	subs	r3, r4, #1
    1070:	419c      	sbcs	r4, r3
    1072:	1912      	adds	r2, r2, r4
    1074:	9205      	str	r2, [sp, #20]
    1076:	e694      	b.n	da2 <_vfiprintf_r+0x3aa>
    1078:	46b2      	mov	sl, r6
    107a:	4652      	mov	r2, sl
    107c:	8993      	ldrh	r3, [r2, #12]
    107e:	065c      	lsls	r4, r3, #25
    1080:	d502      	bpl.n	1088 <_vfiprintf_r+0x690>
    1082:	2301      	movs	r3, #1
    1084:	425b      	negs	r3, r3
    1086:	9308      	str	r3, [sp, #32]
    1088:	9808      	ldr	r0, [sp, #32]
    108a:	4b0f      	ldr	r3, [pc, #60]	; (10c8 <_vfiprintf_r+0x6d0>)
    108c:	449d      	add	sp, r3
    108e:	bc3c      	pop	{r2, r3, r4, r5}
    1090:	4690      	mov	r8, r2
    1092:	4699      	mov	r9, r3
    1094:	46a2      	mov	sl, r4
    1096:	46ab      	mov	fp, r5
    1098:	bdf0      	pop	{r4, r5, r6, r7, pc}
    109a:	9909      	ldr	r1, [sp, #36]	; 0x24
    109c:	9a05      	ldr	r2, [sp, #20]
    109e:	1a8c      	subs	r4, r1, r2
    10a0:	2c00      	cmp	r4, #0
    10a2:	dc00      	bgt.n	10a6 <_vfiprintf_r+0x6ae>
    10a4:	e6ea      	b.n	e7c <_vfiprintf_r+0x484>
    10a6:	4f06      	ldr	r7, [pc, #24]	; (10c0 <_vfiprintf_r+0x6c8>)
    10a8:	2c10      	cmp	r4, #16
    10aa:	dd2d      	ble.n	1108 <_vfiprintf_r+0x710>
    10ac:	2310      	movs	r3, #16
    10ae:	19db      	adds	r3, r3, r7
    10b0:	2010      	movs	r0, #16
    10b2:	4699      	mov	r9, r3
    10b4:	4680      	mov	r8, r0
    10b6:	1c33      	adds	r3, r6, #0
    10b8:	4656      	mov	r6, sl
    10ba:	46aa      	mov	sl, r5
    10bc:	9d06      	ldr	r5, [sp, #24]
    10be:	e009      	b.n	10d4 <_vfiprintf_r+0x6dc>
    10c0:	00003058 	.word	0x00003058
    10c4:	00003078 	.word	0x00003078
    10c8:	000004ec 	.word	0x000004ec
    10cc:	3c10      	subs	r4, #16
    10ce:	3308      	adds	r3, #8
    10d0:	2c10      	cmp	r4, #16
    10d2:	dd16      	ble.n	1102 <_vfiprintf_r+0x70a>
    10d4:	4642      	mov	r2, r8
    10d6:	605a      	str	r2, [r3, #4]
    10d8:	9a15      	ldr	r2, [sp, #84]	; 0x54
    10da:	4649      	mov	r1, r9
    10dc:	3210      	adds	r2, #16
    10de:	9215      	str	r2, [sp, #84]	; 0x54
    10e0:	9a14      	ldr	r2, [sp, #80]	; 0x50
    10e2:	6019      	str	r1, [r3, #0]
    10e4:	3201      	adds	r2, #1
    10e6:	9214      	str	r2, [sp, #80]	; 0x50
    10e8:	2a07      	cmp	r2, #7
    10ea:	ddef      	ble.n	10cc <_vfiprintf_r+0x6d4>
    10ec:	1c28      	adds	r0, r5, #0
    10ee:	1c31      	adds	r1, r6, #0
    10f0:	aa13      	add	r2, sp, #76	; 0x4c
    10f2:	f7ff fc41 	bl	978 <__sprint_r>
    10f6:	2800      	cmp	r0, #0
    10f8:	d1be      	bne.n	1078 <_vfiprintf_r+0x680>
    10fa:	3c10      	subs	r4, #16
    10fc:	ab3a      	add	r3, sp, #232	; 0xe8
    10fe:	2c10      	cmp	r4, #16
    1100:	dce8      	bgt.n	10d4 <_vfiprintf_r+0x6dc>
    1102:	4655      	mov	r5, sl
    1104:	46b2      	mov	sl, r6
    1106:	1c1e      	adds	r6, r3, #0
    1108:	9b15      	ldr	r3, [sp, #84]	; 0x54
    110a:	6074      	str	r4, [r6, #4]
    110c:	191c      	adds	r4, r3, r4
    110e:	9b14      	ldr	r3, [sp, #80]	; 0x50
    1110:	3710      	adds	r7, #16
    1112:	3301      	adds	r3, #1
    1114:	6037      	str	r7, [r6, #0]
    1116:	9415      	str	r4, [sp, #84]	; 0x54
    1118:	9314      	str	r3, [sp, #80]	; 0x50
    111a:	2b07      	cmp	r3, #7
    111c:	dd00      	ble.n	1120 <_vfiprintf_r+0x728>
    111e:	e100      	b.n	1322 <_vfiprintf_r+0x92a>
    1120:	3608      	adds	r6, #8
    1122:	e6ab      	b.n	e7c <_vfiprintf_r+0x484>
    1124:	9806      	ldr	r0, [sp, #24]
    1126:	4651      	mov	r1, sl
    1128:	aa13      	add	r2, sp, #76	; 0x4c
    112a:	f7ff fc25 	bl	978 <__sprint_r>
    112e:	2800      	cmp	r0, #0
    1130:	d1a3      	bne.n	107a <_vfiprintf_r+0x682>
    1132:	ab3a      	add	r3, sp, #232	; 0xe8
    1134:	e6ef      	b.n	f16 <_vfiprintf_r+0x51e>
    1136:	9806      	ldr	r0, [sp, #24]
    1138:	4651      	mov	r1, sl
    113a:	aa13      	add	r2, sp, #76	; 0x4c
    113c:	f7ff fc1c 	bl	978 <__sprint_r>
    1140:	2800      	cmp	r0, #0
    1142:	d100      	bne.n	1146 <_vfiprintf_r+0x74e>
    1144:	e731      	b.n	faa <_vfiprintf_r+0x5b2>
    1146:	e798      	b.n	107a <_vfiprintf_r+0x682>
    1148:	2100      	movs	r1, #0
    114a:	aa20      	add	r2, sp, #128	; 0x80
    114c:	9107      	str	r1, [sp, #28]
    114e:	920d      	str	r2, [sp, #52]	; 0x34
    1150:	e784      	b.n	105c <_vfiprintf_r+0x664>
    1152:	9806      	ldr	r0, [sp, #24]
    1154:	4651      	mov	r1, sl
    1156:	f000 f93b 	bl	13d0 <__swsetup_r>
    115a:	2800      	cmp	r0, #0
    115c:	d000      	beq.n	1160 <_vfiprintf_r+0x768>
    115e:	e790      	b.n	1082 <_vfiprintf_r+0x68a>
    1160:	4654      	mov	r4, sl
    1162:	89a3      	ldrh	r3, [r4, #12]
    1164:	221a      	movs	r2, #26
    1166:	1c19      	adds	r1, r3, #0
    1168:	4013      	ands	r3, r2
    116a:	2b0a      	cmp	r3, #10
    116c:	d000      	beq.n	1170 <_vfiprintf_r+0x778>
    116e:	e470      	b.n	a52 <_vfiprintf_r+0x5a>
    1170:	4650      	mov	r0, sl
    1172:	89c3      	ldrh	r3, [r0, #14]
    1174:	b21a      	sxth	r2, r3
    1176:	2a00      	cmp	r2, #0
    1178:	da00      	bge.n	117c <_vfiprintf_r+0x784>
    117a:	e46a      	b.n	a52 <_vfiprintf_r+0x5a>
    117c:	ac20      	add	r4, sp, #128	; 0x80
    117e:	81e3      	strh	r3, [r4, #14]
    1180:	6a43      	ldr	r3, [r0, #36]	; 0x24
    1182:	2202      	movs	r2, #2
    1184:	4391      	bics	r1, r2
    1186:	6263      	str	r3, [r4, #36]	; 0x24
    1188:	2380      	movs	r3, #128	; 0x80
    118a:	69c2      	ldr	r2, [r0, #28]
    118c:	00db      	lsls	r3, r3, #3
    118e:	81a1      	strh	r1, [r4, #12]
    1190:	6e41      	ldr	r1, [r0, #100]	; 0x64
    1192:	60a3      	str	r3, [r4, #8]
    1194:	a83a      	add	r0, sp, #232	; 0xe8
    1196:	6163      	str	r3, [r4, #20]
    1198:	2300      	movs	r3, #0
    119a:	6661      	str	r1, [r4, #100]	; 0x64
    119c:	61e2      	str	r2, [r4, #28]
    119e:	9020      	str	r0, [sp, #128]	; 0x80
    11a0:	6120      	str	r0, [r4, #16]
    11a2:	61a3      	str	r3, [r4, #24]
    11a4:	9806      	ldr	r0, [sp, #24]
    11a6:	1c21      	adds	r1, r4, #0
    11a8:	1c2a      	adds	r2, r5, #0
    11aa:	9b0a      	ldr	r3, [sp, #40]	; 0x28
    11ac:	f7ff fc24 	bl	9f8 <_vfiprintf_r>
    11b0:	9008      	str	r0, [sp, #32]
    11b2:	2800      	cmp	r0, #0
    11b4:	db06      	blt.n	11c4 <_vfiprintf_r+0x7cc>
    11b6:	9806      	ldr	r0, [sp, #24]
    11b8:	1c21      	adds	r1, r4, #0
    11ba:	f000 fa17 	bl	15ec <_fflush_r>
    11be:	2800      	cmp	r0, #0
    11c0:	d000      	beq.n	11c4 <_vfiprintf_r+0x7cc>
    11c2:	e0e2      	b.n	138a <_vfiprintf_r+0x992>
    11c4:	89a3      	ldrh	r3, [r4, #12]
    11c6:	0659      	lsls	r1, r3, #25
    11c8:	d400      	bmi.n	11cc <_vfiprintf_r+0x7d4>
    11ca:	e75d      	b.n	1088 <_vfiprintf_r+0x690>
    11cc:	4653      	mov	r3, sl
    11ce:	899a      	ldrh	r2, [r3, #12]
    11d0:	2340      	movs	r3, #64	; 0x40
    11d2:	4313      	orrs	r3, r2
    11d4:	4654      	mov	r4, sl
    11d6:	81a3      	strh	r3, [r4, #12]
    11d8:	e756      	b.n	1088 <_vfiprintf_r+0x690>
    11da:	9806      	ldr	r0, [sp, #24]
    11dc:	4651      	mov	r1, sl
    11de:	aa13      	add	r2, sp, #76	; 0x4c
    11e0:	f7ff fbca 	bl	978 <__sprint_r>
    11e4:	2800      	cmp	r0, #0
    11e6:	d000      	beq.n	11ea <_vfiprintf_r+0x7f2>
    11e8:	e747      	b.n	107a <_vfiprintf_r+0x682>
    11ea:	ae3a      	add	r6, sp, #232	; 0xe8
    11ec:	e45d      	b.n	aaa <_vfiprintf_r+0xb2>
    11ee:	9806      	ldr	r0, [sp, #24]
    11f0:	4651      	mov	r1, sl
    11f2:	aa13      	add	r2, sp, #76	; 0x4c
    11f4:	f7ff fbc0 	bl	978 <__sprint_r>
    11f8:	2800      	cmp	r0, #0
    11fa:	d000      	beq.n	11fe <_vfiprintf_r+0x806>
    11fc:	e73d      	b.n	107a <_vfiprintf_r+0x682>
    11fe:	ae3a      	add	r6, sp, #232	; 0xe8
    1200:	e67a      	b.n	ef8 <_vfiprintf_r+0x500>
    1202:	9806      	ldr	r0, [sp, #24]
    1204:	4651      	mov	r1, sl
    1206:	aa13      	add	r2, sp, #76	; 0x4c
    1208:	f7ff fbb6 	bl	978 <__sprint_r>
    120c:	2800      	cmp	r0, #0
    120e:	d000      	beq.n	1212 <_vfiprintf_r+0x81a>
    1210:	e733      	b.n	107a <_vfiprintf_r+0x682>
    1212:	ae3a      	add	r6, sp, #232	; 0xe8
    1214:	e62e      	b.n	e74 <_vfiprintf_r+0x47c>
    1216:	9806      	ldr	r0, [sp, #24]
    1218:	4651      	mov	r1, sl
    121a:	aa13      	add	r2, sp, #76	; 0x4c
    121c:	f7ff fbac 	bl	978 <__sprint_r>
    1220:	2800      	cmp	r0, #0
    1222:	d000      	beq.n	1226 <_vfiprintf_r+0x82e>
    1224:	e729      	b.n	107a <_vfiprintf_r+0x682>
    1226:	ae3a      	add	r6, sp, #232	; 0xe8
    1228:	e613      	b.n	e52 <_vfiprintf_r+0x45a>
    122a:	9806      	ldr	r0, [sp, #24]
    122c:	f000 fa56 	bl	16dc <__sinit>
    1230:	f7ff fbf5 	bl	a1e <_vfiprintf_r+0x26>
    1234:	2300      	movs	r3, #0
    1236:	a820      	add	r0, sp, #128	; 0x80
    1238:	9307      	str	r3, [sp, #28]
    123a:	900d      	str	r0, [sp, #52]	; 0x34
    123c:	e70e      	b.n	105c <_vfiprintf_r+0x664>
    123e:	2f09      	cmp	r7, #9
    1240:	d942      	bls.n	12c8 <_vfiprintf_r+0x8d0>
    1242:	466b      	mov	r3, sp
    1244:	337f      	adds	r3, #127	; 0x7f
    1246:	46a1      	mov	r9, r4
    1248:	1c38      	adds	r0, r7, #0
    124a:	210a      	movs	r1, #10
    124c:	1c1c      	adds	r4, r3, #0
    124e:	f7ff fb19 	bl	884 <__aeabi_uidivmod>
    1252:	3130      	adds	r1, #48	; 0x30
    1254:	7021      	strb	r1, [r4, #0]
    1256:	1c38      	adds	r0, r7, #0
    1258:	210a      	movs	r1, #10
    125a:	f7ff facf 	bl	7fc <__aeabi_uidiv>
    125e:	1e63      	subs	r3, r4, #1
    1260:	1c07      	adds	r7, r0, #0
    1262:	2800      	cmp	r0, #0
    1264:	d1f0      	bne.n	1248 <_vfiprintf_r+0x850>
    1266:	940d      	str	r4, [sp, #52]	; 0x34
    1268:	9a03      	ldr	r2, [sp, #12]
    126a:	9b0d      	ldr	r3, [sp, #52]	; 0x34
    126c:	464c      	mov	r4, r9
    126e:	1ad2      	subs	r2, r2, r3
    1270:	9207      	str	r2, [sp, #28]
    1272:	e6f3      	b.n	105c <_vfiprintf_r+0x664>
    1274:	466b      	mov	r3, sp
    1276:	980e      	ldr	r0, [sp, #56]	; 0x38
    1278:	337f      	adds	r3, #127	; 0x7f
    127a:	220f      	movs	r2, #15
    127c:	1c19      	adds	r1, r3, #0
    127e:	1c13      	adds	r3, r2, #0
    1280:	403b      	ands	r3, r7
    1282:	5cc3      	ldrb	r3, [r0, r3]
    1284:	093f      	lsrs	r7, r7, #4
    1286:	700b      	strb	r3, [r1, #0]
    1288:	1e4b      	subs	r3, r1, #1
    128a:	2f00      	cmp	r7, #0
    128c:	d1f6      	bne.n	127c <_vfiprintf_r+0x884>
    128e:	9803      	ldr	r0, [sp, #12]
    1290:	910d      	str	r1, [sp, #52]	; 0x34
    1292:	1a40      	subs	r0, r0, r1
    1294:	9007      	str	r0, [sp, #28]
    1296:	e6e1      	b.n	105c <_vfiprintf_r+0x664>
    1298:	4658      	mov	r0, fp
    129a:	9c0a      	ldr	r4, [sp, #40]	; 0x28
    129c:	0640      	lsls	r0, r0, #25
    129e:	d400      	bmi.n	12a2 <_vfiprintf_r+0x8aa>
    12a0:	e43f      	b.n	b22 <_vfiprintf_r+0x12a>
    12a2:	8827      	ldrh	r7, [r4, #0]
    12a4:	e43e      	b.n	b24 <_vfiprintf_r+0x12c>
    12a6:	4658      	mov	r0, fp
    12a8:	9c0a      	ldr	r4, [sp, #40]	; 0x28
    12aa:	0640      	lsls	r0, r0, #25
    12ac:	d400      	bmi.n	12b0 <_vfiprintf_r+0x8b8>
    12ae:	e47f      	b.n	bb0 <_vfiprintf_r+0x1b8>
    12b0:	8827      	ldrh	r7, [r4, #0]
    12b2:	e47e      	b.n	bb2 <_vfiprintf_r+0x1ba>
    12b4:	9806      	ldr	r0, [sp, #24]
    12b6:	4651      	mov	r1, sl
    12b8:	aa13      	add	r2, sp, #76	; 0x4c
    12ba:	f7ff fb5d 	bl	978 <__sprint_r>
    12be:	2800      	cmp	r0, #0
    12c0:	d000      	beq.n	12c4 <_vfiprintf_r+0x8cc>
    12c2:	e6da      	b.n	107a <_vfiprintf_r+0x682>
    12c4:	ae3a      	add	r6, sp, #232	; 0xe8
    12c6:	e5b2      	b.n	e2e <_vfiprintf_r+0x436>
    12c8:	237f      	movs	r3, #127	; 0x7f
    12ca:	980f      	ldr	r0, [sp, #60]	; 0x3c
    12cc:	446b      	add	r3, sp
    12ce:	3730      	adds	r7, #48	; 0x30
    12d0:	701f      	strb	r7, [r3, #0]
    12d2:	9007      	str	r0, [sp, #28]
    12d4:	930d      	str	r3, [sp, #52]	; 0x34
    12d6:	e6c1      	b.n	105c <_vfiprintf_r+0x664>
    12d8:	9a03      	ldr	r2, [sp, #12]
    12da:	1a51      	subs	r1, r2, r1
    12dc:	9107      	str	r1, [sp, #28]
    12de:	e6bd      	b.n	105c <_vfiprintf_r+0x664>
    12e0:	9c0a      	ldr	r4, [sp, #40]	; 0x28
    12e2:	6823      	ldr	r3, [r4, #0]
    12e4:	9c08      	ldr	r4, [sp, #32]
    12e6:	601c      	str	r4, [r3, #0]
    12e8:	9c0a      	ldr	r4, [sp, #40]	; 0x28
    12ea:	3404      	adds	r4, #4
    12ec:	940a      	str	r4, [sp, #40]	; 0x28
    12ee:	f7ff fbc1 	bl	a74 <_vfiprintf_r+0x7c>
    12f2:	6827      	ldr	r7, [r4, #0]
    12f4:	3404      	adds	r4, #4
    12f6:	940a      	str	r4, [sp, #40]	; 0x28
    12f8:	e537      	b.n	d6a <_vfiprintf_r+0x372>
    12fa:	2100      	movs	r1, #0
    12fc:	2302      	movs	r3, #2
    12fe:	f7ff fc17 	bl	b30 <_vfiprintf_r+0x138>
    1302:	6827      	ldr	r7, [r4, #0]
    1304:	3404      	adds	r4, #4
    1306:	940a      	str	r4, [sp, #40]	; 0x28
    1308:	e49c      	b.n	c44 <_vfiprintf_r+0x24c>
    130a:	9915      	ldr	r1, [sp, #84]	; 0x54
    130c:	2900      	cmp	r1, #0
    130e:	d100      	bne.n	1312 <_vfiprintf_r+0x91a>
    1310:	e6b3      	b.n	107a <_vfiprintf_r+0x682>
    1312:	9806      	ldr	r0, [sp, #24]
    1314:	4651      	mov	r1, sl
    1316:	aa13      	add	r2, sp, #76	; 0x4c
    1318:	f7ff fb2e 	bl	978 <__sprint_r>
    131c:	e6ad      	b.n	107a <_vfiprintf_r+0x682>
    131e:	46a2      	mov	sl, r4
    1320:	e6ab      	b.n	107a <_vfiprintf_r+0x682>
    1322:	9806      	ldr	r0, [sp, #24]
    1324:	4651      	mov	r1, sl
    1326:	aa13      	add	r2, sp, #76	; 0x4c
    1328:	f7ff fb26 	bl	978 <__sprint_r>
    132c:	2800      	cmp	r0, #0
    132e:	d000      	beq.n	1332 <_vfiprintf_r+0x93a>
    1330:	e6a3      	b.n	107a <_vfiprintf_r+0x682>
    1332:	ae3a      	add	r6, sp, #232	; 0xe8
    1334:	e5a2      	b.n	e7c <_vfiprintf_r+0x484>
    1336:	2047      	movs	r0, #71	; 0x47
    1338:	4468      	add	r0, sp
    133a:	4642      	mov	r2, r8
    133c:	2300      	movs	r3, #0
    133e:	7804      	ldrb	r4, [r0, #0]
    1340:	970a      	str	r7, [sp, #40]	; 0x28
    1342:	9207      	str	r2, [sp, #28]
    1344:	930b      	str	r3, [sp, #44]	; 0x2c
    1346:	e68b      	b.n	1060 <_vfiprintf_r+0x668>
    1348:	980d      	ldr	r0, [sp, #52]	; 0x34
    134a:	f001 fc33 	bl	2bb4 <strlen>
    134e:	2247      	movs	r2, #71	; 0x47
    1350:	446a      	add	r2, sp
    1352:	2300      	movs	r3, #0
    1354:	9007      	str	r0, [sp, #28]
    1356:	7814      	ldrb	r4, [r2, #0]
    1358:	970a      	str	r7, [sp, #40]	; 0x28
    135a:	930b      	str	r3, [sp, #44]	; 0x2c
    135c:	e680      	b.n	1060 <_vfiprintf_r+0x668>
    135e:	4644      	mov	r4, r8
    1360:	9407      	str	r4, [sp, #28]
    1362:	2c06      	cmp	r4, #6
    1364:	d90b      	bls.n	137e <_vfiprintf_r+0x986>
    1366:	2406      	movs	r4, #6
    1368:	9407      	str	r4, [sp, #28]
    136a:	9405      	str	r4, [sp, #20]
    136c:	4c10      	ldr	r4, [pc, #64]	; (13b0 <_vfiprintf_r+0x9b8>)
    136e:	970a      	str	r7, [sp, #40]	; 0x28
    1370:	940d      	str	r4, [sp, #52]	; 0x34
    1372:	e514      	b.n	d9e <_vfiprintf_r+0x3a6>
    1374:	9b03      	ldr	r3, [sp, #12]
    1376:	980d      	ldr	r0, [sp, #52]	; 0x34
    1378:	1a1b      	subs	r3, r3, r0
    137a:	9307      	str	r3, [sp, #28]
    137c:	e66e      	b.n	105c <_vfiprintf_r+0x664>
    137e:	9c07      	ldr	r4, [sp, #28]
    1380:	43e3      	mvns	r3, r4
    1382:	17db      	asrs	r3, r3, #31
    1384:	401c      	ands	r4, r3
    1386:	9405      	str	r4, [sp, #20]
    1388:	e7f0      	b.n	136c <_vfiprintf_r+0x974>
    138a:	2301      	movs	r3, #1
    138c:	425b      	negs	r3, r3
    138e:	9308      	str	r3, [sp, #32]
    1390:	e718      	b.n	11c4 <_vfiprintf_r+0x7cc>
    1392:	9c0a      	ldr	r4, [sp, #40]	; 0x28
    1394:	9b0a      	ldr	r3, [sp, #40]	; 0x28
    1396:	6822      	ldr	r2, [r4, #0]
    1398:	3304      	adds	r3, #4
    139a:	4690      	mov	r8, r2
    139c:	930a      	str	r3, [sp, #40]	; 0x28
    139e:	2a00      	cmp	r2, #0
    13a0:	db01      	blt.n	13a6 <_vfiprintf_r+0x9ae>
    13a2:	f7ff fb9c 	bl	ade <_vfiprintf_r+0xe6>
    13a6:	2401      	movs	r4, #1
    13a8:	4264      	negs	r4, r4
    13aa:	46a0      	mov	r8, r4
    13ac:	f7ff fb97 	bl	ade <_vfiprintf_r+0xe6>
    13b0:	000030a0 	.word	0x000030a0

000013b4 <vfiprintf>:
    13b4:	b538      	push	{r3, r4, r5, lr}
    13b6:	1c13      	adds	r3, r2, #0
    13b8:	4a04      	ldr	r2, [pc, #16]	; (13cc <vfiprintf+0x18>)
    13ba:	1c05      	adds	r5, r0, #0
    13bc:	1c0c      	adds	r4, r1, #0
    13be:	6810      	ldr	r0, [r2, #0]
    13c0:	1c29      	adds	r1, r5, #0
    13c2:	1c22      	adds	r2, r4, #0
    13c4:	f7ff fb18 	bl	9f8 <_vfiprintf_r>
    13c8:	bd38      	pop	{r3, r4, r5, pc}
    13ca:	46c0      	nop			; (mov r8, r8)
    13cc:	100000c8 	.word	0x100000c8

000013d0 <__swsetup_r>:
    13d0:	b538      	push	{r3, r4, r5, lr}
    13d2:	4b31      	ldr	r3, [pc, #196]	; (1498 <__swsetup_r+0xc8>)
    13d4:	1c05      	adds	r5, r0, #0
    13d6:	6818      	ldr	r0, [r3, #0]
    13d8:	1c0c      	adds	r4, r1, #0
    13da:	2800      	cmp	r0, #0
    13dc:	d002      	beq.n	13e4 <__swsetup_r+0x14>
    13de:	6b81      	ldr	r1, [r0, #56]	; 0x38
    13e0:	2900      	cmp	r1, #0
    13e2:	d03a      	beq.n	145a <__swsetup_r+0x8a>
    13e4:	89a3      	ldrh	r3, [r4, #12]
    13e6:	1c1a      	adds	r2, r3, #0
    13e8:	0718      	lsls	r0, r3, #28
    13ea:	d50d      	bpl.n	1408 <__swsetup_r+0x38>
    13ec:	6922      	ldr	r2, [r4, #16]
    13ee:	2a00      	cmp	r2, #0
    13f0:	d014      	beq.n	141c <__swsetup_r+0x4c>
    13f2:	07d9      	lsls	r1, r3, #31
    13f4:	d520      	bpl.n	1438 <__swsetup_r+0x68>
    13f6:	6960      	ldr	r0, [r4, #20]
    13f8:	2300      	movs	r3, #0
    13fa:	60a3      	str	r3, [r4, #8]
    13fc:	4243      	negs	r3, r0
    13fe:	61a3      	str	r3, [r4, #24]
    1400:	2000      	movs	r0, #0
    1402:	2a00      	cmp	r2, #0
    1404:	d020      	beq.n	1448 <__swsetup_r+0x78>
    1406:	bd38      	pop	{r3, r4, r5, pc}
    1408:	06d9      	lsls	r1, r3, #27
    140a:	d53d      	bpl.n	1488 <__swsetup_r+0xb8>
    140c:	0750      	lsls	r0, r2, #29
    140e:	d427      	bmi.n	1460 <__swsetup_r+0x90>
    1410:	6922      	ldr	r2, [r4, #16]
    1412:	2108      	movs	r1, #8
    1414:	430b      	orrs	r3, r1
    1416:	81a3      	strh	r3, [r4, #12]
    1418:	2a00      	cmp	r2, #0
    141a:	d1ea      	bne.n	13f2 <__swsetup_r+0x22>
    141c:	20a0      	movs	r0, #160	; 0xa0
    141e:	0080      	lsls	r0, r0, #2
    1420:	2180      	movs	r1, #128	; 0x80
    1422:	4018      	ands	r0, r3
    1424:	0089      	lsls	r1, r1, #2
    1426:	4288      	cmp	r0, r1
    1428:	d0e3      	beq.n	13f2 <__swsetup_r+0x22>
    142a:	1c28      	adds	r0, r5, #0
    142c:	1c21      	adds	r1, r4, #0
    142e:	f000 fd95 	bl	1f5c <__smakebuf_r>
    1432:	89a3      	ldrh	r3, [r4, #12]
    1434:	6922      	ldr	r2, [r4, #16]
    1436:	e7dc      	b.n	13f2 <__swsetup_r+0x22>
    1438:	2100      	movs	r1, #0
    143a:	0798      	lsls	r0, r3, #30
    143c:	d400      	bmi.n	1440 <__swsetup_r+0x70>
    143e:	6961      	ldr	r1, [r4, #20]
    1440:	60a1      	str	r1, [r4, #8]
    1442:	2000      	movs	r0, #0
    1444:	2a00      	cmp	r2, #0
    1446:	d1de      	bne.n	1406 <__swsetup_r+0x36>
    1448:	89a3      	ldrh	r3, [r4, #12]
    144a:	0619      	lsls	r1, r3, #24
    144c:	d5db      	bpl.n	1406 <__swsetup_r+0x36>
    144e:	2240      	movs	r2, #64	; 0x40
    1450:	4313      	orrs	r3, r2
    1452:	2001      	movs	r0, #1
    1454:	81a3      	strh	r3, [r4, #12]
    1456:	4240      	negs	r0, r0
    1458:	e7d5      	b.n	1406 <__swsetup_r+0x36>
    145a:	f000 f93f 	bl	16dc <__sinit>
    145e:	e7c1      	b.n	13e4 <__swsetup_r+0x14>
    1460:	6b21      	ldr	r1, [r4, #48]	; 0x30
    1462:	2900      	cmp	r1, #0
    1464:	d009      	beq.n	147a <__swsetup_r+0xaa>
    1466:	1c22      	adds	r2, r4, #0
    1468:	3240      	adds	r2, #64	; 0x40
    146a:	4291      	cmp	r1, r2
    146c:	d003      	beq.n	1476 <__swsetup_r+0xa6>
    146e:	1c28      	adds	r0, r5, #0
    1470:	f000 fa90 	bl	1994 <_free_r>
    1474:	89a3      	ldrh	r3, [r4, #12]
    1476:	2200      	movs	r2, #0
    1478:	6322      	str	r2, [r4, #48]	; 0x30
    147a:	2224      	movs	r2, #36	; 0x24
    147c:	4393      	bics	r3, r2
    147e:	2200      	movs	r2, #0
    1480:	6062      	str	r2, [r4, #4]
    1482:	6922      	ldr	r2, [r4, #16]
    1484:	6022      	str	r2, [r4, #0]
    1486:	e7c4      	b.n	1412 <__swsetup_r+0x42>
    1488:	2309      	movs	r3, #9
    148a:	602b      	str	r3, [r5, #0]
    148c:	2340      	movs	r3, #64	; 0x40
    148e:	431a      	orrs	r2, r3
    1490:	2001      	movs	r0, #1
    1492:	81a2      	strh	r2, [r4, #12]
    1494:	4240      	negs	r0, r0
    1496:	e7b6      	b.n	1406 <__swsetup_r+0x36>
    1498:	100000c8 	.word	0x100000c8

0000149c <__sflush_r>:
    149c:	b5f0      	push	{r4, r5, r6, r7, lr}
    149e:	4647      	mov	r7, r8
    14a0:	b480      	push	{r7}
    14a2:	898b      	ldrh	r3, [r1, #12]
    14a4:	4680      	mov	r8, r0
    14a6:	1c0d      	adds	r5, r1, #0
    14a8:	0718      	lsls	r0, r3, #28
    14aa:	d43a      	bmi.n	1522 <__sflush_r+0x86>
    14ac:	2180      	movs	r1, #128	; 0x80
    14ae:	0109      	lsls	r1, r1, #4
    14b0:	686a      	ldr	r2, [r5, #4]
    14b2:	4319      	orrs	r1, r3
    14b4:	81a9      	strh	r1, [r5, #12]
    14b6:	2a00      	cmp	r2, #0
    14b8:	dd54      	ble.n	1564 <__sflush_r+0xc8>
    14ba:	6aac      	ldr	r4, [r5, #40]	; 0x28
    14bc:	2c00      	cmp	r4, #0
    14be:	d02c      	beq.n	151a <__sflush_r+0x7e>
    14c0:	4640      	mov	r0, r8
    14c2:	2200      	movs	r2, #0
    14c4:	6806      	ldr	r6, [r0, #0]
    14c6:	6002      	str	r2, [r0, #0]
    14c8:	04da      	lsls	r2, r3, #19
    14ca:	d54f      	bpl.n	156c <__sflush_r+0xd0>
    14cc:	6d2a      	ldr	r2, [r5, #80]	; 0x50
    14ce:	074b      	lsls	r3, r1, #29
    14d0:	d506      	bpl.n	14e0 <__sflush_r+0x44>
    14d2:	686f      	ldr	r7, [r5, #4]
    14d4:	6b28      	ldr	r0, [r5, #48]	; 0x30
    14d6:	1bd2      	subs	r2, r2, r7
    14d8:	2800      	cmp	r0, #0
    14da:	d001      	beq.n	14e0 <__sflush_r+0x44>
    14dc:	6be9      	ldr	r1, [r5, #60]	; 0x3c
    14de:	1a52      	subs	r2, r2, r1
    14e0:	4640      	mov	r0, r8
    14e2:	69e9      	ldr	r1, [r5, #28]
    14e4:	2300      	movs	r3, #0
    14e6:	47a0      	blx	r4
    14e8:	1c42      	adds	r2, r0, #1
    14ea:	d04a      	beq.n	1582 <__sflush_r+0xe6>
    14ec:	89ab      	ldrh	r3, [r5, #12]
    14ee:	4a3e      	ldr	r2, [pc, #248]	; (15e8 <__sflush_r+0x14c>)
    14f0:	6929      	ldr	r1, [r5, #16]
    14f2:	401a      	ands	r2, r3
    14f4:	81aa      	strh	r2, [r5, #12]
    14f6:	2200      	movs	r2, #0
    14f8:	606a      	str	r2, [r5, #4]
    14fa:	6029      	str	r1, [r5, #0]
    14fc:	04da      	lsls	r2, r3, #19
    14fe:	d44d      	bmi.n	159c <__sflush_r+0x100>
    1500:	6b29      	ldr	r1, [r5, #48]	; 0x30
    1502:	4640      	mov	r0, r8
    1504:	6006      	str	r6, [r0, #0]
    1506:	2900      	cmp	r1, #0
    1508:	d007      	beq.n	151a <__sflush_r+0x7e>
    150a:	1c2b      	adds	r3, r5, #0
    150c:	3340      	adds	r3, #64	; 0x40
    150e:	4299      	cmp	r1, r3
    1510:	d001      	beq.n	1516 <__sflush_r+0x7a>
    1512:	f000 fa3f 	bl	1994 <_free_r>
    1516:	2300      	movs	r3, #0
    1518:	632b      	str	r3, [r5, #48]	; 0x30
    151a:	2000      	movs	r0, #0
    151c:	bc04      	pop	{r2}
    151e:	4690      	mov	r8, r2
    1520:	bdf0      	pop	{r4, r5, r6, r7, pc}
    1522:	690e      	ldr	r6, [r1, #16]
    1524:	2e00      	cmp	r6, #0
    1526:	d0f8      	beq.n	151a <__sflush_r+0x7e>
    1528:	6809      	ldr	r1, [r1, #0]
    152a:	2200      	movs	r2, #0
    152c:	1b8c      	subs	r4, r1, r6
    152e:	602e      	str	r6, [r5, #0]
    1530:	079f      	lsls	r7, r3, #30
    1532:	d100      	bne.n	1536 <__sflush_r+0x9a>
    1534:	696a      	ldr	r2, [r5, #20]
    1536:	60aa      	str	r2, [r5, #8]
    1538:	2c00      	cmp	r4, #0
    153a:	dc04      	bgt.n	1546 <__sflush_r+0xaa>
    153c:	e7ed      	b.n	151a <__sflush_r+0x7e>
    153e:	1836      	adds	r6, r6, r0
    1540:	1a24      	subs	r4, r4, r0
    1542:	2c00      	cmp	r4, #0
    1544:	dde9      	ble.n	151a <__sflush_r+0x7e>
    1546:	4640      	mov	r0, r8
    1548:	69e9      	ldr	r1, [r5, #28]
    154a:	1c32      	adds	r2, r6, #0
    154c:	1c23      	adds	r3, r4, #0
    154e:	6a6f      	ldr	r7, [r5, #36]	; 0x24
    1550:	47b8      	blx	r7
    1552:	2800      	cmp	r0, #0
    1554:	dcf3      	bgt.n	153e <__sflush_r+0xa2>
    1556:	89aa      	ldrh	r2, [r5, #12]
    1558:	2340      	movs	r3, #64	; 0x40
    155a:	4313      	orrs	r3, r2
    155c:	2001      	movs	r0, #1
    155e:	81ab      	strh	r3, [r5, #12]
    1560:	4240      	negs	r0, r0
    1562:	e7db      	b.n	151c <__sflush_r+0x80>
    1564:	6bef      	ldr	r7, [r5, #60]	; 0x3c
    1566:	2f00      	cmp	r7, #0
    1568:	dca7      	bgt.n	14ba <__sflush_r+0x1e>
    156a:	e7d6      	b.n	151a <__sflush_r+0x7e>
    156c:	2200      	movs	r2, #0
    156e:	4640      	mov	r0, r8
    1570:	69e9      	ldr	r1, [r5, #28]
    1572:	2301      	movs	r3, #1
    1574:	47a0      	blx	r4
    1576:	1c02      	adds	r2, r0, #0
    1578:	1c43      	adds	r3, r0, #1
    157a:	d01e      	beq.n	15ba <__sflush_r+0x11e>
    157c:	89a9      	ldrh	r1, [r5, #12]
    157e:	6aac      	ldr	r4, [r5, #40]	; 0x28
    1580:	e7a5      	b.n	14ce <__sflush_r+0x32>
    1582:	4647      	mov	r7, r8
    1584:	683b      	ldr	r3, [r7, #0]
    1586:	2b00      	cmp	r3, #0
    1588:	d10a      	bne.n	15a0 <__sflush_r+0x104>
    158a:	89aa      	ldrh	r2, [r5, #12]
    158c:	4916      	ldr	r1, [pc, #88]	; (15e8 <__sflush_r+0x14c>)
    158e:	692f      	ldr	r7, [r5, #16]
    1590:	4011      	ands	r1, r2
    1592:	81a9      	strh	r1, [r5, #12]
    1594:	606b      	str	r3, [r5, #4]
    1596:	602f      	str	r7, [r5, #0]
    1598:	04d1      	lsls	r1, r2, #19
    159a:	d5b1      	bpl.n	1500 <__sflush_r+0x64>
    159c:	6528      	str	r0, [r5, #80]	; 0x50
    159e:	e7af      	b.n	1500 <__sflush_r+0x64>
    15a0:	2b1d      	cmp	r3, #29
    15a2:	d001      	beq.n	15a8 <__sflush_r+0x10c>
    15a4:	2b16      	cmp	r3, #22
    15a6:	d119      	bne.n	15dc <__sflush_r+0x140>
    15a8:	89aa      	ldrh	r2, [r5, #12]
    15aa:	4b0f      	ldr	r3, [pc, #60]	; (15e8 <__sflush_r+0x14c>)
    15ac:	4013      	ands	r3, r2
    15ae:	81ab      	strh	r3, [r5, #12]
    15b0:	2300      	movs	r3, #0
    15b2:	606b      	str	r3, [r5, #4]
    15b4:	692b      	ldr	r3, [r5, #16]
    15b6:	602b      	str	r3, [r5, #0]
    15b8:	e7a2      	b.n	1500 <__sflush_r+0x64>
    15ba:	4647      	mov	r7, r8
    15bc:	683b      	ldr	r3, [r7, #0]
    15be:	2b00      	cmp	r3, #0
    15c0:	d0dc      	beq.n	157c <__sflush_r+0xe0>
    15c2:	2b16      	cmp	r3, #22
    15c4:	d001      	beq.n	15ca <__sflush_r+0x12e>
    15c6:	2b1d      	cmp	r3, #29
    15c8:	d103      	bne.n	15d2 <__sflush_r+0x136>
    15ca:	4640      	mov	r0, r8
    15cc:	6006      	str	r6, [r0, #0]
    15ce:	2000      	movs	r0, #0
    15d0:	e7a4      	b.n	151c <__sflush_r+0x80>
    15d2:	89a9      	ldrh	r1, [r5, #12]
    15d4:	2340      	movs	r3, #64	; 0x40
    15d6:	430b      	orrs	r3, r1
    15d8:	81ab      	strh	r3, [r5, #12]
    15da:	e79f      	b.n	151c <__sflush_r+0x80>
    15dc:	89aa      	ldrh	r2, [r5, #12]
    15de:	2340      	movs	r3, #64	; 0x40
    15e0:	4313      	orrs	r3, r2
    15e2:	81ab      	strh	r3, [r5, #12]
    15e4:	e79a      	b.n	151c <__sflush_r+0x80>
    15e6:	46c0      	nop			; (mov r8, r8)
    15e8:	fffff7ff 	.word	0xfffff7ff

000015ec <_fflush_r>:
    15ec:	b538      	push	{r3, r4, r5, lr}
    15ee:	1c04      	adds	r4, r0, #0
    15f0:	1c0d      	adds	r5, r1, #0
    15f2:	2800      	cmp	r0, #0
    15f4:	d002      	beq.n	15fc <_fflush_r+0x10>
    15f6:	6b82      	ldr	r2, [r0, #56]	; 0x38
    15f8:	2a00      	cmp	r2, #0
    15fa:	d009      	beq.n	1610 <_fflush_r+0x24>
    15fc:	220c      	movs	r2, #12
    15fe:	5eab      	ldrsh	r3, [r5, r2]
    1600:	2000      	movs	r0, #0
    1602:	2b00      	cmp	r3, #0
    1604:	d003      	beq.n	160e <_fflush_r+0x22>
    1606:	1c20      	adds	r0, r4, #0
    1608:	1c29      	adds	r1, r5, #0
    160a:	f7ff ff47 	bl	149c <__sflush_r>
    160e:	bd38      	pop	{r3, r4, r5, pc}
    1610:	f000 f864 	bl	16dc <__sinit>
    1614:	e7f2      	b.n	15fc <_fflush_r+0x10>
    1616:	46c0      	nop			; (mov r8, r8)

00001618 <fflush>:
    1618:	b508      	push	{r3, lr}
    161a:	1e01      	subs	r1, r0, #0
    161c:	d004      	beq.n	1628 <fflush+0x10>
    161e:	4b05      	ldr	r3, [pc, #20]	; (1634 <fflush+0x1c>)
    1620:	6818      	ldr	r0, [r3, #0]
    1622:	f7ff ffe3 	bl	15ec <_fflush_r>
    1626:	bd08      	pop	{r3, pc}
    1628:	4b03      	ldr	r3, [pc, #12]	; (1638 <fflush+0x20>)
    162a:	4904      	ldr	r1, [pc, #16]	; (163c <fflush+0x24>)
    162c:	6818      	ldr	r0, [r3, #0]
    162e:	f000 fc1d 	bl	1e6c <_fwalk_reent>
    1632:	e7f8      	b.n	1626 <fflush+0xe>
    1634:	100000c8 	.word	0x100000c8
    1638:	00002eec 	.word	0x00002eec
    163c:	000015ed 	.word	0x000015ed

00001640 <__fp_lock>:
    1640:	2000      	movs	r0, #0
    1642:	4770      	bx	lr

00001644 <__fp_unlock>:
    1644:	2000      	movs	r0, #0
    1646:	4770      	bx	lr

00001648 <_cleanup_r>:
    1648:	b508      	push	{r3, lr}
    164a:	4902      	ldr	r1, [pc, #8]	; (1654 <_cleanup_r+0xc>)
    164c:	f000 fbe8 	bl	1e20 <_fwalk>
    1650:	bd08      	pop	{r3, pc}
    1652:	46c0      	nop			; (mov r8, r8)
    1654:	00002e2d 	.word	0x00002e2d

00001658 <std.isra.0>:
    1658:	2300      	movs	r3, #0
    165a:	b510      	push	{r4, lr}
    165c:	1c04      	adds	r4, r0, #0
    165e:	6003      	str	r3, [r0, #0]
    1660:	6043      	str	r3, [r0, #4]
    1662:	6083      	str	r3, [r0, #8]
    1664:	8181      	strh	r1, [r0, #12]
    1666:	6643      	str	r3, [r0, #100]	; 0x64
    1668:	81c2      	strh	r2, [r0, #14]
    166a:	6103      	str	r3, [r0, #16]
    166c:	6143      	str	r3, [r0, #20]
    166e:	6183      	str	r3, [r0, #24]
    1670:	2100      	movs	r1, #0
    1672:	2208      	movs	r2, #8
    1674:	305c      	adds	r0, #92	; 0x5c
    1676:	f7ff f937 	bl	8e8 <memset>
    167a:	4b05      	ldr	r3, [pc, #20]	; (1690 <std.isra.0+0x38>)
    167c:	61e4      	str	r4, [r4, #28]
    167e:	6223      	str	r3, [r4, #32]
    1680:	4b04      	ldr	r3, [pc, #16]	; (1694 <std.isra.0+0x3c>)
    1682:	6263      	str	r3, [r4, #36]	; 0x24
    1684:	4b04      	ldr	r3, [pc, #16]	; (1698 <std.isra.0+0x40>)
    1686:	62a3      	str	r3, [r4, #40]	; 0x28
    1688:	4b04      	ldr	r3, [pc, #16]	; (169c <std.isra.0+0x44>)
    168a:	62e3      	str	r3, [r4, #44]	; 0x2c
    168c:	bd10      	pop	{r4, pc}
    168e:	46c0      	nop			; (mov r8, r8)
    1690:	00002b05 	.word	0x00002b05
    1694:	00002b31 	.word	0x00002b31
    1698:	00002b69 	.word	0x00002b69
    169c:	00002b95 	.word	0x00002b95

000016a0 <__sfmoreglue>:
    16a0:	b570      	push	{r4, r5, r6, lr}
    16a2:	2568      	movs	r5, #104	; 0x68
    16a4:	434d      	muls	r5, r1
    16a6:	1c0e      	adds	r6, r1, #0
    16a8:	1c29      	adds	r1, r5, #0
    16aa:	310c      	adds	r1, #12
    16ac:	f000 fcc4 	bl	2038 <_malloc_r>
    16b0:	1e04      	subs	r4, r0, #0
    16b2:	d008      	beq.n	16c6 <__sfmoreglue+0x26>
    16b4:	300c      	adds	r0, #12
    16b6:	2300      	movs	r3, #0
    16b8:	6023      	str	r3, [r4, #0]
    16ba:	6066      	str	r6, [r4, #4]
    16bc:	60a0      	str	r0, [r4, #8]
    16be:	2100      	movs	r1, #0
    16c0:	1c2a      	adds	r2, r5, #0
    16c2:	f7ff f911 	bl	8e8 <memset>
    16c6:	1c20      	adds	r0, r4, #0
    16c8:	bd70      	pop	{r4, r5, r6, pc}
    16ca:	46c0      	nop			; (mov r8, r8)

000016cc <_cleanup>:
    16cc:	b508      	push	{r3, lr}
    16ce:	4b02      	ldr	r3, [pc, #8]	; (16d8 <_cleanup+0xc>)
    16d0:	6818      	ldr	r0, [r3, #0]
    16d2:	f7ff ffb9 	bl	1648 <_cleanup_r>
    16d6:	bd08      	pop	{r3, pc}
    16d8:	00002eec 	.word	0x00002eec

000016dc <__sinit>:
    16dc:	6b83      	ldr	r3, [r0, #56]	; 0x38
    16de:	b510      	push	{r4, lr}
    16e0:	1c04      	adds	r4, r0, #0
    16e2:	2b00      	cmp	r3, #0
    16e4:	d11f      	bne.n	1726 <__sinit+0x4a>
    16e6:	4a10      	ldr	r2, [pc, #64]	; (1728 <__sinit+0x4c>)
    16e8:	2104      	movs	r1, #4
    16ea:	63c2      	str	r2, [r0, #60]	; 0x3c
    16ec:	2201      	movs	r2, #1
    16ee:	6382      	str	r2, [r0, #56]	; 0x38
    16f0:	22b8      	movs	r2, #184	; 0xb8
    16f2:	0092      	lsls	r2, r2, #2
    16f4:	5083      	str	r3, [r0, r2]
    16f6:	23b9      	movs	r3, #185	; 0xb9
    16f8:	2203      	movs	r2, #3
    16fa:	009b      	lsls	r3, r3, #2
    16fc:	50c2      	str	r2, [r0, r3]
    16fe:	23bb      	movs	r3, #187	; 0xbb
    1700:	009b      	lsls	r3, r3, #2
    1702:	18c2      	adds	r2, r0, r3
    1704:	23ba      	movs	r3, #186	; 0xba
    1706:	009b      	lsls	r3, r3, #2
    1708:	50c2      	str	r2, [r0, r3]
    170a:	6840      	ldr	r0, [r0, #4]
    170c:	2200      	movs	r2, #0
    170e:	f7ff ffa3 	bl	1658 <std.isra.0>
    1712:	68a0      	ldr	r0, [r4, #8]
    1714:	2109      	movs	r1, #9
    1716:	2201      	movs	r2, #1
    1718:	f7ff ff9e 	bl	1658 <std.isra.0>
    171c:	68e0      	ldr	r0, [r4, #12]
    171e:	2112      	movs	r1, #18
    1720:	2202      	movs	r2, #2
    1722:	f7ff ff99 	bl	1658 <std.isra.0>
    1726:	bd10      	pop	{r4, pc}
    1728:	00001649 	.word	0x00001649

0000172c <__sfp>:
    172c:	4b21      	ldr	r3, [pc, #132]	; (17b4 <__sfp+0x88>)
    172e:	b570      	push	{r4, r5, r6, lr}
    1730:	681d      	ldr	r5, [r3, #0]
    1732:	1c06      	adds	r6, r0, #0
    1734:	6ba9      	ldr	r1, [r5, #56]	; 0x38
    1736:	2900      	cmp	r1, #0
    1738:	d02c      	beq.n	1794 <__sfp+0x68>
    173a:	23b8      	movs	r3, #184	; 0xb8
    173c:	009b      	lsls	r3, r3, #2
    173e:	18ed      	adds	r5, r5, r3
    1740:	686b      	ldr	r3, [r5, #4]
    1742:	68ac      	ldr	r4, [r5, #8]
    1744:	3b01      	subs	r3, #1
    1746:	d503      	bpl.n	1750 <__sfp+0x24>
    1748:	e01f      	b.n	178a <__sfp+0x5e>
    174a:	3468      	adds	r4, #104	; 0x68
    174c:	3b01      	subs	r3, #1
    174e:	d31c      	bcc.n	178a <__sfp+0x5e>
    1750:	210c      	movs	r1, #12
    1752:	5e62      	ldrsh	r2, [r4, r1]
    1754:	2a00      	cmp	r2, #0
    1756:	d1f8      	bne.n	174a <__sfp+0x1e>
    1758:	2301      	movs	r3, #1
    175a:	425b      	negs	r3, r3
    175c:	2500      	movs	r5, #0
    175e:	81e3      	strh	r3, [r4, #14]
    1760:	1c20      	adds	r0, r4, #0
    1762:	2301      	movs	r3, #1
    1764:	81a3      	strh	r3, [r4, #12]
    1766:	6665      	str	r5, [r4, #100]	; 0x64
    1768:	6025      	str	r5, [r4, #0]
    176a:	60a5      	str	r5, [r4, #8]
    176c:	6065      	str	r5, [r4, #4]
    176e:	6125      	str	r5, [r4, #16]
    1770:	6165      	str	r5, [r4, #20]
    1772:	61a5      	str	r5, [r4, #24]
    1774:	305c      	adds	r0, #92	; 0x5c
    1776:	2100      	movs	r1, #0
    1778:	2208      	movs	r2, #8
    177a:	f7ff f8b5 	bl	8e8 <memset>
    177e:	6325      	str	r5, [r4, #48]	; 0x30
    1780:	6365      	str	r5, [r4, #52]	; 0x34
    1782:	6465      	str	r5, [r4, #68]	; 0x44
    1784:	64a5      	str	r5, [r4, #72]	; 0x48
    1786:	1c20      	adds	r0, r4, #0
    1788:	bd70      	pop	{r4, r5, r6, pc}
    178a:	6828      	ldr	r0, [r5, #0]
    178c:	2800      	cmp	r0, #0
    178e:	d005      	beq.n	179c <__sfp+0x70>
    1790:	1c05      	adds	r5, r0, #0
    1792:	e7d5      	b.n	1740 <__sfp+0x14>
    1794:	1c28      	adds	r0, r5, #0
    1796:	f7ff ffa1 	bl	16dc <__sinit>
    179a:	e7ce      	b.n	173a <__sfp+0xe>
    179c:	1c30      	adds	r0, r6, #0
    179e:	2104      	movs	r1, #4
    17a0:	f7ff ff7e 	bl	16a0 <__sfmoreglue>
    17a4:	6028      	str	r0, [r5, #0]
    17a6:	2800      	cmp	r0, #0
    17a8:	d1f2      	bne.n	1790 <__sfp+0x64>
    17aa:	230c      	movs	r3, #12
    17ac:	6033      	str	r3, [r6, #0]
    17ae:	2400      	movs	r4, #0
    17b0:	e7e9      	b.n	1786 <__sfp+0x5a>
    17b2:	46c0      	nop			; (mov r8, r8)
    17b4:	00002eec 	.word	0x00002eec

000017b8 <__sfp_lock_acquire>:
    17b8:	4770      	bx	lr
    17ba:	46c0      	nop			; (mov r8, r8)

000017bc <__sfp_lock_release>:
    17bc:	4770      	bx	lr
    17be:	46c0      	nop			; (mov r8, r8)

000017c0 <__sinit_lock_acquire>:
    17c0:	4770      	bx	lr
    17c2:	46c0      	nop			; (mov r8, r8)

000017c4 <__sinit_lock_release>:
    17c4:	4770      	bx	lr
    17c6:	46c0      	nop			; (mov r8, r8)

000017c8 <__fp_lock_all>:
    17c8:	b508      	push	{r3, lr}
    17ca:	4b03      	ldr	r3, [pc, #12]	; (17d8 <__fp_lock_all+0x10>)
    17cc:	4903      	ldr	r1, [pc, #12]	; (17dc <__fp_lock_all+0x14>)
    17ce:	6818      	ldr	r0, [r3, #0]
    17d0:	f000 fb26 	bl	1e20 <_fwalk>
    17d4:	bd08      	pop	{r3, pc}
    17d6:	46c0      	nop			; (mov r8, r8)
    17d8:	100000c8 	.word	0x100000c8
    17dc:	00001641 	.word	0x00001641

000017e0 <__fp_unlock_all>:
    17e0:	b508      	push	{r3, lr}
    17e2:	4b03      	ldr	r3, [pc, #12]	; (17f0 <__fp_unlock_all+0x10>)
    17e4:	4903      	ldr	r1, [pc, #12]	; (17f4 <__fp_unlock_all+0x14>)
    17e6:	6818      	ldr	r0, [r3, #0]
    17e8:	f000 fb1a 	bl	1e20 <_fwalk>
    17ec:	bd08      	pop	{r3, pc}
    17ee:	46c0      	nop			; (mov r8, r8)
    17f0:	100000c8 	.word	0x100000c8
    17f4:	00001645 	.word	0x00001645

000017f8 <_fputwc_r>:
    17f8:	b5f0      	push	{r4, r5, r6, r7, lr}
    17fa:	464f      	mov	r7, r9
    17fc:	4646      	mov	r6, r8
    17fe:	b4c0      	push	{r6, r7}
    1800:	1c14      	adds	r4, r2, #0
    1802:	2380      	movs	r3, #128	; 0x80
    1804:	8992      	ldrh	r2, [r2, #12]
    1806:	019b      	lsls	r3, r3, #6
    1808:	b083      	sub	sp, #12
    180a:	4681      	mov	r9, r0
    180c:	4688      	mov	r8, r1
    180e:	421a      	tst	r2, r3
    1810:	d104      	bne.n	181c <_fputwc_r+0x24>
    1812:	431a      	orrs	r2, r3
    1814:	81a2      	strh	r2, [r4, #12]
    1816:	6e62      	ldr	r2, [r4, #100]	; 0x64
    1818:	4313      	orrs	r3, r2
    181a:	6663      	str	r3, [r4, #100]	; 0x64
    181c:	f000 fb78 	bl	1f10 <__locale_mb_cur_max>
    1820:	af01      	add	r7, sp, #4
    1822:	2801      	cmp	r0, #1
    1824:	d041      	beq.n	18aa <_fputwc_r+0xb2>
    1826:	1c23      	adds	r3, r4, #0
    1828:	335c      	adds	r3, #92	; 0x5c
    182a:	4648      	mov	r0, r9
    182c:	1c39      	adds	r1, r7, #0
    182e:	4642      	mov	r2, r8
    1830:	f001 fa2c 	bl	2c8c <_wcrtomb_r>
    1834:	1c06      	adds	r6, r0, #0
    1836:	1c42      	adds	r2, r0, #1
    1838:	d023      	beq.n	1882 <_fputwc_r+0x8a>
    183a:	2800      	cmp	r0, #0
    183c:	d02a      	beq.n	1894 <_fputwc_r+0x9c>
    183e:	2500      	movs	r5, #0
    1840:	e008      	b.n	1854 <_fputwc_r+0x5c>
    1842:	5d7b      	ldrb	r3, [r7, r5]
    1844:	6822      	ldr	r2, [r4, #0]
    1846:	7013      	strb	r3, [r2, #0]
    1848:	6823      	ldr	r3, [r4, #0]
    184a:	3301      	adds	r3, #1
    184c:	6023      	str	r3, [r4, #0]
    184e:	3501      	adds	r5, #1
    1850:	42b5      	cmp	r5, r6
    1852:	d21f      	bcs.n	1894 <_fputwc_r+0x9c>
    1854:	68a3      	ldr	r3, [r4, #8]
    1856:	3b01      	subs	r3, #1
    1858:	60a3      	str	r3, [r4, #8]
    185a:	2b00      	cmp	r3, #0
    185c:	daf1      	bge.n	1842 <_fputwc_r+0x4a>
    185e:	69a2      	ldr	r2, [r4, #24]
    1860:	4293      	cmp	r3, r2
    1862:	db19      	blt.n	1898 <_fputwc_r+0xa0>
    1864:	5d7b      	ldrb	r3, [r7, r5]
    1866:	6822      	ldr	r2, [r4, #0]
    1868:	7013      	strb	r3, [r2, #0]
    186a:	6823      	ldr	r3, [r4, #0]
    186c:	781a      	ldrb	r2, [r3, #0]
    186e:	2a0a      	cmp	r2, #10
    1870:	d023      	beq.n	18ba <_fputwc_r+0xc2>
    1872:	3301      	adds	r3, #1
    1874:	2200      	movs	r2, #0
    1876:	6023      	str	r3, [r4, #0]
    1878:	2a00      	cmp	r2, #0
    187a:	d0e8      	beq.n	184e <_fputwc_r+0x56>
    187c:	2001      	movs	r0, #1
    187e:	4240      	negs	r0, r0
    1880:	e003      	b.n	188a <_fputwc_r+0x92>
    1882:	89a2      	ldrh	r2, [r4, #12]
    1884:	2340      	movs	r3, #64	; 0x40
    1886:	4313      	orrs	r3, r2
    1888:	81a3      	strh	r3, [r4, #12]
    188a:	b003      	add	sp, #12
    188c:	bc0c      	pop	{r2, r3}
    188e:	4690      	mov	r8, r2
    1890:	4699      	mov	r9, r3
    1892:	bdf0      	pop	{r4, r5, r6, r7, pc}
    1894:	4640      	mov	r0, r8
    1896:	e7f8      	b.n	188a <_fputwc_r+0x92>
    1898:	1c22      	adds	r2, r4, #0
    189a:	5d79      	ldrb	r1, [r7, r5]
    189c:	4648      	mov	r0, r9
    189e:	f001 f991 	bl	2bc4 <__swbuf_r>
    18a2:	1c42      	adds	r2, r0, #1
    18a4:	4253      	negs	r3, r2
    18a6:	415a      	adcs	r2, r3
    18a8:	e7e6      	b.n	1878 <_fputwc_r+0x80>
    18aa:	4643      	mov	r3, r8
    18ac:	3b01      	subs	r3, #1
    18ae:	2bfe      	cmp	r3, #254	; 0xfe
    18b0:	d8b9      	bhi.n	1826 <_fputwc_r+0x2e>
    18b2:	4643      	mov	r3, r8
    18b4:	703b      	strb	r3, [r7, #0]
    18b6:	2601      	movs	r6, #1
    18b8:	e7c1      	b.n	183e <_fputwc_r+0x46>
    18ba:	1c22      	adds	r2, r4, #0
    18bc:	4648      	mov	r0, r9
    18be:	210a      	movs	r1, #10
    18c0:	f001 f980 	bl	2bc4 <__swbuf_r>
    18c4:	1c42      	adds	r2, r0, #1
    18c6:	4253      	negs	r3, r2
    18c8:	415a      	adcs	r2, r3
    18ca:	e7d5      	b.n	1878 <_fputwc_r+0x80>

000018cc <fputwc>:
    18cc:	b570      	push	{r4, r5, r6, lr}
    18ce:	4c08      	ldr	r4, [pc, #32]	; (18f0 <fputwc+0x24>)
    18d0:	1c06      	adds	r6, r0, #0
    18d2:	6820      	ldr	r0, [r4, #0]
    18d4:	1c0d      	adds	r5, r1, #0
    18d6:	2800      	cmp	r0, #0
    18d8:	d005      	beq.n	18e6 <fputwc+0x1a>
    18da:	6b83      	ldr	r3, [r0, #56]	; 0x38
    18dc:	2b00      	cmp	r3, #0
    18de:	d102      	bne.n	18e6 <fputwc+0x1a>
    18e0:	f7ff fefc 	bl	16dc <__sinit>
    18e4:	6820      	ldr	r0, [r4, #0]
    18e6:	1c31      	adds	r1, r6, #0
    18e8:	1c2a      	adds	r2, r5, #0
    18ea:	f7ff ff85 	bl	17f8 <_fputwc_r>
    18ee:	bd70      	pop	{r4, r5, r6, pc}
    18f0:	100000c8 	.word	0x100000c8

000018f4 <_malloc_trim_r>:
    18f4:	b5f8      	push	{r3, r4, r5, r6, r7, lr}
    18f6:	1c0f      	adds	r7, r1, #0
    18f8:	1c04      	adds	r4, r0, #0
    18fa:	f000 ff0d 	bl	2718 <__malloc_lock>
    18fe:	4d20      	ldr	r5, [pc, #128]	; (1980 <_malloc_trim_r+0x8c>)
    1900:	4a20      	ldr	r2, [pc, #128]	; (1984 <_malloc_trim_r+0x90>)
    1902:	68ab      	ldr	r3, [r5, #8]
    1904:	685e      	ldr	r6, [r3, #4]
    1906:	2303      	movs	r3, #3
    1908:	439e      	bics	r6, r3
    190a:	18b3      	adds	r3, r6, r2
    190c:	1bdf      	subs	r7, r3, r7
    190e:	0b3f      	lsrs	r7, r7, #12
    1910:	4b1d      	ldr	r3, [pc, #116]	; (1988 <_malloc_trim_r+0x94>)
    1912:	3f01      	subs	r7, #1
    1914:	033f      	lsls	r7, r7, #12
    1916:	429f      	cmp	r7, r3
    1918:	dd07      	ble.n	192a <_malloc_trim_r+0x36>
    191a:	1c20      	adds	r0, r4, #0
    191c:	2100      	movs	r1, #0
    191e:	f7fe ff43 	bl	7a8 <_sbrk_r>
    1922:	68aa      	ldr	r2, [r5, #8]
    1924:	1993      	adds	r3, r2, r6
    1926:	4298      	cmp	r0, r3
    1928:	d004      	beq.n	1934 <_malloc_trim_r+0x40>
    192a:	1c20      	adds	r0, r4, #0
    192c:	f000 fef6 	bl	271c <__malloc_unlock>
    1930:	2000      	movs	r0, #0
    1932:	bdf8      	pop	{r3, r4, r5, r6, r7, pc}
    1934:	4279      	negs	r1, r7
    1936:	1c20      	adds	r0, r4, #0
    1938:	f7fe ff36 	bl	7a8 <_sbrk_r>
    193c:	3001      	adds	r0, #1
    193e:	d00d      	beq.n	195c <_malloc_trim_r+0x68>
    1940:	68ab      	ldr	r3, [r5, #8]
    1942:	1bf6      	subs	r6, r6, r7
    1944:	2201      	movs	r2, #1
    1946:	4316      	orrs	r6, r2
    1948:	605e      	str	r6, [r3, #4]
    194a:	4b10      	ldr	r3, [pc, #64]	; (198c <_malloc_trim_r+0x98>)
    194c:	1c20      	adds	r0, r4, #0
    194e:	681a      	ldr	r2, [r3, #0]
    1950:	1bd7      	subs	r7, r2, r7
    1952:	601f      	str	r7, [r3, #0]
    1954:	f000 fee2 	bl	271c <__malloc_unlock>
    1958:	2001      	movs	r0, #1
    195a:	e7ea      	b.n	1932 <_malloc_trim_r+0x3e>
    195c:	1c20      	adds	r0, r4, #0
    195e:	2100      	movs	r1, #0
    1960:	f7fe ff22 	bl	7a8 <_sbrk_r>
    1964:	68ab      	ldr	r3, [r5, #8]
    1966:	1ac2      	subs	r2, r0, r3
    1968:	2a0f      	cmp	r2, #15
    196a:	ddde      	ble.n	192a <_malloc_trim_r+0x36>
    196c:	4908      	ldr	r1, [pc, #32]	; (1990 <_malloc_trim_r+0x9c>)
    196e:	6809      	ldr	r1, [r1, #0]
    1970:	1a40      	subs	r0, r0, r1
    1972:	4906      	ldr	r1, [pc, #24]	; (198c <_malloc_trim_r+0x98>)
    1974:	6008      	str	r0, [r1, #0]
    1976:	2101      	movs	r1, #1
    1978:	430a      	orrs	r2, r1
    197a:	605a      	str	r2, [r3, #4]
    197c:	e7d5      	b.n	192a <_malloc_trim_r+0x36>
    197e:	46c0      	nop			; (mov r8, r8)
    1980:	10000574 	.word	0x10000574
    1984:	00000fef 	.word	0x00000fef
    1988:	00000fff 	.word	0x00000fff
    198c:	100009b8 	.word	0x100009b8
    1990:	1000097c 	.word	0x1000097c

00001994 <_free_r>:
    1994:	b5f0      	push	{r4, r5, r6, r7, lr}
    1996:	4647      	mov	r7, r8
    1998:	b480      	push	{r7}
    199a:	1c05      	adds	r5, r0, #0
    199c:	1e0c      	subs	r4, r1, #0
    199e:	d055      	beq.n	1a4c <_free_r+0xb8>
    19a0:	f000 feba 	bl	2718 <__malloc_lock>
    19a4:	1c21      	adds	r1, r4, #0
    19a6:	3908      	subs	r1, #8
    19a8:	6848      	ldr	r0, [r1, #4]
    19aa:	2701      	movs	r7, #1
    19ac:	1c03      	adds	r3, r0, #0
    19ae:	43bb      	bics	r3, r7
    19b0:	18ca      	adds	r2, r1, r3
    19b2:	6854      	ldr	r4, [r2, #4]
    19b4:	4680      	mov	r8, r0
    19b6:	2003      	movs	r0, #3
    19b8:	4384      	bics	r4, r0
    19ba:	1c20      	adds	r0, r4, #0
    19bc:	4c53      	ldr	r4, [pc, #332]	; (1b0c <_free_r+0x178>)
    19be:	68a6      	ldr	r6, [r4, #8]
    19c0:	4296      	cmp	r6, r2
    19c2:	d060      	beq.n	1a86 <_free_r+0xf2>
    19c4:	2600      	movs	r6, #0
    19c6:	46b4      	mov	ip, r6
    19c8:	4646      	mov	r6, r8
    19ca:	6050      	str	r0, [r2, #4]
    19cc:	4237      	tst	r7, r6
    19ce:	d10a      	bne.n	19e6 <_free_r+0x52>
    19d0:	680e      	ldr	r6, [r1, #0]
    19d2:	1c27      	adds	r7, r4, #0
    19d4:	1b89      	subs	r1, r1, r6
    19d6:	199b      	adds	r3, r3, r6
    19d8:	688e      	ldr	r6, [r1, #8]
    19da:	3708      	adds	r7, #8
    19dc:	42be      	cmp	r6, r7
    19de:	d06b      	beq.n	1ab8 <_free_r+0x124>
    19e0:	68cf      	ldr	r7, [r1, #12]
    19e2:	60f7      	str	r7, [r6, #12]
    19e4:	60be      	str	r6, [r7, #8]
    19e6:	1817      	adds	r7, r2, r0
    19e8:	687f      	ldr	r7, [r7, #4]
    19ea:	2601      	movs	r6, #1
    19ec:	4237      	tst	r7, r6
    19ee:	d107      	bne.n	1a00 <_free_r+0x6c>
    19f0:	181b      	adds	r3, r3, r0
    19f2:	4660      	mov	r0, ip
    19f4:	2800      	cmp	r0, #0
    19f6:	d02c      	beq.n	1a52 <_free_r+0xbe>
    19f8:	6890      	ldr	r0, [r2, #8]
    19fa:	68d2      	ldr	r2, [r2, #12]
    19fc:	60c2      	str	r2, [r0, #12]
    19fe:	6090      	str	r0, [r2, #8]
    1a00:	2201      	movs	r2, #1
    1a02:	1c18      	adds	r0, r3, #0
    1a04:	4310      	orrs	r0, r2
    1a06:	4666      	mov	r6, ip
    1a08:	6048      	str	r0, [r1, #4]
    1a0a:	50cb      	str	r3, [r1, r3]
    1a0c:	2e00      	cmp	r6, #0
    1a0e:	d11a      	bne.n	1a46 <_free_r+0xb2>
    1a10:	483f      	ldr	r0, [pc, #252]	; (1b10 <_free_r+0x17c>)
    1a12:	4283      	cmp	r3, r0
    1a14:	d929      	bls.n	1a6a <_free_r+0xd6>
    1a16:	0a5a      	lsrs	r2, r3, #9
    1a18:	2a04      	cmp	r2, #4
    1a1a:	d850      	bhi.n	1abe <_free_r+0x12a>
    1a1c:	099f      	lsrs	r7, r3, #6
    1a1e:	3738      	adds	r7, #56	; 0x38
    1a20:	0078      	lsls	r0, r7, #1
    1a22:	0080      	lsls	r0, r0, #2
    1a24:	1820      	adds	r0, r4, r0
    1a26:	6882      	ldr	r2, [r0, #8]
    1a28:	2603      	movs	r6, #3
    1a2a:	4282      	cmp	r2, r0
    1a2c:	d04d      	beq.n	1aca <_free_r+0x136>
    1a2e:	6854      	ldr	r4, [r2, #4]
    1a30:	43b4      	bics	r4, r6
    1a32:	42a3      	cmp	r3, r4
    1a34:	d202      	bcs.n	1a3c <_free_r+0xa8>
    1a36:	6892      	ldr	r2, [r2, #8]
    1a38:	4290      	cmp	r0, r2
    1a3a:	d1f8      	bne.n	1a2e <_free_r+0x9a>
    1a3c:	68d3      	ldr	r3, [r2, #12]
    1a3e:	60cb      	str	r3, [r1, #12]
    1a40:	608a      	str	r2, [r1, #8]
    1a42:	60d1      	str	r1, [r2, #12]
    1a44:	6099      	str	r1, [r3, #8]
    1a46:	1c28      	adds	r0, r5, #0
    1a48:	f000 fe68 	bl	271c <__malloc_unlock>
    1a4c:	bc04      	pop	{r2}
    1a4e:	4690      	mov	r8, r2
    1a50:	bdf0      	pop	{r4, r5, r6, r7, pc}
    1a52:	6890      	ldr	r0, [r2, #8]
    1a54:	4f2f      	ldr	r7, [pc, #188]	; (1b14 <_free_r+0x180>)
    1a56:	42b8      	cmp	r0, r7
    1a58:	d1cf      	bne.n	19fa <_free_r+0x66>
    1a5a:	431e      	orrs	r6, r3
    1a5c:	60c1      	str	r1, [r0, #12]
    1a5e:	6081      	str	r1, [r0, #8]
    1a60:	60c8      	str	r0, [r1, #12]
    1a62:	6088      	str	r0, [r1, #8]
    1a64:	604e      	str	r6, [r1, #4]
    1a66:	50cb      	str	r3, [r1, r3]
    1a68:	e7ed      	b.n	1a46 <_free_r+0xb2>
    1a6a:	08db      	lsrs	r3, r3, #3
    1a6c:	1098      	asrs	r0, r3, #2
    1a6e:	4082      	lsls	r2, r0
    1a70:	6860      	ldr	r0, [r4, #4]
    1a72:	00db      	lsls	r3, r3, #3
    1a74:	4302      	orrs	r2, r0
    1a76:	6062      	str	r2, [r4, #4]
    1a78:	18e4      	adds	r4, r4, r3
    1a7a:	68a3      	ldr	r3, [r4, #8]
    1a7c:	60cc      	str	r4, [r1, #12]
    1a7e:	608b      	str	r3, [r1, #8]
    1a80:	60d9      	str	r1, [r3, #12]
    1a82:	60a1      	str	r1, [r4, #8]
    1a84:	e7df      	b.n	1a46 <_free_r+0xb2>
    1a86:	18c3      	adds	r3, r0, r3
    1a88:	4640      	mov	r0, r8
    1a8a:	4207      	tst	r7, r0
    1a8c:	d106      	bne.n	1a9c <_free_r+0x108>
    1a8e:	680a      	ldr	r2, [r1, #0]
    1a90:	1a89      	subs	r1, r1, r2
    1a92:	68c8      	ldr	r0, [r1, #12]
    1a94:	189b      	adds	r3, r3, r2
    1a96:	688a      	ldr	r2, [r1, #8]
    1a98:	60d0      	str	r0, [r2, #12]
    1a9a:	6082      	str	r2, [r0, #8]
    1a9c:	2201      	movs	r2, #1
    1a9e:	431a      	orrs	r2, r3
    1aa0:	604a      	str	r2, [r1, #4]
    1aa2:	4a1d      	ldr	r2, [pc, #116]	; (1b18 <_free_r+0x184>)
    1aa4:	60a1      	str	r1, [r4, #8]
    1aa6:	6812      	ldr	r2, [r2, #0]
    1aa8:	4293      	cmp	r3, r2
    1aaa:	d3cc      	bcc.n	1a46 <_free_r+0xb2>
    1aac:	4b1b      	ldr	r3, [pc, #108]	; (1b1c <_free_r+0x188>)
    1aae:	1c28      	adds	r0, r5, #0
    1ab0:	6819      	ldr	r1, [r3, #0]
    1ab2:	f7ff ff1f 	bl	18f4 <_malloc_trim_r>
    1ab6:	e7c6      	b.n	1a46 <_free_r+0xb2>
    1ab8:	2601      	movs	r6, #1
    1aba:	46b4      	mov	ip, r6
    1abc:	e793      	b.n	19e6 <_free_r+0x52>
    1abe:	2a14      	cmp	r2, #20
    1ac0:	d80c      	bhi.n	1adc <_free_r+0x148>
    1ac2:	1c17      	adds	r7, r2, #0
    1ac4:	375b      	adds	r7, #91	; 0x5b
    1ac6:	0078      	lsls	r0, r7, #1
    1ac8:	e7ab      	b.n	1a22 <_free_r+0x8e>
    1aca:	10bf      	asrs	r7, r7, #2
    1acc:	2301      	movs	r3, #1
    1ace:	40bb      	lsls	r3, r7
    1ad0:	1c1f      	adds	r7, r3, #0
    1ad2:	6863      	ldr	r3, [r4, #4]
    1ad4:	431f      	orrs	r7, r3
    1ad6:	6067      	str	r7, [r4, #4]
    1ad8:	1c13      	adds	r3, r2, #0
    1ada:	e7b0      	b.n	1a3e <_free_r+0xaa>
    1adc:	2a54      	cmp	r2, #84	; 0x54
    1ade:	d803      	bhi.n	1ae8 <_free_r+0x154>
    1ae0:	0b1f      	lsrs	r7, r3, #12
    1ae2:	376e      	adds	r7, #110	; 0x6e
    1ae4:	0078      	lsls	r0, r7, #1
    1ae6:	e79c      	b.n	1a22 <_free_r+0x8e>
    1ae8:	20aa      	movs	r0, #170	; 0xaa
    1aea:	0040      	lsls	r0, r0, #1
    1aec:	4282      	cmp	r2, r0
    1aee:	d803      	bhi.n	1af8 <_free_r+0x164>
    1af0:	0bdf      	lsrs	r7, r3, #15
    1af2:	3777      	adds	r7, #119	; 0x77
    1af4:	0078      	lsls	r0, r7, #1
    1af6:	e794      	b.n	1a22 <_free_r+0x8e>
    1af8:	4809      	ldr	r0, [pc, #36]	; (1b20 <_free_r+0x18c>)
    1afa:	4282      	cmp	r2, r0
    1afc:	d803      	bhi.n	1b06 <_free_r+0x172>
    1afe:	0c9f      	lsrs	r7, r3, #18
    1b00:	377c      	adds	r7, #124	; 0x7c
    1b02:	0078      	lsls	r0, r7, #1
    1b04:	e78d      	b.n	1a22 <_free_r+0x8e>
    1b06:	20fc      	movs	r0, #252	; 0xfc
    1b08:	277e      	movs	r7, #126	; 0x7e
    1b0a:	e78a      	b.n	1a22 <_free_r+0x8e>
    1b0c:	10000574 	.word	0x10000574
    1b10:	000001ff 	.word	0x000001ff
    1b14:	1000057c 	.word	0x1000057c
    1b18:	10000980 	.word	0x10000980
    1b1c:	100009b4 	.word	0x100009b4
    1b20:	00000554 	.word	0x00000554

00001b24 <__sfvwrite_r>:
    1b24:	b5f0      	push	{r4, r5, r6, r7, lr}
    1b26:	464d      	mov	r5, r9
    1b28:	4644      	mov	r4, r8
    1b2a:	465f      	mov	r7, fp
    1b2c:	4656      	mov	r6, sl
    1b2e:	b4f0      	push	{r4, r5, r6, r7}
    1b30:	b085      	sub	sp, #20
    1b32:	9003      	str	r0, [sp, #12]
    1b34:	6890      	ldr	r0, [r2, #8]
    1b36:	1c0c      	adds	r4, r1, #0
    1b38:	1c15      	adds	r5, r2, #0
    1b3a:	2800      	cmp	r0, #0
    1b3c:	d023      	beq.n	1b86 <__sfvwrite_r+0x62>
    1b3e:	898b      	ldrh	r3, [r1, #12]
    1b40:	0719      	lsls	r1, r3, #28
    1b42:	d528      	bpl.n	1b96 <__sfvwrite_r+0x72>
    1b44:	6922      	ldr	r2, [r4, #16]
    1b46:	2a00      	cmp	r2, #0
    1b48:	d025      	beq.n	1b96 <__sfvwrite_r+0x72>
    1b4a:	682f      	ldr	r7, [r5, #0]
    1b4c:	46ba      	mov	sl, r7
    1b4e:	0798      	lsls	r0, r3, #30
    1b50:	d52d      	bpl.n	1bae <__sfvwrite_r+0x8a>
    1b52:	2380      	movs	r3, #128	; 0x80
    1b54:	2700      	movs	r7, #0
    1b56:	00db      	lsls	r3, r3, #3
    1b58:	2600      	movs	r6, #0
    1b5a:	4698      	mov	r8, r3
    1b5c:	46b9      	mov	r9, r7
    1b5e:	2e00      	cmp	r6, #0
    1b60:	d061      	beq.n	1c26 <__sfvwrite_r+0x102>
    1b62:	69e1      	ldr	r1, [r4, #28]
    1b64:	1c33      	adds	r3, r6, #0
    1b66:	4546      	cmp	r6, r8
    1b68:	d901      	bls.n	1b6e <__sfvwrite_r+0x4a>
    1b6a:	2380      	movs	r3, #128	; 0x80
    1b6c:	00db      	lsls	r3, r3, #3
    1b6e:	9803      	ldr	r0, [sp, #12]
    1b70:	464a      	mov	r2, r9
    1b72:	6a67      	ldr	r7, [r4, #36]	; 0x24
    1b74:	47b8      	blx	r7
    1b76:	2800      	cmp	r0, #0
    1b78:	dd5f      	ble.n	1c3a <__sfvwrite_r+0x116>
    1b7a:	68a9      	ldr	r1, [r5, #8]
    1b7c:	4481      	add	r9, r0
    1b7e:	1a36      	subs	r6, r6, r0
    1b80:	1a08      	subs	r0, r1, r0
    1b82:	60a8      	str	r0, [r5, #8]
    1b84:	d1eb      	bne.n	1b5e <__sfvwrite_r+0x3a>
    1b86:	2000      	movs	r0, #0
    1b88:	b005      	add	sp, #20
    1b8a:	bc3c      	pop	{r2, r3, r4, r5}
    1b8c:	4690      	mov	r8, r2
    1b8e:	4699      	mov	r9, r3
    1b90:	46a2      	mov	sl, r4
    1b92:	46ab      	mov	fp, r5
    1b94:	bdf0      	pop	{r4, r5, r6, r7, pc}
    1b96:	9803      	ldr	r0, [sp, #12]
    1b98:	1c21      	adds	r1, r4, #0
    1b9a:	f7ff fc19 	bl	13d0 <__swsetup_r>
    1b9e:	2800      	cmp	r0, #0
    1ba0:	d000      	beq.n	1ba4 <__sfvwrite_r+0x80>
    1ba2:	e137      	b.n	1e14 <__sfvwrite_r+0x2f0>
    1ba4:	682f      	ldr	r7, [r5, #0]
    1ba6:	89a3      	ldrh	r3, [r4, #12]
    1ba8:	46ba      	mov	sl, r7
    1baa:	0798      	lsls	r0, r3, #30
    1bac:	d4d1      	bmi.n	1b52 <__sfvwrite_r+0x2e>
    1bae:	07da      	lsls	r2, r3, #31
    1bb0:	d54a      	bpl.n	1c48 <__sfvwrite_r+0x124>
    1bb2:	2700      	movs	r7, #0
    1bb4:	2300      	movs	r3, #0
    1bb6:	46a9      	mov	r9, r5
    1bb8:	9701      	str	r7, [sp, #4]
    1bba:	46bb      	mov	fp, r7
    1bbc:	2600      	movs	r6, #0
    1bbe:	1c1d      	adds	r5, r3, #0
    1bc0:	2e00      	cmp	r6, #0
    1bc2:	d027      	beq.n	1c14 <__sfvwrite_r+0xf0>
    1bc4:	9f01      	ldr	r7, [sp, #4]
    1bc6:	2f00      	cmp	r7, #0
    1bc8:	d100      	bne.n	1bcc <__sfvwrite_r+0xa8>
    1bca:	e0b4      	b.n	1d36 <__sfvwrite_r+0x212>
    1bcc:	46a8      	mov	r8, r5
    1bce:	42b5      	cmp	r5, r6
    1bd0:	d900      	bls.n	1bd4 <__sfvwrite_r+0xb0>
    1bd2:	46b0      	mov	r8, r6
    1bd4:	6820      	ldr	r0, [r4, #0]
    1bd6:	6921      	ldr	r1, [r4, #16]
    1bd8:	68a7      	ldr	r7, [r4, #8]
    1bda:	6963      	ldr	r3, [r4, #20]
    1bdc:	4288      	cmp	r0, r1
    1bde:	d903      	bls.n	1be8 <__sfvwrite_r+0xc4>
    1be0:	18ff      	adds	r7, r7, r3
    1be2:	45b8      	cmp	r8, r7
    1be4:	dd00      	ble.n	1be8 <__sfvwrite_r+0xc4>
    1be6:	e0e5      	b.n	1db4 <__sfvwrite_r+0x290>
    1be8:	4598      	cmp	r8, r3
    1bea:	db78      	blt.n	1cde <__sfvwrite_r+0x1ba>
    1bec:	6a67      	ldr	r7, [r4, #36]	; 0x24
    1bee:	9803      	ldr	r0, [sp, #12]
    1bf0:	69e1      	ldr	r1, [r4, #28]
    1bf2:	465a      	mov	r2, fp
    1bf4:	47b8      	blx	r7
    1bf6:	1e07      	subs	r7, r0, #0
    1bf8:	dd1f      	ble.n	1c3a <__sfvwrite_r+0x116>
    1bfa:	1bed      	subs	r5, r5, r7
    1bfc:	d100      	bne.n	1c00 <__sfvwrite_r+0xdc>
    1bfe:	e07e      	b.n	1cfe <__sfvwrite_r+0x1da>
    1c00:	4648      	mov	r0, r9
    1c02:	6880      	ldr	r0, [r0, #8]
    1c04:	44bb      	add	fp, r7
    1c06:	1bf6      	subs	r6, r6, r7
    1c08:	4649      	mov	r1, r9
    1c0a:	1bc7      	subs	r7, r0, r7
    1c0c:	608f      	str	r7, [r1, #8]
    1c0e:	d0ba      	beq.n	1b86 <__sfvwrite_r+0x62>
    1c10:	2e00      	cmp	r6, #0
    1c12:	d1d7      	bne.n	1bc4 <__sfvwrite_r+0xa0>
    1c14:	4650      	mov	r0, sl
    1c16:	6807      	ldr	r7, [r0, #0]
    1c18:	2108      	movs	r1, #8
    1c1a:	46bb      	mov	fp, r7
    1c1c:	2700      	movs	r7, #0
    1c1e:	6846      	ldr	r6, [r0, #4]
    1c20:	448a      	add	sl, r1
    1c22:	9701      	str	r7, [sp, #4]
    1c24:	e7cc      	b.n	1bc0 <__sfvwrite_r+0x9c>
    1c26:	4652      	mov	r2, sl
    1c28:	6811      	ldr	r1, [r2, #0]
    1c2a:	2308      	movs	r3, #8
    1c2c:	4689      	mov	r9, r1
    1c2e:	6856      	ldr	r6, [r2, #4]
    1c30:	449a      	add	sl, r3
    1c32:	e794      	b.n	1b5e <__sfvwrite_r+0x3a>
    1c34:	9d03      	ldr	r5, [sp, #12]
    1c36:	230c      	movs	r3, #12
    1c38:	602b      	str	r3, [r5, #0]
    1c3a:	89a2      	ldrh	r2, [r4, #12]
    1c3c:	2340      	movs	r3, #64	; 0x40
    1c3e:	4313      	orrs	r3, r2
    1c40:	2001      	movs	r0, #1
    1c42:	81a3      	strh	r3, [r4, #12]
    1c44:	4240      	negs	r0, r0
    1c46:	e79f      	b.n	1b88 <__sfvwrite_r+0x64>
    1c48:	2700      	movs	r7, #0
    1c4a:	46bb      	mov	fp, r7
    1c4c:	2600      	movs	r6, #0
    1c4e:	46a8      	mov	r8, r5
    1c50:	2e00      	cmp	r6, #0
    1c52:	d029      	beq.n	1ca8 <__sfvwrite_r+0x184>
    1c54:	2080      	movs	r0, #128	; 0x80
    1c56:	0080      	lsls	r0, r0, #2
    1c58:	68a7      	ldr	r7, [r4, #8]
    1c5a:	1c1a      	adds	r2, r3, #0
    1c5c:	4203      	tst	r3, r0
    1c5e:	d02a      	beq.n	1cb6 <__sfvwrite_r+0x192>
    1c60:	46b9      	mov	r9, r7
    1c62:	42be      	cmp	r6, r7
    1c64:	d354      	bcc.n	1d10 <__sfvwrite_r+0x1ec>
    1c66:	2190      	movs	r1, #144	; 0x90
    1c68:	00c9      	lsls	r1, r1, #3
    1c6a:	4211      	tst	r1, r2
    1c6c:	d170      	bne.n	1d50 <__sfvwrite_r+0x22c>
    1c6e:	6820      	ldr	r0, [r4, #0]
    1c70:	9702      	str	r7, [sp, #8]
    1c72:	1c35      	adds	r5, r6, #0
    1c74:	1c37      	adds	r7, r6, #0
    1c76:	4659      	mov	r1, fp
    1c78:	464a      	mov	r2, r9
    1c7a:	f000 fcf7 	bl	266c <memmove>
    1c7e:	68a1      	ldr	r1, [r4, #8]
    1c80:	9a02      	ldr	r2, [sp, #8]
    1c82:	6820      	ldr	r0, [r4, #0]
    1c84:	1a8b      	subs	r3, r1, r2
    1c86:	60a3      	str	r3, [r4, #8]
    1c88:	1c03      	adds	r3, r0, #0
    1c8a:	444b      	add	r3, r9
    1c8c:	6023      	str	r3, [r4, #0]
    1c8e:	4642      	mov	r2, r8
    1c90:	6892      	ldr	r2, [r2, #8]
    1c92:	4643      	mov	r3, r8
    1c94:	1bd7      	subs	r7, r2, r7
    1c96:	44ab      	add	fp, r5
    1c98:	1b76      	subs	r6, r6, r5
    1c9a:	609f      	str	r7, [r3, #8]
    1c9c:	2f00      	cmp	r7, #0
    1c9e:	d100      	bne.n	1ca2 <__sfvwrite_r+0x17e>
    1ca0:	e771      	b.n	1b86 <__sfvwrite_r+0x62>
    1ca2:	89a3      	ldrh	r3, [r4, #12]
    1ca4:	2e00      	cmp	r6, #0
    1ca6:	d1d5      	bne.n	1c54 <__sfvwrite_r+0x130>
    1ca8:	4652      	mov	r2, sl
    1caa:	6811      	ldr	r1, [r2, #0]
    1cac:	2508      	movs	r5, #8
    1cae:	468b      	mov	fp, r1
    1cb0:	6856      	ldr	r6, [r2, #4]
    1cb2:	44aa      	add	sl, r5
    1cb4:	e7cc      	b.n	1c50 <__sfvwrite_r+0x12c>
    1cb6:	6820      	ldr	r0, [r4, #0]
    1cb8:	6921      	ldr	r1, [r4, #16]
    1cba:	4288      	cmp	r0, r1
    1cbc:	d903      	bls.n	1cc6 <__sfvwrite_r+0x1a2>
    1cbe:	1c3d      	adds	r5, r7, #0
    1cc0:	42be      	cmp	r6, r7
    1cc2:	d900      	bls.n	1cc6 <__sfvwrite_r+0x1a2>
    1cc4:	e085      	b.n	1dd2 <__sfvwrite_r+0x2ae>
    1cc6:	6963      	ldr	r3, [r4, #20]
    1cc8:	429e      	cmp	r6, r3
    1cca:	d327      	bcc.n	1d1c <__sfvwrite_r+0x1f8>
    1ccc:	9803      	ldr	r0, [sp, #12]
    1cce:	69e1      	ldr	r1, [r4, #28]
    1cd0:	465a      	mov	r2, fp
    1cd2:	6a65      	ldr	r5, [r4, #36]	; 0x24
    1cd4:	47a8      	blx	r5
    1cd6:	1e07      	subs	r7, r0, #0
    1cd8:	ddaf      	ble.n	1c3a <__sfvwrite_r+0x116>
    1cda:	1c3d      	adds	r5, r7, #0
    1cdc:	e7d7      	b.n	1c8e <__sfvwrite_r+0x16a>
    1cde:	4659      	mov	r1, fp
    1ce0:	4642      	mov	r2, r8
    1ce2:	f000 fcc3 	bl	266c <memmove>
    1ce6:	68a0      	ldr	r0, [r4, #8]
    1ce8:	6822      	ldr	r2, [r4, #0]
    1cea:	4641      	mov	r1, r8
    1cec:	1a43      	subs	r3, r0, r1
    1cee:	60a3      	str	r3, [r4, #8]
    1cf0:	1c13      	adds	r3, r2, #0
    1cf2:	4443      	add	r3, r8
    1cf4:	4647      	mov	r7, r8
    1cf6:	6023      	str	r3, [r4, #0]
    1cf8:	1bed      	subs	r5, r5, r7
    1cfa:	d000      	beq.n	1cfe <__sfvwrite_r+0x1da>
    1cfc:	e780      	b.n	1c00 <__sfvwrite_r+0xdc>
    1cfe:	9803      	ldr	r0, [sp, #12]
    1d00:	1c21      	adds	r1, r4, #0
    1d02:	f7ff fc73 	bl	15ec <_fflush_r>
    1d06:	2800      	cmp	r0, #0
    1d08:	d197      	bne.n	1c3a <__sfvwrite_r+0x116>
    1d0a:	2300      	movs	r3, #0
    1d0c:	9301      	str	r3, [sp, #4]
    1d0e:	e777      	b.n	1c00 <__sfvwrite_r+0xdc>
    1d10:	9602      	str	r6, [sp, #8]
    1d12:	6820      	ldr	r0, [r4, #0]
    1d14:	1c35      	adds	r5, r6, #0
    1d16:	1c37      	adds	r7, r6, #0
    1d18:	46b1      	mov	r9, r6
    1d1a:	e7ac      	b.n	1c76 <__sfvwrite_r+0x152>
    1d1c:	4659      	mov	r1, fp
    1d1e:	1c32      	adds	r2, r6, #0
    1d20:	f000 fca4 	bl	266c <memmove>
    1d24:	68a0      	ldr	r0, [r4, #8]
    1d26:	6821      	ldr	r1, [r4, #0]
    1d28:	1b83      	subs	r3, r0, r6
    1d2a:	60a3      	str	r3, [r4, #8]
    1d2c:	198b      	adds	r3, r1, r6
    1d2e:	1c37      	adds	r7, r6, #0
    1d30:	6023      	str	r3, [r4, #0]
    1d32:	1c35      	adds	r5, r6, #0
    1d34:	e7ab      	b.n	1c8e <__sfvwrite_r+0x16a>
    1d36:	4658      	mov	r0, fp
    1d38:	210a      	movs	r1, #10
    1d3a:	1c32      	adds	r2, r6, #0
    1d3c:	f000 fc08 	bl	2550 <memchr>
    1d40:	2800      	cmp	r0, #0
    1d42:	d063      	beq.n	1e0c <__sfvwrite_r+0x2e8>
    1d44:	1c45      	adds	r5, r0, #1
    1d46:	2701      	movs	r7, #1
    1d48:	4658      	mov	r0, fp
    1d4a:	1a2d      	subs	r5, r5, r0
    1d4c:	9701      	str	r7, [sp, #4]
    1d4e:	e73d      	b.n	1bcc <__sfvwrite_r+0xa8>
    1d50:	6822      	ldr	r2, [r4, #0]
    1d52:	6921      	ldr	r1, [r4, #16]
    1d54:	1a57      	subs	r7, r2, r1
    1d56:	6962      	ldr	r2, [r4, #20]
    1d58:	1c78      	adds	r0, r7, #1
    1d5a:	0055      	lsls	r5, r2, #1
    1d5c:	18aa      	adds	r2, r5, r2
    1d5e:	0fd5      	lsrs	r5, r2, #31
    1d60:	18aa      	adds	r2, r5, r2
    1d62:	1055      	asrs	r5, r2, #1
    1d64:	1980      	adds	r0, r0, r6
    1d66:	1c2a      	adds	r2, r5, #0
    1d68:	4285      	cmp	r5, r0
    1d6a:	d201      	bcs.n	1d70 <__sfvwrite_r+0x24c>
    1d6c:	1c05      	adds	r5, r0, #0
    1d6e:	1c02      	adds	r2, r0, #0
    1d70:	2080      	movs	r0, #128	; 0x80
    1d72:	00c0      	lsls	r0, r0, #3
    1d74:	4203      	tst	r3, r0
    1d76:	d03b      	beq.n	1df0 <__sfvwrite_r+0x2cc>
    1d78:	9803      	ldr	r0, [sp, #12]
    1d7a:	1c11      	adds	r1, r2, #0
    1d7c:	f000 f95c 	bl	2038 <_malloc_r>
    1d80:	4681      	mov	r9, r0
    1d82:	2800      	cmp	r0, #0
    1d84:	d100      	bne.n	1d88 <__sfvwrite_r+0x264>
    1d86:	e755      	b.n	1c34 <__sfvwrite_r+0x110>
    1d88:	1c3a      	adds	r2, r7, #0
    1d8a:	6921      	ldr	r1, [r4, #16]
    1d8c:	f000 fc28 	bl	25e0 <memcpy>
    1d90:	89a2      	ldrh	r2, [r4, #12]
    1d92:	4b22      	ldr	r3, [pc, #136]	; (1e1c <__sfvwrite_r+0x2f8>)
    1d94:	4013      	ands	r3, r2
    1d96:	2280      	movs	r2, #128	; 0x80
    1d98:	4313      	orrs	r3, r2
    1d9a:	81a3      	strh	r3, [r4, #12]
    1d9c:	4648      	mov	r0, r9
    1d9e:	6120      	str	r0, [r4, #16]
    1da0:	6165      	str	r5, [r4, #20]
    1da2:	19c0      	adds	r0, r0, r7
    1da4:	1bed      	subs	r5, r5, r7
    1da6:	60a5      	str	r5, [r4, #8]
    1da8:	6020      	str	r0, [r4, #0]
    1daa:	9602      	str	r6, [sp, #8]
    1dac:	1c35      	adds	r5, r6, #0
    1dae:	1c37      	adds	r7, r6, #0
    1db0:	46b1      	mov	r9, r6
    1db2:	e760      	b.n	1c76 <__sfvwrite_r+0x152>
    1db4:	4659      	mov	r1, fp
    1db6:	1c3a      	adds	r2, r7, #0
    1db8:	f000 fc58 	bl	266c <memmove>
    1dbc:	6822      	ldr	r2, [r4, #0]
    1dbe:	9803      	ldr	r0, [sp, #12]
    1dc0:	19d3      	adds	r3, r2, r7
    1dc2:	6023      	str	r3, [r4, #0]
    1dc4:	1c21      	adds	r1, r4, #0
    1dc6:	f7ff fc11 	bl	15ec <_fflush_r>
    1dca:	2800      	cmp	r0, #0
    1dcc:	d100      	bne.n	1dd0 <__sfvwrite_r+0x2ac>
    1dce:	e714      	b.n	1bfa <__sfvwrite_r+0xd6>
    1dd0:	e733      	b.n	1c3a <__sfvwrite_r+0x116>
    1dd2:	4659      	mov	r1, fp
    1dd4:	1c3a      	adds	r2, r7, #0
    1dd6:	f000 fc49 	bl	266c <memmove>
    1dda:	6822      	ldr	r2, [r4, #0]
    1ddc:	9803      	ldr	r0, [sp, #12]
    1dde:	19d3      	adds	r3, r2, r7
    1de0:	6023      	str	r3, [r4, #0]
    1de2:	1c21      	adds	r1, r4, #0
    1de4:	f7ff fc02 	bl	15ec <_fflush_r>
    1de8:	2800      	cmp	r0, #0
    1dea:	d100      	bne.n	1dee <__sfvwrite_r+0x2ca>
    1dec:	e74f      	b.n	1c8e <__sfvwrite_r+0x16a>
    1dee:	e724      	b.n	1c3a <__sfvwrite_r+0x116>
    1df0:	9803      	ldr	r0, [sp, #12]
    1df2:	f000 fc95 	bl	2720 <_realloc_r>
    1df6:	4681      	mov	r9, r0
    1df8:	2800      	cmp	r0, #0
    1dfa:	d1cf      	bne.n	1d9c <__sfvwrite_r+0x278>
    1dfc:	9803      	ldr	r0, [sp, #12]
    1dfe:	6921      	ldr	r1, [r4, #16]
    1e00:	f7ff fdc8 	bl	1994 <_free_r>
    1e04:	9f03      	ldr	r7, [sp, #12]
    1e06:	230c      	movs	r3, #12
    1e08:	603b      	str	r3, [r7, #0]
    1e0a:	e716      	b.n	1c3a <__sfvwrite_r+0x116>
    1e0c:	2701      	movs	r7, #1
    1e0e:	1c75      	adds	r5, r6, #1
    1e10:	9701      	str	r7, [sp, #4]
    1e12:	e6db      	b.n	1bcc <__sfvwrite_r+0xa8>
    1e14:	2001      	movs	r0, #1
    1e16:	4240      	negs	r0, r0
    1e18:	e6b6      	b.n	1b88 <__sfvwrite_r+0x64>
    1e1a:	46c0      	nop			; (mov r8, r8)
    1e1c:	fffffb7f 	.word	0xfffffb7f

00001e20 <_fwalk>:
    1e20:	b5f0      	push	{r4, r5, r6, r7, lr}
    1e22:	22b8      	movs	r2, #184	; 0xb8
    1e24:	0092      	lsls	r2, r2, #2
    1e26:	4647      	mov	r7, r8
    1e28:	1886      	adds	r6, r0, r2
    1e2a:	b480      	push	{r7}
    1e2c:	4688      	mov	r8, r1
    1e2e:	2700      	movs	r7, #0
    1e30:	2e00      	cmp	r6, #0
    1e32:	d017      	beq.n	1e64 <_fwalk+0x44>
    1e34:	6875      	ldr	r5, [r6, #4]
    1e36:	68b4      	ldr	r4, [r6, #8]
    1e38:	3d01      	subs	r5, #1
    1e3a:	d410      	bmi.n	1e5e <_fwalk+0x3e>
    1e3c:	340c      	adds	r4, #12
    1e3e:	8823      	ldrh	r3, [r4, #0]
    1e40:	1c20      	adds	r0, r4, #0
    1e42:	380c      	subs	r0, #12
    1e44:	2b00      	cmp	r3, #0
    1e46:	d007      	beq.n	1e58 <_fwalk+0x38>
    1e48:	2b01      	cmp	r3, #1
    1e4a:	d905      	bls.n	1e58 <_fwalk+0x38>
    1e4c:	2202      	movs	r2, #2
    1e4e:	5ea3      	ldrsh	r3, [r4, r2]
    1e50:	3301      	adds	r3, #1
    1e52:	d001      	beq.n	1e58 <_fwalk+0x38>
    1e54:	47c0      	blx	r8
    1e56:	4307      	orrs	r7, r0
    1e58:	3468      	adds	r4, #104	; 0x68
    1e5a:	3d01      	subs	r5, #1
    1e5c:	d2ef      	bcs.n	1e3e <_fwalk+0x1e>
    1e5e:	6836      	ldr	r6, [r6, #0]
    1e60:	2e00      	cmp	r6, #0
    1e62:	d1e7      	bne.n	1e34 <_fwalk+0x14>
    1e64:	1c38      	adds	r0, r7, #0
    1e66:	bc04      	pop	{r2}
    1e68:	4690      	mov	r8, r2
    1e6a:	bdf0      	pop	{r4, r5, r6, r7, pc}

00001e6c <_fwalk_reent>:
    1e6c:	b5f8      	push	{r3, r4, r5, r6, r7, lr}
    1e6e:	22b8      	movs	r2, #184	; 0xb8
    1e70:	464f      	mov	r7, r9
    1e72:	4646      	mov	r6, r8
    1e74:	0092      	lsls	r2, r2, #2
    1e76:	b4c0      	push	{r6, r7}
    1e78:	4680      	mov	r8, r0
    1e7a:	1c16      	adds	r6, r2, #0
    1e7c:	4446      	add	r6, r8
    1e7e:	4689      	mov	r9, r1
    1e80:	2700      	movs	r7, #0
    1e82:	2e00      	cmp	r6, #0
    1e84:	d018      	beq.n	1eb8 <_fwalk_reent+0x4c>
    1e86:	6875      	ldr	r5, [r6, #4]
    1e88:	68b4      	ldr	r4, [r6, #8]
    1e8a:	3d01      	subs	r5, #1
    1e8c:	d411      	bmi.n	1eb2 <_fwalk_reent+0x46>
    1e8e:	340c      	adds	r4, #12
    1e90:	8823      	ldrh	r3, [r4, #0]
    1e92:	1c21      	adds	r1, r4, #0
    1e94:	390c      	subs	r1, #12
    1e96:	2b00      	cmp	r3, #0
    1e98:	d008      	beq.n	1eac <_fwalk_reent+0x40>
    1e9a:	2b01      	cmp	r3, #1
    1e9c:	d906      	bls.n	1eac <_fwalk_reent+0x40>
    1e9e:	2202      	movs	r2, #2
    1ea0:	5ea3      	ldrsh	r3, [r4, r2]
    1ea2:	3301      	adds	r3, #1
    1ea4:	d002      	beq.n	1eac <_fwalk_reent+0x40>
    1ea6:	4640      	mov	r0, r8
    1ea8:	47c8      	blx	r9
    1eaa:	4307      	orrs	r7, r0
    1eac:	3468      	adds	r4, #104	; 0x68
    1eae:	3d01      	subs	r5, #1
    1eb0:	d2ee      	bcs.n	1e90 <_fwalk_reent+0x24>
    1eb2:	6836      	ldr	r6, [r6, #0]
    1eb4:	2e00      	cmp	r6, #0
    1eb6:	d1e6      	bne.n	1e86 <_fwalk_reent+0x1a>
    1eb8:	1c38      	adds	r0, r7, #0
    1eba:	bc0c      	pop	{r2, r3}
    1ebc:	4690      	mov	r8, r2
    1ebe:	4699      	mov	r9, r3
    1ec0:	bdf8      	pop	{r3, r4, r5, r6, r7, pc}
    1ec2:	46c0      	nop			; (mov r8, r8)

00001ec4 <_setlocale_r>:
    1ec4:	b538      	push	{r3, r4, r5, lr}
    1ec6:	1e14      	subs	r4, r2, #0
    1ec8:	d005      	beq.n	1ed6 <_setlocale_r+0x12>
    1eca:	1c20      	adds	r0, r4, #0
    1ecc:	490b      	ldr	r1, [pc, #44]	; (1efc <_setlocale_r+0x38>)
    1ece:	f000 fe67 	bl	2ba0 <strcmp>
    1ed2:	2800      	cmp	r0, #0
    1ed4:	d102      	bne.n	1edc <_setlocale_r+0x18>
    1ed6:	4d0a      	ldr	r5, [pc, #40]	; (1f00 <_setlocale_r+0x3c>)
    1ed8:	1c28      	adds	r0, r5, #0
    1eda:	bd38      	pop	{r3, r4, r5, pc}
    1edc:	4d08      	ldr	r5, [pc, #32]	; (1f00 <_setlocale_r+0x3c>)
    1ede:	1c20      	adds	r0, r4, #0
    1ee0:	1c29      	adds	r1, r5, #0
    1ee2:	f000 fe5d 	bl	2ba0 <strcmp>
    1ee6:	2800      	cmp	r0, #0
    1ee8:	d0f6      	beq.n	1ed8 <_setlocale_r+0x14>
    1eea:	1c20      	adds	r0, r4, #0
    1eec:	4905      	ldr	r1, [pc, #20]	; (1f04 <_setlocale_r+0x40>)
    1eee:	f000 fe57 	bl	2ba0 <strcmp>
    1ef2:	4243      	negs	r3, r0
    1ef4:	4158      	adcs	r0, r3
    1ef6:	4240      	negs	r0, r0
    1ef8:	4028      	ands	r0, r5
    1efa:	e7ee      	b.n	1eda <_setlocale_r+0x16>
    1efc:	000030a8 	.word	0x000030a8
    1f00:	00002ef0 	.word	0x00002ef0
    1f04:	00002ee8 	.word	0x00002ee8

00001f08 <__locale_charset>:
    1f08:	4800      	ldr	r0, [pc, #0]	; (1f0c <__locale_charset+0x4>)
    1f0a:	4770      	bx	lr
    1f0c:	100004f8 	.word	0x100004f8

00001f10 <__locale_mb_cur_max>:
    1f10:	4b01      	ldr	r3, [pc, #4]	; (1f18 <__locale_mb_cur_max+0x8>)
    1f12:	6a18      	ldr	r0, [r3, #32]
    1f14:	4770      	bx	lr
    1f16:	46c0      	nop			; (mov r8, r8)
    1f18:	100004f8 	.word	0x100004f8

00001f1c <__locale_msgcharset>:
    1f1c:	4801      	ldr	r0, [pc, #4]	; (1f24 <__locale_msgcharset+0x8>)
    1f1e:	3024      	adds	r0, #36	; 0x24
    1f20:	4770      	bx	lr
    1f22:	46c0      	nop			; (mov r8, r8)
    1f24:	100004f8 	.word	0x100004f8

00001f28 <__locale_cjk_lang>:
    1f28:	2000      	movs	r0, #0
    1f2a:	4770      	bx	lr

00001f2c <_localeconv_r>:
    1f2c:	4801      	ldr	r0, [pc, #4]	; (1f34 <_localeconv_r+0x8>)
    1f2e:	3044      	adds	r0, #68	; 0x44
    1f30:	4770      	bx	lr
    1f32:	46c0      	nop			; (mov r8, r8)
    1f34:	100004f8 	.word	0x100004f8

00001f38 <setlocale>:
    1f38:	b508      	push	{r3, lr}
    1f3a:	1c0a      	adds	r2, r1, #0
    1f3c:	4903      	ldr	r1, [pc, #12]	; (1f4c <setlocale+0x14>)
    1f3e:	1c03      	adds	r3, r0, #0
    1f40:	6808      	ldr	r0, [r1, #0]
    1f42:	1c19      	adds	r1, r3, #0
    1f44:	f7ff ffbe 	bl	1ec4 <_setlocale_r>
    1f48:	bd08      	pop	{r3, pc}
    1f4a:	46c0      	nop			; (mov r8, r8)
    1f4c:	100000c8 	.word	0x100000c8

00001f50 <localeconv>:
    1f50:	4801      	ldr	r0, [pc, #4]	; (1f58 <localeconv+0x8>)
    1f52:	3044      	adds	r0, #68	; 0x44
    1f54:	4770      	bx	lr
    1f56:	46c0      	nop			; (mov r8, r8)
    1f58:	100004f8 	.word	0x100004f8

00001f5c <__smakebuf_r>:
    1f5c:	b5f0      	push	{r4, r5, r6, r7, lr}
    1f5e:	898b      	ldrh	r3, [r1, #12]
    1f60:	b091      	sub	sp, #68	; 0x44
    1f62:	1c05      	adds	r5, r0, #0
    1f64:	1c0c      	adds	r4, r1, #0
    1f66:	079a      	lsls	r2, r3, #30
    1f68:	d43e      	bmi.n	1fe8 <__smakebuf_r+0x8c>
    1f6a:	220e      	movs	r2, #14
    1f6c:	5e89      	ldrsh	r1, [r1, r2]
    1f6e:	2900      	cmp	r1, #0
    1f70:	db19      	blt.n	1fa6 <__smakebuf_r+0x4a>
    1f72:	aa01      	add	r2, sp, #4
    1f74:	f7fe fc34 	bl	7e0 <_fstat_r>
    1f78:	2800      	cmp	r0, #0
    1f7a:	db13      	blt.n	1fa4 <__smakebuf_r+0x48>
    1f7c:	9a02      	ldr	r2, [sp, #8]
    1f7e:	23f0      	movs	r3, #240	; 0xf0
    1f80:	021b      	lsls	r3, r3, #8
    1f82:	4013      	ands	r3, r2
    1f84:	4a29      	ldr	r2, [pc, #164]	; (202c <__smakebuf_r+0xd0>)
    1f86:	189f      	adds	r7, r3, r2
    1f88:	427a      	negs	r2, r7
    1f8a:	4157      	adcs	r7, r2
    1f8c:	2280      	movs	r2, #128	; 0x80
    1f8e:	0212      	lsls	r2, r2, #8
    1f90:	4293      	cmp	r3, r2
    1f92:	d033      	beq.n	1ffc <__smakebuf_r+0xa0>
    1f94:	89a2      	ldrh	r2, [r4, #12]
    1f96:	2380      	movs	r3, #128	; 0x80
    1f98:	011b      	lsls	r3, r3, #4
    1f9a:	4313      	orrs	r3, r2
    1f9c:	2680      	movs	r6, #128	; 0x80
    1f9e:	81a3      	strh	r3, [r4, #12]
    1fa0:	00f6      	lsls	r6, r6, #3
    1fa2:	e008      	b.n	1fb6 <__smakebuf_r+0x5a>
    1fa4:	89a3      	ldrh	r3, [r4, #12]
    1fa6:	2640      	movs	r6, #64	; 0x40
    1fa8:	061a      	lsls	r2, r3, #24
    1faa:	d524      	bpl.n	1ff6 <__smakebuf_r+0x9a>
    1fac:	2280      	movs	r2, #128	; 0x80
    1fae:	0112      	lsls	r2, r2, #4
    1fb0:	4313      	orrs	r3, r2
    1fb2:	81a3      	strh	r3, [r4, #12]
    1fb4:	2700      	movs	r7, #0
    1fb6:	1c28      	adds	r0, r5, #0
    1fb8:	1c31      	adds	r1, r6, #0
    1fba:	f000 f83d 	bl	2038 <_malloc_r>
    1fbe:	2800      	cmp	r0, #0
    1fc0:	d00c      	beq.n	1fdc <__smakebuf_r+0x80>
    1fc2:	4b1b      	ldr	r3, [pc, #108]	; (2030 <__smakebuf_r+0xd4>)
    1fc4:	63eb      	str	r3, [r5, #60]	; 0x3c
    1fc6:	89a2      	ldrh	r2, [r4, #12]
    1fc8:	2380      	movs	r3, #128	; 0x80
    1fca:	4313      	orrs	r3, r2
    1fcc:	81a3      	strh	r3, [r4, #12]
    1fce:	6020      	str	r0, [r4, #0]
    1fd0:	6120      	str	r0, [r4, #16]
    1fd2:	6166      	str	r6, [r4, #20]
    1fd4:	2f00      	cmp	r7, #0
    1fd6:	d11c      	bne.n	2012 <__smakebuf_r+0xb6>
    1fd8:	b011      	add	sp, #68	; 0x44
    1fda:	bdf0      	pop	{r4, r5, r6, r7, pc}
    1fdc:	89a3      	ldrh	r3, [r4, #12]
    1fde:	059a      	lsls	r2, r3, #22
    1fe0:	d4fa      	bmi.n	1fd8 <__smakebuf_r+0x7c>
    1fe2:	2202      	movs	r2, #2
    1fe4:	4313      	orrs	r3, r2
    1fe6:	81a3      	strh	r3, [r4, #12]
    1fe8:	1c23      	adds	r3, r4, #0
    1fea:	3343      	adds	r3, #67	; 0x43
    1fec:	6023      	str	r3, [r4, #0]
    1fee:	6123      	str	r3, [r4, #16]
    1ff0:	2301      	movs	r3, #1
    1ff2:	6163      	str	r3, [r4, #20]
    1ff4:	e7f0      	b.n	1fd8 <__smakebuf_r+0x7c>
    1ff6:	2680      	movs	r6, #128	; 0x80
    1ff8:	00f6      	lsls	r6, r6, #3
    1ffa:	e7d7      	b.n	1fac <__smakebuf_r+0x50>
    1ffc:	4b0d      	ldr	r3, [pc, #52]	; (2034 <__smakebuf_r+0xd8>)
    1ffe:	6aa2      	ldr	r2, [r4, #40]	; 0x28
    2000:	429a      	cmp	r2, r3
    2002:	d1c7      	bne.n	1f94 <__smakebuf_r+0x38>
    2004:	89a3      	ldrh	r3, [r4, #12]
    2006:	2680      	movs	r6, #128	; 0x80
    2008:	00f6      	lsls	r6, r6, #3
    200a:	4333      	orrs	r3, r6
    200c:	81a3      	strh	r3, [r4, #12]
    200e:	64e6      	str	r6, [r4, #76]	; 0x4c
    2010:	e7d1      	b.n	1fb6 <__smakebuf_r+0x5a>
    2012:	230e      	movs	r3, #14
    2014:	5ee1      	ldrsh	r1, [r4, r3]
    2016:	1c28      	adds	r0, r5, #0
    2018:	f7fe fbee 	bl	7f8 <_isatty_r>
    201c:	2800      	cmp	r0, #0
    201e:	d0db      	beq.n	1fd8 <__smakebuf_r+0x7c>
    2020:	89a2      	ldrh	r2, [r4, #12]
    2022:	2301      	movs	r3, #1
    2024:	4313      	orrs	r3, r2
    2026:	81a3      	strh	r3, [r4, #12]
    2028:	e7d6      	b.n	1fd8 <__smakebuf_r+0x7c>
    202a:	46c0      	nop			; (mov r8, r8)
    202c:	ffffe000 	.word	0xffffe000
    2030:	00001649 	.word	0x00001649
    2034:	00002b69 	.word	0x00002b69

00002038 <_malloc_r>:
    2038:	b5f0      	push	{r4, r5, r6, r7, lr}
    203a:	4656      	mov	r6, sl
    203c:	4644      	mov	r4, r8
    203e:	465f      	mov	r7, fp
    2040:	464d      	mov	r5, r9
    2042:	b4f0      	push	{r4, r5, r6, r7}
    2044:	1c0c      	adds	r4, r1, #0
    2046:	340b      	adds	r4, #11
    2048:	b083      	sub	sp, #12
    204a:	1c06      	adds	r6, r0, #0
    204c:	2c16      	cmp	r4, #22
    204e:	d92c      	bls.n	20aa <_malloc_r+0x72>
    2050:	2307      	movs	r3, #7
    2052:	439c      	bics	r4, r3
    2054:	0fe3      	lsrs	r3, r4, #31
    2056:	428c      	cmp	r4, r1
    2058:	d32b      	bcc.n	20b2 <_malloc_r+0x7a>
    205a:	2b00      	cmp	r3, #0
    205c:	d129      	bne.n	20b2 <_malloc_r+0x7a>
    205e:	1c30      	adds	r0, r6, #0
    2060:	f000 fb5a 	bl	2718 <__malloc_lock>
    2064:	4bbf      	ldr	r3, [pc, #764]	; (2364 <_malloc_r+0x32c>)
    2066:	429c      	cmp	r4, r3
    2068:	d827      	bhi.n	20ba <_malloc_r+0x82>
    206a:	08e2      	lsrs	r2, r4, #3
    206c:	4dbe      	ldr	r5, [pc, #760]	; (2368 <_malloc_r+0x330>)
    206e:	00d3      	lsls	r3, r2, #3
    2070:	18eb      	adds	r3, r5, r3
    2072:	68df      	ldr	r7, [r3, #12]
    2074:	429f      	cmp	r7, r3
    2076:	d100      	bne.n	207a <_malloc_r+0x42>
    2078:	e1d6      	b.n	2428 <_malloc_r+0x3f0>
    207a:	6879      	ldr	r1, [r7, #4]
    207c:	2303      	movs	r3, #3
    207e:	68fa      	ldr	r2, [r7, #12]
    2080:	4399      	bics	r1, r3
    2082:	68bb      	ldr	r3, [r7, #8]
    2084:	60da      	str	r2, [r3, #12]
    2086:	6093      	str	r3, [r2, #8]
    2088:	187b      	adds	r3, r7, r1
    208a:	6858      	ldr	r0, [r3, #4]
    208c:	2201      	movs	r2, #1
    208e:	4302      	orrs	r2, r0
    2090:	605a      	str	r2, [r3, #4]
    2092:	1c30      	adds	r0, r6, #0
    2094:	f000 fb42 	bl	271c <__malloc_unlock>
    2098:	1c38      	adds	r0, r7, #0
    209a:	3008      	adds	r0, #8
    209c:	b003      	add	sp, #12
    209e:	bc3c      	pop	{r2, r3, r4, r5}
    20a0:	4690      	mov	r8, r2
    20a2:	4699      	mov	r9, r3
    20a4:	46a2      	mov	sl, r4
    20a6:	46ab      	mov	fp, r5
    20a8:	bdf0      	pop	{r4, r5, r6, r7, pc}
    20aa:	2410      	movs	r4, #16
    20ac:	2300      	movs	r3, #0
    20ae:	428c      	cmp	r4, r1
    20b0:	d2d3      	bcs.n	205a <_malloc_r+0x22>
    20b2:	230c      	movs	r3, #12
    20b4:	6033      	str	r3, [r6, #0]
    20b6:	2000      	movs	r0, #0
    20b8:	e7f0      	b.n	209c <_malloc_r+0x64>
    20ba:	0a63      	lsrs	r3, r4, #9
    20bc:	d100      	bne.n	20c0 <_malloc_r+0x88>
    20be:	e08b      	b.n	21d8 <_malloc_r+0x1a0>
    20c0:	2b04      	cmp	r3, #4
    20c2:	d900      	bls.n	20c6 <_malloc_r+0x8e>
    20c4:	e142      	b.n	234c <_malloc_r+0x314>
    20c6:	09a3      	lsrs	r3, r4, #6
    20c8:	3338      	adds	r3, #56	; 0x38
    20ca:	4698      	mov	r8, r3
    20cc:	0059      	lsls	r1, r3, #1
    20ce:	4da6      	ldr	r5, [pc, #664]	; (2368 <_malloc_r+0x330>)
    20d0:	0089      	lsls	r1, r1, #2
    20d2:	1869      	adds	r1, r5, r1
    20d4:	68cf      	ldr	r7, [r1, #12]
    20d6:	42b9      	cmp	r1, r7
    20d8:	d013      	beq.n	2102 <_malloc_r+0xca>
    20da:	687a      	ldr	r2, [r7, #4]
    20dc:	2303      	movs	r3, #3
    20de:	439a      	bics	r2, r3
    20e0:	1b13      	subs	r3, r2, r4
    20e2:	2b0f      	cmp	r3, #15
    20e4:	dc7c      	bgt.n	21e0 <_malloc_r+0x1a8>
    20e6:	2003      	movs	r0, #3
    20e8:	2b00      	cmp	r3, #0
    20ea:	db07      	blt.n	20fc <_malloc_r+0xc4>
    20ec:	e07c      	b.n	21e8 <_malloc_r+0x1b0>
    20ee:	687a      	ldr	r2, [r7, #4]
    20f0:	4382      	bics	r2, r0
    20f2:	1b13      	subs	r3, r2, r4
    20f4:	2b0f      	cmp	r3, #15
    20f6:	dc73      	bgt.n	21e0 <_malloc_r+0x1a8>
    20f8:	2b00      	cmp	r3, #0
    20fa:	da75      	bge.n	21e8 <_malloc_r+0x1b0>
    20fc:	68ff      	ldr	r7, [r7, #12]
    20fe:	42b9      	cmp	r1, r7
    2100:	d1f5      	bne.n	20ee <_malloc_r+0xb6>
    2102:	2101      	movs	r1, #1
    2104:	4488      	add	r8, r1
    2106:	1c2b      	adds	r3, r5, #0
    2108:	692f      	ldr	r7, [r5, #16]
    210a:	3308      	adds	r3, #8
    210c:	429f      	cmp	r7, r3
    210e:	d100      	bne.n	2112 <_malloc_r+0xda>
    2110:	e167      	b.n	23e2 <_malloc_r+0x3aa>
    2112:	6878      	ldr	r0, [r7, #4]
    2114:	2203      	movs	r2, #3
    2116:	4390      	bics	r0, r2
    2118:	1c02      	adds	r2, r0, #0
    211a:	1b01      	subs	r1, r0, r4
    211c:	290f      	cmp	r1, #15
    211e:	dd00      	ble.n	2122 <_malloc_r+0xea>
    2120:	e14e      	b.n	23c0 <_malloc_r+0x388>
    2122:	616b      	str	r3, [r5, #20]
    2124:	612b      	str	r3, [r5, #16]
    2126:	2900      	cmp	r1, #0
    2128:	da6d      	bge.n	2206 <_malloc_r+0x1ce>
    212a:	4b90      	ldr	r3, [pc, #576]	; (236c <_malloc_r+0x334>)
    212c:	4298      	cmp	r0, r3
    212e:	d900      	bls.n	2132 <_malloc_r+0xfa>
    2130:	e126      	b.n	2380 <_malloc_r+0x348>
    2132:	08c2      	lsrs	r2, r0, #3
    2134:	1093      	asrs	r3, r2, #2
    2136:	2001      	movs	r0, #1
    2138:	4098      	lsls	r0, r3
    213a:	686b      	ldr	r3, [r5, #4]
    213c:	00d2      	lsls	r2, r2, #3
    213e:	4318      	orrs	r0, r3
    2140:	18ab      	adds	r3, r5, r2
    2142:	689a      	ldr	r2, [r3, #8]
    2144:	60fb      	str	r3, [r7, #12]
    2146:	60ba      	str	r2, [r7, #8]
    2148:	6068      	str	r0, [r5, #4]
    214a:	609f      	str	r7, [r3, #8]
    214c:	60d7      	str	r7, [r2, #12]
    214e:	4641      	mov	r1, r8
    2150:	108b      	asrs	r3, r1, #2
    2152:	2101      	movs	r1, #1
    2154:	4099      	lsls	r1, r3
    2156:	4281      	cmp	r1, r0
    2158:	d85a      	bhi.n	2210 <_malloc_r+0x1d8>
    215a:	4201      	tst	r1, r0
    215c:	d10d      	bne.n	217a <_malloc_r+0x142>
    215e:	2303      	movs	r3, #3
    2160:	4642      	mov	r2, r8
    2162:	439a      	bics	r2, r3
    2164:	1c13      	adds	r3, r2, #0
    2166:	3304      	adds	r3, #4
    2168:	0049      	lsls	r1, r1, #1
    216a:	4698      	mov	r8, r3
    216c:	4201      	tst	r1, r0
    216e:	d104      	bne.n	217a <_malloc_r+0x142>
    2170:	2304      	movs	r3, #4
    2172:	0049      	lsls	r1, r1, #1
    2174:	4498      	add	r8, r3
    2176:	4201      	tst	r1, r0
    2178:	d0fa      	beq.n	2170 <_malloc_r+0x138>
    217a:	2003      	movs	r0, #3
    217c:	4684      	mov	ip, r0
    217e:	4642      	mov	r2, r8
    2180:	00d3      	lsls	r3, r2, #3
    2182:	195b      	adds	r3, r3, r5
    2184:	469a      	mov	sl, r3
    2186:	1c18      	adds	r0, r3, #0
    2188:	46c1      	mov	r9, r8
    218a:	68c7      	ldr	r7, [r0, #12]
    218c:	42b8      	cmp	r0, r7
    218e:	d107      	bne.n	21a0 <_malloc_r+0x168>
    2190:	e129      	b.n	23e6 <_malloc_r+0x3ae>
    2192:	2b00      	cmp	r3, #0
    2194:	db00      	blt.n	2198 <_malloc_r+0x160>
    2196:	e150      	b.n	243a <_malloc_r+0x402>
    2198:	68ff      	ldr	r7, [r7, #12]
    219a:	42b8      	cmp	r0, r7
    219c:	d100      	bne.n	21a0 <_malloc_r+0x168>
    219e:	e122      	b.n	23e6 <_malloc_r+0x3ae>
    21a0:	687a      	ldr	r2, [r7, #4]
    21a2:	4663      	mov	r3, ip
    21a4:	439a      	bics	r2, r3
    21a6:	1b13      	subs	r3, r2, r4
    21a8:	2b0f      	cmp	r3, #15
    21aa:	ddf2      	ble.n	2192 <_malloc_r+0x15a>
    21ac:	2001      	movs	r0, #1
    21ae:	193a      	adds	r2, r7, r4
    21b0:	4304      	orrs	r4, r0
    21b2:	68b9      	ldr	r1, [r7, #8]
    21b4:	607c      	str	r4, [r7, #4]
    21b6:	68fc      	ldr	r4, [r7, #12]
    21b8:	4318      	orrs	r0, r3
    21ba:	60cc      	str	r4, [r1, #12]
    21bc:	60a1      	str	r1, [r4, #8]
    21be:	616a      	str	r2, [r5, #20]
    21c0:	612a      	str	r2, [r5, #16]
    21c2:	3508      	adds	r5, #8
    21c4:	6050      	str	r0, [r2, #4]
    21c6:	60d5      	str	r5, [r2, #12]
    21c8:	1c30      	adds	r0, r6, #0
    21ca:	6095      	str	r5, [r2, #8]
    21cc:	50d3      	str	r3, [r2, r3]
    21ce:	f000 faa5 	bl	271c <__malloc_unlock>
    21d2:	1c38      	adds	r0, r7, #0
    21d4:	3008      	adds	r0, #8
    21d6:	e761      	b.n	209c <_malloc_r+0x64>
    21d8:	08e1      	lsrs	r1, r4, #3
    21da:	4688      	mov	r8, r1
    21dc:	0049      	lsls	r1, r1, #1
    21de:	e776      	b.n	20ce <_malloc_r+0x96>
    21e0:	2301      	movs	r3, #1
    21e2:	425b      	negs	r3, r3
    21e4:	4498      	add	r8, r3
    21e6:	e78c      	b.n	2102 <_malloc_r+0xca>
    21e8:	68bb      	ldr	r3, [r7, #8]
    21ea:	68f9      	ldr	r1, [r7, #12]
    21ec:	18ba      	adds	r2, r7, r2
    21ee:	6850      	ldr	r0, [r2, #4]
    21f0:	60d9      	str	r1, [r3, #12]
    21f2:	608b      	str	r3, [r1, #8]
    21f4:	2301      	movs	r3, #1
    21f6:	4303      	orrs	r3, r0
    21f8:	1c30      	adds	r0, r6, #0
    21fa:	6053      	str	r3, [r2, #4]
    21fc:	f000 fa8e 	bl	271c <__malloc_unlock>
    2200:	1c38      	adds	r0, r7, #0
    2202:	3008      	adds	r0, #8
    2204:	e74a      	b.n	209c <_malloc_r+0x64>
    2206:	183a      	adds	r2, r7, r0
    2208:	6851      	ldr	r1, [r2, #4]
    220a:	2301      	movs	r3, #1
    220c:	430b      	orrs	r3, r1
    220e:	e7f3      	b.n	21f8 <_malloc_r+0x1c0>
    2210:	68af      	ldr	r7, [r5, #8]
    2212:	2303      	movs	r3, #3
    2214:	6878      	ldr	r0, [r7, #4]
    2216:	4398      	bics	r0, r3
    2218:	4681      	mov	r9, r0
    221a:	4284      	cmp	r4, r0
    221c:	d803      	bhi.n	2226 <_malloc_r+0x1ee>
    221e:	1b03      	subs	r3, r0, r4
    2220:	2b0f      	cmp	r3, #15
    2222:	dd00      	ble.n	2226 <_malloc_r+0x1ee>
    2224:	e084      	b.n	2330 <_malloc_r+0x2f8>
    2226:	4649      	mov	r1, r9
    2228:	1879      	adds	r1, r7, r1
    222a:	4a51      	ldr	r2, [pc, #324]	; (2370 <_malloc_r+0x338>)
    222c:	9101      	str	r1, [sp, #4]
    222e:	4951      	ldr	r1, [pc, #324]	; (2374 <_malloc_r+0x33c>)
    2230:	6810      	ldr	r0, [r2, #0]
    2232:	4692      	mov	sl, r2
    2234:	688a      	ldr	r2, [r1, #8]
    2236:	1823      	adds	r3, r4, r0
    2238:	468b      	mov	fp, r1
    223a:	3201      	adds	r2, #1
    223c:	d100      	bne.n	2240 <_malloc_r+0x208>
    223e:	e13f      	b.n	24c0 <_malloc_r+0x488>
    2240:	484d      	ldr	r0, [pc, #308]	; (2378 <_malloc_r+0x340>)
    2242:	181b      	adds	r3, r3, r0
    2244:	0b1b      	lsrs	r3, r3, #12
    2246:	031b      	lsls	r3, r3, #12
    2248:	9300      	str	r3, [sp, #0]
    224a:	9900      	ldr	r1, [sp, #0]
    224c:	1c30      	adds	r0, r6, #0
    224e:	f7fe faab 	bl	7a8 <_sbrk_r>
    2252:	1c01      	adds	r1, r0, #0
    2254:	4680      	mov	r8, r0
    2256:	3101      	adds	r1, #1
    2258:	d05f      	beq.n	231a <_malloc_r+0x2e2>
    225a:	9a01      	ldr	r2, [sp, #4]
    225c:	4282      	cmp	r2, r0
    225e:	d900      	bls.n	2262 <_malloc_r+0x22a>
    2260:	e103      	b.n	246a <_malloc_r+0x432>
    2262:	4651      	mov	r1, sl
    2264:	9800      	ldr	r0, [sp, #0]
    2266:	6849      	ldr	r1, [r1, #4]
    2268:	4652      	mov	r2, sl
    226a:	1843      	adds	r3, r0, r1
    226c:	9801      	ldr	r0, [sp, #4]
    226e:	6053      	str	r3, [r2, #4]
    2270:	4540      	cmp	r0, r8
    2272:	d100      	bne.n	2276 <_malloc_r+0x23e>
    2274:	e132      	b.n	24dc <_malloc_r+0x4a4>
    2276:	465a      	mov	r2, fp
    2278:	6892      	ldr	r2, [r2, #8]
    227a:	3201      	adds	r2, #1
    227c:	d100      	bne.n	2280 <_malloc_r+0x248>
    227e:	e144      	b.n	250a <_malloc_r+0x4d2>
    2280:	9801      	ldr	r0, [sp, #4]
    2282:	4641      	mov	r1, r8
    2284:	1a0a      	subs	r2, r1, r0
    2286:	189b      	adds	r3, r3, r2
    2288:	4651      	mov	r1, sl
    228a:	604b      	str	r3, [r1, #4]
    228c:	2307      	movs	r3, #7
    228e:	4642      	mov	r2, r8
    2290:	4013      	ands	r3, r2
    2292:	d100      	bne.n	2296 <_malloc_r+0x25e>
    2294:	e0fb      	b.n	248e <_malloc_r+0x456>
    2296:	1ad2      	subs	r2, r2, r3
    2298:	3208      	adds	r2, #8
    229a:	4690      	mov	r8, r2
    229c:	4a37      	ldr	r2, [pc, #220]	; (237c <_malloc_r+0x344>)
    229e:	1ad3      	subs	r3, r2, r3
    22a0:	9800      	ldr	r0, [sp, #0]
    22a2:	1c02      	adds	r2, r0, #0
    22a4:	4442      	add	r2, r8
    22a6:	0512      	lsls	r2, r2, #20
    22a8:	0d12      	lsrs	r2, r2, #20
    22aa:	1a9a      	subs	r2, r3, r2
    22ac:	1c11      	adds	r1, r2, #0
    22ae:	1c30      	adds	r0, r6, #0
    22b0:	4693      	mov	fp, r2
    22b2:	f7fe fa79 	bl	7a8 <_sbrk_r>
    22b6:	1c41      	adds	r1, r0, #1
    22b8:	d100      	bne.n	22bc <_malloc_r+0x284>
    22ba:	e11a      	b.n	24f2 <_malloc_r+0x4ba>
    22bc:	4642      	mov	r2, r8
    22be:	1a80      	subs	r0, r0, r2
    22c0:	4458      	add	r0, fp
    22c2:	2301      	movs	r3, #1
    22c4:	4318      	orrs	r0, r3
    22c6:	4652      	mov	r2, sl
    22c8:	6851      	ldr	r1, [r2, #4]
    22ca:	1c0b      	adds	r3, r1, #0
    22cc:	445b      	add	r3, fp
    22ce:	4641      	mov	r1, r8
    22d0:	6053      	str	r3, [r2, #4]
    22d2:	60a9      	str	r1, [r5, #8]
    22d4:	6048      	str	r0, [r1, #4]
    22d6:	42af      	cmp	r7, r5
    22d8:	d013      	beq.n	2302 <_malloc_r+0x2ca>
    22da:	464a      	mov	r2, r9
    22dc:	2a0f      	cmp	r2, #15
    22de:	d800      	bhi.n	22e2 <_malloc_r+0x2aa>
    22e0:	e0e1      	b.n	24a6 <_malloc_r+0x46e>
    22e2:	464a      	mov	r2, r9
    22e4:	6878      	ldr	r0, [r7, #4]
    22e6:	2107      	movs	r1, #7
    22e8:	3a0c      	subs	r2, #12
    22ea:	438a      	bics	r2, r1
    22ec:	2101      	movs	r1, #1
    22ee:	4001      	ands	r1, r0
    22f0:	4311      	orrs	r1, r2
    22f2:	6079      	str	r1, [r7, #4]
    22f4:	2005      	movs	r0, #5
    22f6:	18b9      	adds	r1, r7, r2
    22f8:	6048      	str	r0, [r1, #4]
    22fa:	6088      	str	r0, [r1, #8]
    22fc:	2a0f      	cmp	r2, #15
    22fe:	d900      	bls.n	2302 <_malloc_r+0x2ca>
    2300:	e0fb      	b.n	24fa <_malloc_r+0x4c2>
    2302:	4652      	mov	r2, sl
    2304:	6ad2      	ldr	r2, [r2, #44]	; 0x2c
    2306:	4293      	cmp	r3, r2
    2308:	d901      	bls.n	230e <_malloc_r+0x2d6>
    230a:	4650      	mov	r0, sl
    230c:	62c3      	str	r3, [r0, #44]	; 0x2c
    230e:	4651      	mov	r1, sl
    2310:	6b09      	ldr	r1, [r1, #48]	; 0x30
    2312:	428b      	cmp	r3, r1
    2314:	d901      	bls.n	231a <_malloc_r+0x2e2>
    2316:	4652      	mov	r2, sl
    2318:	6313      	str	r3, [r2, #48]	; 0x30
    231a:	68af      	ldr	r7, [r5, #8]
    231c:	2303      	movs	r3, #3
    231e:	687a      	ldr	r2, [r7, #4]
    2320:	439a      	bics	r2, r3
    2322:	1b13      	subs	r3, r2, r4
    2324:	4294      	cmp	r4, r2
    2326:	d900      	bls.n	232a <_malloc_r+0x2f2>
    2328:	e0a3      	b.n	2472 <_malloc_r+0x43a>
    232a:	2b0f      	cmp	r3, #15
    232c:	dc00      	bgt.n	2330 <_malloc_r+0x2f8>
    232e:	e0a0      	b.n	2472 <_malloc_r+0x43a>
    2330:	2201      	movs	r2, #1
    2332:	1c21      	adds	r1, r4, #0
    2334:	4311      	orrs	r1, r2
    2336:	193c      	adds	r4, r7, r4
    2338:	4313      	orrs	r3, r2
    233a:	6079      	str	r1, [r7, #4]
    233c:	1c30      	adds	r0, r6, #0
    233e:	60ac      	str	r4, [r5, #8]
    2340:	6063      	str	r3, [r4, #4]
    2342:	f000 f9eb 	bl	271c <__malloc_unlock>
    2346:	1c38      	adds	r0, r7, #0
    2348:	3008      	adds	r0, #8
    234a:	e6a7      	b.n	209c <_malloc_r+0x64>
    234c:	2b14      	cmp	r3, #20
    234e:	d800      	bhi.n	2352 <_malloc_r+0x31a>
    2350:	e082      	b.n	2458 <_malloc_r+0x420>
    2352:	2b54      	cmp	r3, #84	; 0x54
    2354:	d900      	bls.n	2358 <_malloc_r+0x320>
    2356:	e091      	b.n	247c <_malloc_r+0x444>
    2358:	0b23      	lsrs	r3, r4, #12
    235a:	336e      	adds	r3, #110	; 0x6e
    235c:	4698      	mov	r8, r3
    235e:	0059      	lsls	r1, r3, #1
    2360:	e6b5      	b.n	20ce <_malloc_r+0x96>
    2362:	46c0      	nop			; (mov r8, r8)
    2364:	000001f7 	.word	0x000001f7
    2368:	10000574 	.word	0x10000574
    236c:	000001ff 	.word	0x000001ff
    2370:	100009b4 	.word	0x100009b4
    2374:	10000974 	.word	0x10000974
    2378:	0000100f 	.word	0x0000100f
    237c:	00001008 	.word	0x00001008
    2380:	0a43      	lsrs	r3, r0, #9
    2382:	2b04      	cmp	r3, #4
    2384:	d96c      	bls.n	2460 <_malloc_r+0x428>
    2386:	2b14      	cmp	r3, #20
    2388:	d900      	bls.n	238c <_malloc_r+0x354>
    238a:	e09c      	b.n	24c6 <_malloc_r+0x48e>
    238c:	335b      	adds	r3, #91	; 0x5b
    238e:	469a      	mov	sl, r3
    2390:	0058      	lsls	r0, r3, #1
    2392:	0080      	lsls	r0, r0, #2
    2394:	1940      	adds	r0, r0, r5
    2396:	6883      	ldr	r3, [r0, #8]
    2398:	4681      	mov	r9, r0
    239a:	2003      	movs	r0, #3
    239c:	4684      	mov	ip, r0
    239e:	454b      	cmp	r3, r9
    23a0:	d078      	beq.n	2494 <_malloc_r+0x45c>
    23a2:	6859      	ldr	r1, [r3, #4]
    23a4:	4660      	mov	r0, ip
    23a6:	4381      	bics	r1, r0
    23a8:	428a      	cmp	r2, r1
    23aa:	d202      	bcs.n	23b2 <_malloc_r+0x37a>
    23ac:	689b      	ldr	r3, [r3, #8]
    23ae:	4599      	cmp	r9, r3
    23b0:	d1f7      	bne.n	23a2 <_malloc_r+0x36a>
    23b2:	68da      	ldr	r2, [r3, #12]
    23b4:	6868      	ldr	r0, [r5, #4]
    23b6:	60fa      	str	r2, [r7, #12]
    23b8:	60bb      	str	r3, [r7, #8]
    23ba:	60df      	str	r7, [r3, #12]
    23bc:	6097      	str	r7, [r2, #8]
    23be:	e6c6      	b.n	214e <_malloc_r+0x116>
    23c0:	2001      	movs	r0, #1
    23c2:	193a      	adds	r2, r7, r4
    23c4:	4304      	orrs	r4, r0
    23c6:	4308      	orrs	r0, r1
    23c8:	607c      	str	r4, [r7, #4]
    23ca:	616a      	str	r2, [r5, #20]
    23cc:	612a      	str	r2, [r5, #16]
    23ce:	6050      	str	r0, [r2, #4]
    23d0:	60d3      	str	r3, [r2, #12]
    23d2:	1c30      	adds	r0, r6, #0
    23d4:	6093      	str	r3, [r2, #8]
    23d6:	5051      	str	r1, [r2, r1]
    23d8:	f000 f9a0 	bl	271c <__malloc_unlock>
    23dc:	1c38      	adds	r0, r7, #0
    23de:	3008      	adds	r0, #8
    23e0:	e65c      	b.n	209c <_malloc_r+0x64>
    23e2:	6868      	ldr	r0, [r5, #4]
    23e4:	e6b3      	b.n	214e <_malloc_r+0x116>
    23e6:	2201      	movs	r2, #1
    23e8:	4491      	add	r9, r2
    23ea:	4663      	mov	r3, ip
    23ec:	464a      	mov	r2, r9
    23ee:	3008      	adds	r0, #8
    23f0:	4213      	tst	r3, r2
    23f2:	d000      	beq.n	23f6 <_malloc_r+0x3be>
    23f4:	e6c9      	b.n	218a <_malloc_r+0x152>
    23f6:	4652      	mov	r2, sl
    23f8:	4643      	mov	r3, r8
    23fa:	4660      	mov	r0, ip
    23fc:	4218      	tst	r0, r3
    23fe:	d100      	bne.n	2402 <_malloc_r+0x3ca>
    2400:	e098      	b.n	2534 <_malloc_r+0x4fc>
    2402:	1c10      	adds	r0, r2, #0
    2404:	6812      	ldr	r2, [r2, #0]
    2406:	3808      	subs	r0, #8
    2408:	3b01      	subs	r3, #1
    240a:	4282      	cmp	r2, r0
    240c:	d0f5      	beq.n	23fa <_malloc_r+0x3c2>
    240e:	686b      	ldr	r3, [r5, #4]
    2410:	0049      	lsls	r1, r1, #1
    2412:	4299      	cmp	r1, r3
    2414:	d900      	bls.n	2418 <_malloc_r+0x3e0>
    2416:	e6fb      	b.n	2210 <_malloc_r+0x1d8>
    2418:	2900      	cmp	r1, #0
    241a:	d100      	bne.n	241e <_malloc_r+0x3e6>
    241c:	e6f8      	b.n	2210 <_malloc_r+0x1d8>
    241e:	4219      	tst	r1, r3
    2420:	d100      	bne.n	2424 <_malloc_r+0x3ec>
    2422:	e08b      	b.n	253c <_malloc_r+0x504>
    2424:	46c8      	mov	r8, r9
    2426:	e6aa      	b.n	217e <_malloc_r+0x146>
    2428:	1c3b      	adds	r3, r7, #0
    242a:	697f      	ldr	r7, [r7, #20]
    242c:	3202      	adds	r2, #2
    242e:	3308      	adds	r3, #8
    2430:	4690      	mov	r8, r2
    2432:	42bb      	cmp	r3, r7
    2434:	d100      	bne.n	2438 <_malloc_r+0x400>
    2436:	e666      	b.n	2106 <_malloc_r+0xce>
    2438:	e61f      	b.n	207a <_malloc_r+0x42>
    243a:	18ba      	adds	r2, r7, r2
    243c:	6850      	ldr	r0, [r2, #4]
    243e:	2301      	movs	r3, #1
    2440:	4303      	orrs	r3, r0
    2442:	6053      	str	r3, [r2, #4]
    2444:	68fa      	ldr	r2, [r7, #12]
    2446:	68bb      	ldr	r3, [r7, #8]
    2448:	1c30      	adds	r0, r6, #0
    244a:	60da      	str	r2, [r3, #12]
    244c:	6093      	str	r3, [r2, #8]
    244e:	f000 f965 	bl	271c <__malloc_unlock>
    2452:	1c38      	adds	r0, r7, #0
    2454:	3008      	adds	r0, #8
    2456:	e621      	b.n	209c <_malloc_r+0x64>
    2458:	335b      	adds	r3, #91	; 0x5b
    245a:	4698      	mov	r8, r3
    245c:	0059      	lsls	r1, r3, #1
    245e:	e636      	b.n	20ce <_malloc_r+0x96>
    2460:	0981      	lsrs	r1, r0, #6
    2462:	3138      	adds	r1, #56	; 0x38
    2464:	468a      	mov	sl, r1
    2466:	0048      	lsls	r0, r1, #1
    2468:	e793      	b.n	2392 <_malloc_r+0x35a>
    246a:	42af      	cmp	r7, r5
    246c:	d000      	beq.n	2470 <_malloc_r+0x438>
    246e:	e754      	b.n	231a <_malloc_r+0x2e2>
    2470:	e6f7      	b.n	2262 <_malloc_r+0x22a>
    2472:	1c30      	adds	r0, r6, #0
    2474:	f000 f952 	bl	271c <__malloc_unlock>
    2478:	2000      	movs	r0, #0
    247a:	e60f      	b.n	209c <_malloc_r+0x64>
    247c:	22aa      	movs	r2, #170	; 0xaa
    247e:	0052      	lsls	r2, r2, #1
    2480:	4293      	cmp	r3, r2
    2482:	d815      	bhi.n	24b0 <_malloc_r+0x478>
    2484:	0be3      	lsrs	r3, r4, #15
    2486:	3377      	adds	r3, #119	; 0x77
    2488:	4698      	mov	r8, r3
    248a:	0059      	lsls	r1, r3, #1
    248c:	e61f      	b.n	20ce <_malloc_r+0x96>
    248e:	2380      	movs	r3, #128	; 0x80
    2490:	015b      	lsls	r3, r3, #5
    2492:	e705      	b.n	22a0 <_malloc_r+0x268>
    2494:	4652      	mov	r2, sl
    2496:	1091      	asrs	r1, r2, #2
    2498:	2001      	movs	r0, #1
    249a:	4088      	lsls	r0, r1
    249c:	6869      	ldr	r1, [r5, #4]
    249e:	1c1a      	adds	r2, r3, #0
    24a0:	4308      	orrs	r0, r1
    24a2:	6068      	str	r0, [r5, #4]
    24a4:	e787      	b.n	23b6 <_malloc_r+0x37e>
    24a6:	2301      	movs	r3, #1
    24a8:	604b      	str	r3, [r1, #4]
    24aa:	4647      	mov	r7, r8
    24ac:	2200      	movs	r2, #0
    24ae:	e738      	b.n	2322 <_malloc_r+0x2ea>
    24b0:	4a26      	ldr	r2, [pc, #152]	; (254c <_malloc_r+0x514>)
    24b2:	4293      	cmp	r3, r2
    24b4:	d80e      	bhi.n	24d4 <_malloc_r+0x49c>
    24b6:	0ca3      	lsrs	r3, r4, #18
    24b8:	337c      	adds	r3, #124	; 0x7c
    24ba:	4698      	mov	r8, r3
    24bc:	0059      	lsls	r1, r3, #1
    24be:	e606      	b.n	20ce <_malloc_r+0x96>
    24c0:	3310      	adds	r3, #16
    24c2:	9300      	str	r3, [sp, #0]
    24c4:	e6c1      	b.n	224a <_malloc_r+0x212>
    24c6:	2b54      	cmp	r3, #84	; 0x54
    24c8:	d823      	bhi.n	2512 <_malloc_r+0x4da>
    24ca:	0b01      	lsrs	r1, r0, #12
    24cc:	316e      	adds	r1, #110	; 0x6e
    24ce:	468a      	mov	sl, r1
    24d0:	0048      	lsls	r0, r1, #1
    24d2:	e75e      	b.n	2392 <_malloc_r+0x35a>
    24d4:	227e      	movs	r2, #126	; 0x7e
    24d6:	21fc      	movs	r1, #252	; 0xfc
    24d8:	4690      	mov	r8, r2
    24da:	e5f8      	b.n	20ce <_malloc_r+0x96>
    24dc:	0502      	lsls	r2, r0, #20
    24de:	d000      	beq.n	24e2 <_malloc_r+0x4aa>
    24e0:	e6c9      	b.n	2276 <_malloc_r+0x23e>
    24e2:	9900      	ldr	r1, [sp, #0]
    24e4:	68aa      	ldr	r2, [r5, #8]
    24e6:	1c08      	adds	r0, r1, #0
    24e8:	4448      	add	r0, r9
    24ea:	2101      	movs	r1, #1
    24ec:	4301      	orrs	r1, r0
    24ee:	6051      	str	r1, [r2, #4]
    24f0:	e707      	b.n	2302 <_malloc_r+0x2ca>
    24f2:	2300      	movs	r3, #0
    24f4:	2001      	movs	r0, #1
    24f6:	469b      	mov	fp, r3
    24f8:	e6e5      	b.n	22c6 <_malloc_r+0x28e>
    24fa:	1c39      	adds	r1, r7, #0
    24fc:	3108      	adds	r1, #8
    24fe:	1c30      	adds	r0, r6, #0
    2500:	f7ff fa48 	bl	1994 <_free_r>
    2504:	4651      	mov	r1, sl
    2506:	684b      	ldr	r3, [r1, #4]
    2508:	e6fb      	b.n	2302 <_malloc_r+0x2ca>
    250a:	4643      	mov	r3, r8
    250c:	4658      	mov	r0, fp
    250e:	6083      	str	r3, [r0, #8]
    2510:	e6bc      	b.n	228c <_malloc_r+0x254>
    2512:	21aa      	movs	r1, #170	; 0xaa
    2514:	0049      	lsls	r1, r1, #1
    2516:	428b      	cmp	r3, r1
    2518:	d804      	bhi.n	2524 <_malloc_r+0x4ec>
    251a:	0bc1      	lsrs	r1, r0, #15
    251c:	3177      	adds	r1, #119	; 0x77
    251e:	468a      	mov	sl, r1
    2520:	0048      	lsls	r0, r1, #1
    2522:	e736      	b.n	2392 <_malloc_r+0x35a>
    2524:	4909      	ldr	r1, [pc, #36]	; (254c <_malloc_r+0x514>)
    2526:	428b      	cmp	r3, r1
    2528:	d80c      	bhi.n	2544 <_malloc_r+0x50c>
    252a:	0c81      	lsrs	r1, r0, #18
    252c:	317c      	adds	r1, #124	; 0x7c
    252e:	468a      	mov	sl, r1
    2530:	0048      	lsls	r0, r1, #1
    2532:	e72e      	b.n	2392 <_malloc_r+0x35a>
    2534:	686b      	ldr	r3, [r5, #4]
    2536:	438b      	bics	r3, r1
    2538:	606b      	str	r3, [r5, #4]
    253a:	e769      	b.n	2410 <_malloc_r+0x3d8>
    253c:	2204      	movs	r2, #4
    253e:	4491      	add	r9, r2
    2540:	0049      	lsls	r1, r1, #1
    2542:	e76c      	b.n	241e <_malloc_r+0x3e6>
    2544:	217e      	movs	r1, #126	; 0x7e
    2546:	20fc      	movs	r0, #252	; 0xfc
    2548:	468a      	mov	sl, r1
    254a:	e722      	b.n	2392 <_malloc_r+0x35a>
    254c:	00000554 	.word	0x00000554

00002550 <memchr>:
    2550:	b5f0      	push	{r4, r5, r6, r7, lr}
    2552:	b2cc      	uxtb	r4, r1
    2554:	0783      	lsls	r3, r0, #30
    2556:	d03d      	beq.n	25d4 <memchr+0x84>
    2558:	1e53      	subs	r3, r2, #1
    255a:	2a00      	cmp	r2, #0
    255c:	d01f      	beq.n	259e <memchr+0x4e>
    255e:	7802      	ldrb	r2, [r0, #0]
    2560:	42a2      	cmp	r2, r4
    2562:	d01d      	beq.n	25a0 <memchr+0x50>
    2564:	2503      	movs	r5, #3
    2566:	e005      	b.n	2574 <memchr+0x24>
    2568:	2b00      	cmp	r3, #0
    256a:	d018      	beq.n	259e <memchr+0x4e>
    256c:	7802      	ldrb	r2, [r0, #0]
    256e:	3b01      	subs	r3, #1
    2570:	42a2      	cmp	r2, r4
    2572:	d015      	beq.n	25a0 <memchr+0x50>
    2574:	3001      	adds	r0, #1
    2576:	4228      	tst	r0, r5
    2578:	d1f6      	bne.n	2568 <memchr+0x18>
    257a:	2b03      	cmp	r3, #3
    257c:	d811      	bhi.n	25a2 <memchr+0x52>
    257e:	2b00      	cmp	r3, #0
    2580:	d00d      	beq.n	259e <memchr+0x4e>
    2582:	7802      	ldrb	r2, [r0, #0]
    2584:	42a2      	cmp	r2, r4
    2586:	d00b      	beq.n	25a0 <memchr+0x50>
    2588:	1c42      	adds	r2, r0, #1
    258a:	18c3      	adds	r3, r0, r3
    258c:	e004      	b.n	2598 <memchr+0x48>
    258e:	3201      	adds	r2, #1
    2590:	1e51      	subs	r1, r2, #1
    2592:	7809      	ldrb	r1, [r1, #0]
    2594:	42a1      	cmp	r1, r4
    2596:	d003      	beq.n	25a0 <memchr+0x50>
    2598:	1c10      	adds	r0, r2, #0
    259a:	429a      	cmp	r2, r3
    259c:	d1f7      	bne.n	258e <memchr+0x3e>
    259e:	2000      	movs	r0, #0
    25a0:	bdf0      	pop	{r4, r5, r6, r7, pc}
    25a2:	27ff      	movs	r7, #255	; 0xff
    25a4:	4039      	ands	r1, r7
    25a6:	020f      	lsls	r7, r1, #8
    25a8:	4339      	orrs	r1, r7
    25aa:	4d0b      	ldr	r5, [pc, #44]	; (25d8 <memchr+0x88>)
    25ac:	040f      	lsls	r7, r1, #16
    25ae:	430f      	orrs	r7, r1
    25b0:	46ac      	mov	ip, r5
    25b2:	1c01      	adds	r1, r0, #0
    25b4:	680a      	ldr	r2, [r1, #0]
    25b6:	4e09      	ldr	r6, [pc, #36]	; (25dc <memchr+0x8c>)
    25b8:	407a      	eors	r2, r7
    25ba:	1995      	adds	r5, r2, r6
    25bc:	4395      	bics	r5, r2
    25be:	1c2a      	adds	r2, r5, #0
    25c0:	4665      	mov	r5, ip
    25c2:	3004      	adds	r0, #4
    25c4:	422a      	tst	r2, r5
    25c6:	d103      	bne.n	25d0 <memchr+0x80>
    25c8:	3b04      	subs	r3, #4
    25ca:	2b03      	cmp	r3, #3
    25cc:	d8f1      	bhi.n	25b2 <memchr+0x62>
    25ce:	e7d6      	b.n	257e <memchr+0x2e>
    25d0:	1c08      	adds	r0, r1, #0
    25d2:	e7d4      	b.n	257e <memchr+0x2e>
    25d4:	1c13      	adds	r3, r2, #0
    25d6:	e7d0      	b.n	257a <memchr+0x2a>
    25d8:	80808080 	.word	0x80808080
    25dc:	fefefeff 	.word	0xfefefeff

000025e0 <memcpy>:
    25e0:	b5f0      	push	{r4, r5, r6, r7, lr}
    25e2:	2a0f      	cmp	r2, #15
    25e4:	d938      	bls.n	2658 <memcpy+0x78>
    25e6:	1c0b      	adds	r3, r1, #0
    25e8:	4303      	orrs	r3, r0
    25ea:	079c      	lsls	r4, r3, #30
    25ec:	d139      	bne.n	2662 <memcpy+0x82>
    25ee:	1c13      	adds	r3, r2, #0
    25f0:	3b10      	subs	r3, #16
    25f2:	091b      	lsrs	r3, r3, #4
    25f4:	3301      	adds	r3, #1
    25f6:	011b      	lsls	r3, r3, #4
    25f8:	18cc      	adds	r4, r1, r3
    25fa:	1c05      	adds	r5, r0, #0
    25fc:	680e      	ldr	r6, [r1, #0]
    25fe:	602e      	str	r6, [r5, #0]
    2600:	684e      	ldr	r6, [r1, #4]
    2602:	606e      	str	r6, [r5, #4]
    2604:	688e      	ldr	r6, [r1, #8]
    2606:	60ae      	str	r6, [r5, #8]
    2608:	68ce      	ldr	r6, [r1, #12]
    260a:	3110      	adds	r1, #16
    260c:	60ee      	str	r6, [r5, #12]
    260e:	3510      	adds	r5, #16
    2610:	428c      	cmp	r4, r1
    2612:	d1f3      	bne.n	25fc <memcpy+0x1c>
    2614:	250f      	movs	r5, #15
    2616:	18c3      	adds	r3, r0, r3
    2618:	4015      	ands	r5, r2
    261a:	2d03      	cmp	r5, #3
    261c:	d924      	bls.n	2668 <memcpy+0x88>
    261e:	3d04      	subs	r5, #4
    2620:	08ad      	lsrs	r5, r5, #2
    2622:	00af      	lsls	r7, r5, #2
    2624:	3704      	adds	r7, #4
    2626:	46ac      	mov	ip, r5
    2628:	1c21      	adds	r1, r4, #0
    262a:	19e7      	adds	r7, r4, r7
    262c:	1c1d      	adds	r5, r3, #0
    262e:	c940      	ldmia	r1!, {r6}
    2630:	c540      	stmia	r5!, {r6}
    2632:	42b9      	cmp	r1, r7
    2634:	d1fb      	bne.n	262e <memcpy+0x4e>
    2636:	4661      	mov	r1, ip
    2638:	3101      	adds	r1, #1
    263a:	0089      	lsls	r1, r1, #2
    263c:	2503      	movs	r5, #3
    263e:	402a      	ands	r2, r5
    2640:	1864      	adds	r4, r4, r1
    2642:	185b      	adds	r3, r3, r1
    2644:	2a00      	cmp	r2, #0
    2646:	d006      	beq.n	2656 <memcpy+0x76>
    2648:	189a      	adds	r2, r3, r2
    264a:	7821      	ldrb	r1, [r4, #0]
    264c:	3401      	adds	r4, #1
    264e:	7019      	strb	r1, [r3, #0]
    2650:	3301      	adds	r3, #1
    2652:	4293      	cmp	r3, r2
    2654:	d1f9      	bne.n	264a <memcpy+0x6a>
    2656:	bdf0      	pop	{r4, r5, r6, r7, pc}
    2658:	1c0c      	adds	r4, r1, #0
    265a:	1c03      	adds	r3, r0, #0
    265c:	2a00      	cmp	r2, #0
    265e:	d1f3      	bne.n	2648 <memcpy+0x68>
    2660:	e7f9      	b.n	2656 <memcpy+0x76>
    2662:	1c03      	adds	r3, r0, #0
    2664:	1c0c      	adds	r4, r1, #0
    2666:	e7ef      	b.n	2648 <memcpy+0x68>
    2668:	1c2a      	adds	r2, r5, #0
    266a:	e7f7      	b.n	265c <memcpy+0x7c>

0000266c <memmove>:
    266c:	b5f0      	push	{r4, r5, r6, r7, lr}
    266e:	4288      	cmp	r0, r1
    2670:	d90e      	bls.n	2690 <memmove+0x24>
    2672:	188d      	adds	r5, r1, r2
    2674:	42a8      	cmp	r0, r5
    2676:	d20b      	bcs.n	2690 <memmove+0x24>
    2678:	1886      	adds	r6, r0, r2
    267a:	1e53      	subs	r3, r2, #1
    267c:	4251      	negs	r1, r2
    267e:	2a00      	cmp	r2, #0
    2680:	d005      	beq.n	268e <memmove+0x22>
    2682:	186a      	adds	r2, r5, r1
    2684:	5cd4      	ldrb	r4, [r2, r3]
    2686:	1872      	adds	r2, r6, r1
    2688:	54d4      	strb	r4, [r2, r3]
    268a:	3b01      	subs	r3, #1
    268c:	d2f9      	bcs.n	2682 <memmove+0x16>
    268e:	bdf0      	pop	{r4, r5, r6, r7, pc}
    2690:	2a0f      	cmp	r2, #15
    2692:	d80b      	bhi.n	26ac <memmove+0x40>
    2694:	1c0c      	adds	r4, r1, #0
    2696:	1c03      	adds	r3, r0, #0
    2698:	2a00      	cmp	r2, #0
    269a:	d0f8      	beq.n	268e <memmove+0x22>
    269c:	189a      	adds	r2, r3, r2
    269e:	7821      	ldrb	r1, [r4, #0]
    26a0:	3401      	adds	r4, #1
    26a2:	7019      	strb	r1, [r3, #0]
    26a4:	3301      	adds	r3, #1
    26a6:	4293      	cmp	r3, r2
    26a8:	d1f9      	bne.n	269e <memmove+0x32>
    26aa:	e7f0      	b.n	268e <memmove+0x22>
    26ac:	1c0b      	adds	r3, r1, #0
    26ae:	4303      	orrs	r3, r0
    26b0:	079c      	lsls	r4, r3, #30
    26b2:	d12b      	bne.n	270c <memmove+0xa0>
    26b4:	1c13      	adds	r3, r2, #0
    26b6:	3b10      	subs	r3, #16
    26b8:	091b      	lsrs	r3, r3, #4
    26ba:	3301      	adds	r3, #1
    26bc:	011b      	lsls	r3, r3, #4
    26be:	18cc      	adds	r4, r1, r3
    26c0:	1c05      	adds	r5, r0, #0
    26c2:	680e      	ldr	r6, [r1, #0]
    26c4:	602e      	str	r6, [r5, #0]
    26c6:	684e      	ldr	r6, [r1, #4]
    26c8:	606e      	str	r6, [r5, #4]
    26ca:	688e      	ldr	r6, [r1, #8]
    26cc:	60ae      	str	r6, [r5, #8]
    26ce:	68ce      	ldr	r6, [r1, #12]
    26d0:	3110      	adds	r1, #16
    26d2:	60ee      	str	r6, [r5, #12]
    26d4:	3510      	adds	r5, #16
    26d6:	428c      	cmp	r4, r1
    26d8:	d1f3      	bne.n	26c2 <memmove+0x56>
    26da:	250f      	movs	r5, #15
    26dc:	18c3      	adds	r3, r0, r3
    26de:	4015      	ands	r5, r2
    26e0:	2d03      	cmp	r5, #3
    26e2:	d916      	bls.n	2712 <memmove+0xa6>
    26e4:	3d04      	subs	r5, #4
    26e6:	08ad      	lsrs	r5, r5, #2
    26e8:	00af      	lsls	r7, r5, #2
    26ea:	3704      	adds	r7, #4
    26ec:	46ac      	mov	ip, r5
    26ee:	1c21      	adds	r1, r4, #0
    26f0:	19e7      	adds	r7, r4, r7
    26f2:	1c1d      	adds	r5, r3, #0
    26f4:	c940      	ldmia	r1!, {r6}
    26f6:	c540      	stmia	r5!, {r6}
    26f8:	42b9      	cmp	r1, r7
    26fa:	d1fb      	bne.n	26f4 <memmove+0x88>
    26fc:	4661      	mov	r1, ip
    26fe:	3101      	adds	r1, #1
    2700:	0089      	lsls	r1, r1, #2
    2702:	2503      	movs	r5, #3
    2704:	402a      	ands	r2, r5
    2706:	1864      	adds	r4, r4, r1
    2708:	185b      	adds	r3, r3, r1
    270a:	e7c5      	b.n	2698 <memmove+0x2c>
    270c:	1c03      	adds	r3, r0, #0
    270e:	1c0c      	adds	r4, r1, #0
    2710:	e7c4      	b.n	269c <memmove+0x30>
    2712:	1c2a      	adds	r2, r5, #0
    2714:	e7c0      	b.n	2698 <memmove+0x2c>
    2716:	46c0      	nop			; (mov r8, r8)

00002718 <__malloc_lock>:
    2718:	4770      	bx	lr
    271a:	46c0      	nop			; (mov r8, r8)

0000271c <__malloc_unlock>:
    271c:	4770      	bx	lr
    271e:	46c0      	nop			; (mov r8, r8)

00002720 <_realloc_r>:
    2720:	b5f0      	push	{r4, r5, r6, r7, lr}
    2722:	465f      	mov	r7, fp
    2724:	4644      	mov	r4, r8
    2726:	4656      	mov	r6, sl
    2728:	464d      	mov	r5, r9
    272a:	b4f0      	push	{r4, r5, r6, r7}
    272c:	4693      	mov	fp, r2
    272e:	b085      	sub	sp, #20
    2730:	1c07      	adds	r7, r0, #0
    2732:	1c0c      	adds	r4, r1, #0
    2734:	2900      	cmp	r1, #0
    2736:	d100      	bne.n	273a <_realloc_r+0x1a>
    2738:	e101      	b.n	293e <_realloc_r+0x21e>
    273a:	1c26      	adds	r6, r4, #0
    273c:	3e08      	subs	r6, #8
    273e:	f7ff ffeb 	bl	2718 <__malloc_lock>
    2742:	6873      	ldr	r3, [r6, #4]
    2744:	2203      	movs	r2, #3
    2746:	1c18      	adds	r0, r3, #0
    2748:	465d      	mov	r5, fp
    274a:	4390      	bics	r0, r2
    274c:	350b      	adds	r5, #11
    274e:	4680      	mov	r8, r0
    2750:	2d16      	cmp	r5, #22
    2752:	d865      	bhi.n	2820 <_realloc_r+0x100>
    2754:	2110      	movs	r1, #16
    2756:	2200      	movs	r2, #0
    2758:	9101      	str	r1, [sp, #4]
    275a:	2510      	movs	r5, #16
    275c:	455d      	cmp	r5, fp
    275e:	d200      	bcs.n	2762 <_realloc_r+0x42>
    2760:	e0f2      	b.n	2948 <_realloc_r+0x228>
    2762:	2a00      	cmp	r2, #0
    2764:	d000      	beq.n	2768 <_realloc_r+0x48>
    2766:	e0ef      	b.n	2948 <_realloc_r+0x228>
    2768:	9801      	ldr	r0, [sp, #4]
    276a:	4580      	cmp	r8, r0
    276c:	da5d      	bge.n	282a <_realloc_r+0x10a>
    276e:	48d3      	ldr	r0, [pc, #844]	; (2abc <_realloc_r+0x39c>)
    2770:	4641      	mov	r1, r8
    2772:	6880      	ldr	r0, [r0, #8]
    2774:	1872      	adds	r2, r6, r1
    2776:	9002      	str	r0, [sp, #8]
    2778:	4290      	cmp	r0, r2
    277a:	d100      	bne.n	277e <_realloc_r+0x5e>
    277c:	e0e9      	b.n	2952 <_realloc_r+0x232>
    277e:	6851      	ldr	r1, [r2, #4]
    2780:	2001      	movs	r0, #1
    2782:	468a      	mov	sl, r1
    2784:	4381      	bics	r1, r0
    2786:	4689      	mov	r9, r1
    2788:	4491      	add	r9, r2
    278a:	4684      	mov	ip, r0
    278c:	4648      	mov	r0, r9
    278e:	6841      	ldr	r1, [r0, #4]
    2790:	4660      	mov	r0, ip
    2792:	4201      	tst	r1, r0
    2794:	d062      	beq.n	285c <_realloc_r+0x13c>
    2796:	2100      	movs	r1, #0
    2798:	468c      	mov	ip, r1
    279a:	2200      	movs	r2, #0
    279c:	07d9      	lsls	r1, r3, #31
    279e:	d500      	bpl.n	27a2 <_realloc_r+0x82>
    27a0:	e07b      	b.n	289a <_realloc_r+0x17a>
    27a2:	6833      	ldr	r3, [r6, #0]
    27a4:	1af3      	subs	r3, r6, r3
    27a6:	469a      	mov	sl, r3
    27a8:	4651      	mov	r1, sl
    27aa:	6848      	ldr	r0, [r1, #4]
    27ac:	2303      	movs	r3, #3
    27ae:	4398      	bics	r0, r3
    27b0:	1c03      	adds	r3, r0, #0
    27b2:	2a00      	cmp	r2, #0
    27b4:	d100      	bne.n	27b8 <_realloc_r+0x98>
    27b6:	e097      	b.n	28e8 <_realloc_r+0x1c8>
    27b8:	9802      	ldr	r0, [sp, #8]
    27ba:	4443      	add	r3, r8
    27bc:	4282      	cmp	r2, r0
    27be:	d100      	bne.n	27c2 <_realloc_r+0xa2>
    27c0:	e100      	b.n	29c4 <_realloc_r+0x2a4>
    27c2:	4699      	mov	r9, r3
    27c4:	9302      	str	r3, [sp, #8]
    27c6:	9b01      	ldr	r3, [sp, #4]
    27c8:	44e1      	add	r9, ip
    27ca:	4599      	cmp	r9, r3
    27cc:	da00      	bge.n	27d0 <_realloc_r+0xb0>
    27ce:	e08d      	b.n	28ec <_realloc_r+0x1cc>
    27d0:	6893      	ldr	r3, [r2, #8]
    27d2:	68d1      	ldr	r1, [r2, #12]
    27d4:	4650      	mov	r0, sl
    27d6:	60d9      	str	r1, [r3, #12]
    27d8:	608b      	str	r3, [r1, #8]
    27da:	68c2      	ldr	r2, [r0, #12]
    27dc:	6883      	ldr	r3, [r0, #8]
    27de:	4656      	mov	r6, sl
    27e0:	60da      	str	r2, [r3, #12]
    27e2:	6093      	str	r3, [r2, #8]
    27e4:	4642      	mov	r2, r8
    27e6:	3a04      	subs	r2, #4
    27e8:	3608      	adds	r6, #8
    27ea:	2a24      	cmp	r2, #36	; 0x24
    27ec:	d900      	bls.n	27f0 <_realloc_r+0xd0>
    27ee:	e134      	b.n	2a5a <_realloc_r+0x33a>
    27f0:	1c33      	adds	r3, r6, #0
    27f2:	2a13      	cmp	r2, #19
    27f4:	d909      	bls.n	280a <_realloc_r+0xea>
    27f6:	6821      	ldr	r1, [r4, #0]
    27f8:	6081      	str	r1, [r0, #8]
    27fa:	6863      	ldr	r3, [r4, #4]
    27fc:	60c3      	str	r3, [r0, #12]
    27fe:	2a1b      	cmp	r2, #27
    2800:	d900      	bls.n	2804 <_realloc_r+0xe4>
    2802:	e133      	b.n	2a6c <_realloc_r+0x34c>
    2804:	4653      	mov	r3, sl
    2806:	3310      	adds	r3, #16
    2808:	3408      	adds	r4, #8
    280a:	6820      	ldr	r0, [r4, #0]
    280c:	4652      	mov	r2, sl
    280e:	6018      	str	r0, [r3, #0]
    2810:	6861      	ldr	r1, [r4, #4]
    2812:	6059      	str	r1, [r3, #4]
    2814:	68a4      	ldr	r4, [r4, #8]
    2816:	609c      	str	r4, [r3, #8]
    2818:	6853      	ldr	r3, [r2, #4]
    281a:	1c34      	adds	r4, r6, #0
    281c:	4656      	mov	r6, sl
    281e:	e005      	b.n	282c <_realloc_r+0x10c>
    2820:	2207      	movs	r2, #7
    2822:	4395      	bics	r5, r2
    2824:	9501      	str	r5, [sp, #4]
    2826:	0fea      	lsrs	r2, r5, #31
    2828:	e798      	b.n	275c <_realloc_r+0x3c>
    282a:	46c1      	mov	r9, r8
    282c:	4649      	mov	r1, r9
    282e:	1b4a      	subs	r2, r1, r5
    2830:	2a0f      	cmp	r2, #15
    2832:	d821      	bhi.n	2878 <_realloc_r+0x158>
    2834:	2201      	movs	r2, #1
    2836:	4013      	ands	r3, r2
    2838:	430b      	orrs	r3, r1
    283a:	6073      	str	r3, [r6, #4]
    283c:	444e      	add	r6, r9
    283e:	6871      	ldr	r1, [r6, #4]
    2840:	430a      	orrs	r2, r1
    2842:	6072      	str	r2, [r6, #4]
    2844:	1c38      	adds	r0, r7, #0
    2846:	f7ff ff69 	bl	271c <__malloc_unlock>
    284a:	46a1      	mov	r9, r4
    284c:	4648      	mov	r0, r9
    284e:	b005      	add	sp, #20
    2850:	bc3c      	pop	{r2, r3, r4, r5}
    2852:	4690      	mov	r8, r2
    2854:	4699      	mov	r9, r3
    2856:	46a2      	mov	sl, r4
    2858:	46ab      	mov	fp, r5
    285a:	bdf0      	pop	{r4, r5, r6, r7, pc}
    285c:	2003      	movs	r0, #3
    285e:	4651      	mov	r1, sl
    2860:	4381      	bics	r1, r0
    2862:	4689      	mov	r9, r1
    2864:	9801      	ldr	r0, [sp, #4]
    2866:	44c1      	add	r9, r8
    2868:	468c      	mov	ip, r1
    286a:	4581      	cmp	r9, r0
    286c:	db96      	blt.n	279c <_realloc_r+0x7c>
    286e:	68d1      	ldr	r1, [r2, #12]
    2870:	6892      	ldr	r2, [r2, #8]
    2872:	60d1      	str	r1, [r2, #12]
    2874:	608a      	str	r2, [r1, #8]
    2876:	e7d9      	b.n	282c <_realloc_r+0x10c>
    2878:	2001      	movs	r0, #1
    287a:	4003      	ands	r3, r0
    287c:	1971      	adds	r1, r6, r5
    287e:	431d      	orrs	r5, r3
    2880:	1c13      	adds	r3, r2, #0
    2882:	4303      	orrs	r3, r0
    2884:	6075      	str	r5, [r6, #4]
    2886:	188a      	adds	r2, r1, r2
    2888:	604b      	str	r3, [r1, #4]
    288a:	6853      	ldr	r3, [r2, #4]
    288c:	3108      	adds	r1, #8
    288e:	4318      	orrs	r0, r3
    2890:	6050      	str	r0, [r2, #4]
    2892:	1c38      	adds	r0, r7, #0
    2894:	f7ff f87e 	bl	1994 <_free_r>
    2898:	e7d4      	b.n	2844 <_realloc_r+0x124>
    289a:	1c38      	adds	r0, r7, #0
    289c:	4659      	mov	r1, fp
    289e:	f7ff fbcb 	bl	2038 <_malloc_r>
    28a2:	4681      	mov	r9, r0
    28a4:	2800      	cmp	r0, #0
    28a6:	d01b      	beq.n	28e0 <_realloc_r+0x1c0>
    28a8:	6873      	ldr	r3, [r6, #4]
    28aa:	1c02      	adds	r2, r0, #0
    28ac:	2101      	movs	r1, #1
    28ae:	1c18      	adds	r0, r3, #0
    28b0:	4388      	bics	r0, r1
    28b2:	3a08      	subs	r2, #8
    28b4:	1831      	adds	r1, r6, r0
    28b6:	428a      	cmp	r2, r1
    28b8:	d100      	bne.n	28bc <_realloc_r+0x19c>
    28ba:	e0c8      	b.n	2a4e <_realloc_r+0x32e>
    28bc:	4642      	mov	r2, r8
    28be:	3a04      	subs	r2, #4
    28c0:	2a24      	cmp	r2, #36	; 0x24
    28c2:	d87a      	bhi.n	29ba <_realloc_r+0x29a>
    28c4:	2a13      	cmp	r2, #19
    28c6:	d851      	bhi.n	296c <_realloc_r+0x24c>
    28c8:	464b      	mov	r3, r9
    28ca:	1c22      	adds	r2, r4, #0
    28cc:	6811      	ldr	r1, [r2, #0]
    28ce:	6019      	str	r1, [r3, #0]
    28d0:	6850      	ldr	r0, [r2, #4]
    28d2:	6058      	str	r0, [r3, #4]
    28d4:	6892      	ldr	r2, [r2, #8]
    28d6:	609a      	str	r2, [r3, #8]
    28d8:	1c38      	adds	r0, r7, #0
    28da:	1c21      	adds	r1, r4, #0
    28dc:	f7ff f85a 	bl	1994 <_free_r>
    28e0:	1c38      	adds	r0, r7, #0
    28e2:	f7ff ff1b 	bl	271c <__malloc_unlock>
    28e6:	e7b1      	b.n	284c <_realloc_r+0x12c>
    28e8:	4443      	add	r3, r8
    28ea:	9302      	str	r3, [sp, #8]
    28ec:	9a02      	ldr	r2, [sp, #8]
    28ee:	9b01      	ldr	r3, [sp, #4]
    28f0:	429a      	cmp	r2, r3
    28f2:	dbd2      	blt.n	289a <_realloc_r+0x17a>
    28f4:	4650      	mov	r0, sl
    28f6:	68c2      	ldr	r2, [r0, #12]
    28f8:	6883      	ldr	r3, [r0, #8]
    28fa:	4656      	mov	r6, sl
    28fc:	60da      	str	r2, [r3, #12]
    28fe:	6093      	str	r3, [r2, #8]
    2900:	4642      	mov	r2, r8
    2902:	3a04      	subs	r2, #4
    2904:	3608      	adds	r6, #8
    2906:	2a24      	cmp	r2, #36	; 0x24
    2908:	d83c      	bhi.n	2984 <_realloc_r+0x264>
    290a:	1c33      	adds	r3, r6, #0
    290c:	2a13      	cmp	r2, #19
    290e:	d909      	bls.n	2924 <_realloc_r+0x204>
    2910:	6821      	ldr	r1, [r4, #0]
    2912:	6081      	str	r1, [r0, #8]
    2914:	6863      	ldr	r3, [r4, #4]
    2916:	60c3      	str	r3, [r0, #12]
    2918:	2a1b      	cmp	r2, #27
    291a:	d900      	bls.n	291e <_realloc_r+0x1fe>
    291c:	e0ba      	b.n	2a94 <_realloc_r+0x374>
    291e:	4653      	mov	r3, sl
    2920:	3310      	adds	r3, #16
    2922:	3408      	adds	r4, #8
    2924:	6820      	ldr	r0, [r4, #0]
    2926:	4652      	mov	r2, sl
    2928:	6018      	str	r0, [r3, #0]
    292a:	6861      	ldr	r1, [r4, #4]
    292c:	9802      	ldr	r0, [sp, #8]
    292e:	6059      	str	r1, [r3, #4]
    2930:	68a4      	ldr	r4, [r4, #8]
    2932:	4681      	mov	r9, r0
    2934:	609c      	str	r4, [r3, #8]
    2936:	6853      	ldr	r3, [r2, #4]
    2938:	1c34      	adds	r4, r6, #0
    293a:	4656      	mov	r6, sl
    293c:	e776      	b.n	282c <_realloc_r+0x10c>
    293e:	1c11      	adds	r1, r2, #0
    2940:	f7ff fb7a 	bl	2038 <_malloc_r>
    2944:	4681      	mov	r9, r0
    2946:	e781      	b.n	284c <_realloc_r+0x12c>
    2948:	230c      	movs	r3, #12
    294a:	2200      	movs	r2, #0
    294c:	603b      	str	r3, [r7, #0]
    294e:	4691      	mov	r9, r2
    2950:	e77c      	b.n	284c <_realloc_r+0x12c>
    2952:	9902      	ldr	r1, [sp, #8]
    2954:	2203      	movs	r2, #3
    2956:	6849      	ldr	r1, [r1, #4]
    2958:	4391      	bics	r1, r2
    295a:	1c0a      	adds	r2, r1, #0
    295c:	468c      	mov	ip, r1
    295e:	2110      	movs	r1, #16
    2960:	4442      	add	r2, r8
    2962:	1949      	adds	r1, r1, r5
    2964:	428a      	cmp	r2, r1
    2966:	da18      	bge.n	299a <_realloc_r+0x27a>
    2968:	9a02      	ldr	r2, [sp, #8]
    296a:	e717      	b.n	279c <_realloc_r+0x7c>
    296c:	6823      	ldr	r3, [r4, #0]
    296e:	4648      	mov	r0, r9
    2970:	6003      	str	r3, [r0, #0]
    2972:	6861      	ldr	r1, [r4, #4]
    2974:	6041      	str	r1, [r0, #4]
    2976:	2a1b      	cmp	r2, #27
    2978:	d85d      	bhi.n	2a36 <_realloc_r+0x316>
    297a:	464b      	mov	r3, r9
    297c:	1c22      	adds	r2, r4, #0
    297e:	3308      	adds	r3, #8
    2980:	3208      	adds	r2, #8
    2982:	e7a3      	b.n	28cc <_realloc_r+0x1ac>
    2984:	1c21      	adds	r1, r4, #0
    2986:	1c30      	adds	r0, r6, #0
    2988:	f7ff fe70 	bl	266c <memmove>
    298c:	9a02      	ldr	r2, [sp, #8]
    298e:	4651      	mov	r1, sl
    2990:	1c34      	adds	r4, r6, #0
    2992:	684b      	ldr	r3, [r1, #4]
    2994:	4691      	mov	r9, r2
    2996:	4656      	mov	r6, sl
    2998:	e748      	b.n	282c <_realloc_r+0x10c>
    299a:	4b48      	ldr	r3, [pc, #288]	; (2abc <_realloc_r+0x39c>)
    299c:	1971      	adds	r1, r6, r5
    299e:	6099      	str	r1, [r3, #8]
    29a0:	1b52      	subs	r2, r2, r5
    29a2:	2301      	movs	r3, #1
    29a4:	431a      	orrs	r2, r3
    29a6:	604a      	str	r2, [r1, #4]
    29a8:	6870      	ldr	r0, [r6, #4]
    29aa:	46a1      	mov	r9, r4
    29ac:	4003      	ands	r3, r0
    29ae:	431d      	orrs	r5, r3
    29b0:	6075      	str	r5, [r6, #4]
    29b2:	1c38      	adds	r0, r7, #0
    29b4:	f7ff feb2 	bl	271c <__malloc_unlock>
    29b8:	e748      	b.n	284c <_realloc_r+0x12c>
    29ba:	4648      	mov	r0, r9
    29bc:	1c21      	adds	r1, r4, #0
    29be:	f7ff fe55 	bl	266c <memmove>
    29c2:	e789      	b.n	28d8 <_realloc_r+0x1b8>
    29c4:	9302      	str	r3, [sp, #8]
    29c6:	4463      	add	r3, ip
    29c8:	1c1a      	adds	r2, r3, #0
    29ca:	9303      	str	r3, [sp, #12]
    29cc:	1c2b      	adds	r3, r5, #0
    29ce:	3310      	adds	r3, #16
    29d0:	429a      	cmp	r2, r3
    29d2:	db8b      	blt.n	28ec <_realloc_r+0x1cc>
    29d4:	4653      	mov	r3, sl
    29d6:	68da      	ldr	r2, [r3, #12]
    29d8:	689b      	ldr	r3, [r3, #8]
    29da:	2008      	movs	r0, #8
    29dc:	60da      	str	r2, [r3, #12]
    29de:	6093      	str	r3, [r2, #8]
    29e0:	4642      	mov	r2, r8
    29e2:	4681      	mov	r9, r0
    29e4:	3a04      	subs	r2, #4
    29e6:	44d1      	add	r9, sl
    29e8:	2a24      	cmp	r2, #36	; 0x24
    29ea:	d872      	bhi.n	2ad2 <_realloc_r+0x3b2>
    29ec:	464b      	mov	r3, r9
    29ee:	2a13      	cmp	r2, #19
    29f0:	d908      	bls.n	2a04 <_realloc_r+0x2e4>
    29f2:	6821      	ldr	r1, [r4, #0]
    29f4:	4653      	mov	r3, sl
    29f6:	6099      	str	r1, [r3, #8]
    29f8:	6860      	ldr	r0, [r4, #4]
    29fa:	60d8      	str	r0, [r3, #12]
    29fc:	2a1b      	cmp	r2, #27
    29fe:	d86d      	bhi.n	2adc <_realloc_r+0x3bc>
    2a00:	3310      	adds	r3, #16
    2a02:	3408      	adds	r4, #8
    2a04:	6820      	ldr	r0, [r4, #0]
    2a06:	6018      	str	r0, [r3, #0]
    2a08:	6861      	ldr	r1, [r4, #4]
    2a0a:	6059      	str	r1, [r3, #4]
    2a0c:	68a4      	ldr	r4, [r4, #8]
    2a0e:	609c      	str	r4, [r3, #8]
    2a10:	4653      	mov	r3, sl
    2a12:	195a      	adds	r2, r3, r5
    2a14:	9b03      	ldr	r3, [sp, #12]
    2a16:	4829      	ldr	r0, [pc, #164]	; (2abc <_realloc_r+0x39c>)
    2a18:	1b59      	subs	r1, r3, r5
    2a1a:	2301      	movs	r3, #1
    2a1c:	4319      	orrs	r1, r3
    2a1e:	6051      	str	r1, [r2, #4]
    2a20:	6082      	str	r2, [r0, #8]
    2a22:	4650      	mov	r0, sl
    2a24:	6840      	ldr	r0, [r0, #4]
    2a26:	4651      	mov	r1, sl
    2a28:	4003      	ands	r3, r0
    2a2a:	431d      	orrs	r5, r3
    2a2c:	604d      	str	r5, [r1, #4]
    2a2e:	1c38      	adds	r0, r7, #0
    2a30:	f7ff fe74 	bl	271c <__malloc_unlock>
    2a34:	e70a      	b.n	284c <_realloc_r+0x12c>
    2a36:	68a3      	ldr	r3, [r4, #8]
    2a38:	4648      	mov	r0, r9
    2a3a:	6083      	str	r3, [r0, #8]
    2a3c:	68e1      	ldr	r1, [r4, #12]
    2a3e:	60c1      	str	r1, [r0, #12]
    2a40:	2a24      	cmp	r2, #36	; 0x24
    2a42:	d01e      	beq.n	2a82 <_realloc_r+0x362>
    2a44:	464b      	mov	r3, r9
    2a46:	1c22      	adds	r2, r4, #0
    2a48:	3310      	adds	r3, #16
    2a4a:	3210      	adds	r2, #16
    2a4c:	e73e      	b.n	28cc <_realloc_r+0x1ac>
    2a4e:	6852      	ldr	r2, [r2, #4]
    2a50:	2103      	movs	r1, #3
    2a52:	438a      	bics	r2, r1
    2a54:	4691      	mov	r9, r2
    2a56:	44c1      	add	r9, r8
    2a58:	e6e8      	b.n	282c <_realloc_r+0x10c>
    2a5a:	1c30      	adds	r0, r6, #0
    2a5c:	1c21      	adds	r1, r4, #0
    2a5e:	f7ff fe05 	bl	266c <memmove>
    2a62:	4650      	mov	r0, sl
    2a64:	1c34      	adds	r4, r6, #0
    2a66:	6843      	ldr	r3, [r0, #4]
    2a68:	4656      	mov	r6, sl
    2a6a:	e6df      	b.n	282c <_realloc_r+0x10c>
    2a6c:	68a0      	ldr	r0, [r4, #8]
    2a6e:	4651      	mov	r1, sl
    2a70:	6108      	str	r0, [r1, #16]
    2a72:	68e3      	ldr	r3, [r4, #12]
    2a74:	614b      	str	r3, [r1, #20]
    2a76:	2a24      	cmp	r2, #36	; 0x24
    2a78:	d017      	beq.n	2aaa <_realloc_r+0x38a>
    2a7a:	4653      	mov	r3, sl
    2a7c:	3318      	adds	r3, #24
    2a7e:	3410      	adds	r4, #16
    2a80:	e6c3      	b.n	280a <_realloc_r+0xea>
    2a82:	6922      	ldr	r2, [r4, #16]
    2a84:	464b      	mov	r3, r9
    2a86:	6102      	str	r2, [r0, #16]
    2a88:	6960      	ldr	r0, [r4, #20]
    2a8a:	1c22      	adds	r2, r4, #0
    2a8c:	6158      	str	r0, [r3, #20]
    2a8e:	3218      	adds	r2, #24
    2a90:	3318      	adds	r3, #24
    2a92:	e71b      	b.n	28cc <_realloc_r+0x1ac>
    2a94:	68a0      	ldr	r0, [r4, #8]
    2a96:	4651      	mov	r1, sl
    2a98:	6108      	str	r0, [r1, #16]
    2a9a:	68e3      	ldr	r3, [r4, #12]
    2a9c:	614b      	str	r3, [r1, #20]
    2a9e:	2a24      	cmp	r2, #36	; 0x24
    2aa0:	d00e      	beq.n	2ac0 <_realloc_r+0x3a0>
    2aa2:	4653      	mov	r3, sl
    2aa4:	3318      	adds	r3, #24
    2aa6:	3410      	adds	r4, #16
    2aa8:	e73c      	b.n	2924 <_realloc_r+0x204>
    2aaa:	6920      	ldr	r0, [r4, #16]
    2aac:	4651      	mov	r1, sl
    2aae:	6188      	str	r0, [r1, #24]
    2ab0:	6962      	ldr	r2, [r4, #20]
    2ab2:	4653      	mov	r3, sl
    2ab4:	61ca      	str	r2, [r1, #28]
    2ab6:	3320      	adds	r3, #32
    2ab8:	3418      	adds	r4, #24
    2aba:	e6a6      	b.n	280a <_realloc_r+0xea>
    2abc:	10000574 	.word	0x10000574
    2ac0:	6920      	ldr	r0, [r4, #16]
    2ac2:	4651      	mov	r1, sl
    2ac4:	6188      	str	r0, [r1, #24]
    2ac6:	6962      	ldr	r2, [r4, #20]
    2ac8:	4653      	mov	r3, sl
    2aca:	61ca      	str	r2, [r1, #28]
    2acc:	3320      	adds	r3, #32
    2ace:	3418      	adds	r4, #24
    2ad0:	e728      	b.n	2924 <_realloc_r+0x204>
    2ad2:	4648      	mov	r0, r9
    2ad4:	1c21      	adds	r1, r4, #0
    2ad6:	f7ff fdc9 	bl	266c <memmove>
    2ada:	e799      	b.n	2a10 <_realloc_r+0x2f0>
    2adc:	68a1      	ldr	r1, [r4, #8]
    2ade:	4653      	mov	r3, sl
    2ae0:	6119      	str	r1, [r3, #16]
    2ae2:	68e0      	ldr	r0, [r4, #12]
    2ae4:	6158      	str	r0, [r3, #20]
    2ae6:	2a24      	cmp	r2, #36	; 0x24
    2ae8:	d002      	beq.n	2af0 <_realloc_r+0x3d0>
    2aea:	3318      	adds	r3, #24
    2aec:	3410      	adds	r4, #16
    2aee:	e789      	b.n	2a04 <_realloc_r+0x2e4>
    2af0:	6921      	ldr	r1, [r4, #16]
    2af2:	4652      	mov	r2, sl
    2af4:	6199      	str	r1, [r3, #24]
    2af6:	6963      	ldr	r3, [r4, #20]
    2af8:	3418      	adds	r4, #24
    2afa:	61d3      	str	r3, [r2, #28]
    2afc:	4653      	mov	r3, sl
    2afe:	3320      	adds	r3, #32
    2b00:	e780      	b.n	2a04 <_realloc_r+0x2e4>
    2b02:	46c0      	nop			; (mov r8, r8)

00002b04 <__sread>:
    2b04:	b538      	push	{r3, r4, r5, lr}
    2b06:	1c0c      	adds	r4, r1, #0
    2b08:	250e      	movs	r5, #14
    2b0a:	5f49      	ldrsh	r1, [r1, r5]
    2b0c:	f7fd fe38 	bl	780 <_read_r>
    2b10:	2800      	cmp	r0, #0
    2b12:	db03      	blt.n	2b1c <__sread+0x18>
    2b14:	6d22      	ldr	r2, [r4, #80]	; 0x50
    2b16:	1813      	adds	r3, r2, r0
    2b18:	6523      	str	r3, [r4, #80]	; 0x50
    2b1a:	bd38      	pop	{r3, r4, r5, pc}
    2b1c:	89a2      	ldrh	r2, [r4, #12]
    2b1e:	4b02      	ldr	r3, [pc, #8]	; (2b28 <__sread+0x24>)
    2b20:	4013      	ands	r3, r2
    2b22:	81a3      	strh	r3, [r4, #12]
    2b24:	e7f9      	b.n	2b1a <__sread+0x16>
    2b26:	46c0      	nop			; (mov r8, r8)
    2b28:	ffffefff 	.word	0xffffefff

00002b2c <__seofread>:
    2b2c:	2000      	movs	r0, #0
    2b2e:	4770      	bx	lr

00002b30 <__swrite>:
    2b30:	b5f8      	push	{r3, r4, r5, r6, r7, lr}
    2b32:	1c0c      	adds	r4, r1, #0
    2b34:	8989      	ldrh	r1, [r1, #12]
    2b36:	1c05      	adds	r5, r0, #0
    2b38:	1c17      	adds	r7, r2, #0
    2b3a:	1c1e      	adds	r6, r3, #0
    2b3c:	05cb      	lsls	r3, r1, #23
    2b3e:	d506      	bpl.n	2b4e <__swrite+0x1e>
    2b40:	230e      	movs	r3, #14
    2b42:	5ee1      	ldrsh	r1, [r4, r3]
    2b44:	2200      	movs	r2, #0
    2b46:	2302      	movs	r3, #2
    2b48:	f7fd fe22 	bl	790 <_lseek_r>
    2b4c:	89a1      	ldrh	r1, [r4, #12]
    2b4e:	4b05      	ldr	r3, [pc, #20]	; (2b64 <__swrite+0x34>)
    2b50:	1c28      	adds	r0, r5, #0
    2b52:	4019      	ands	r1, r3
    2b54:	81a1      	strh	r1, [r4, #12]
    2b56:	1c3a      	adds	r2, r7, #0
    2b58:	230e      	movs	r3, #14
    2b5a:	5ee1      	ldrsh	r1, [r4, r3]
    2b5c:	1c33      	adds	r3, r6, #0
    2b5e:	f7fd fe19 	bl	794 <_write_r>
    2b62:	bdf8      	pop	{r3, r4, r5, r6, r7, pc}
    2b64:	ffffefff 	.word	0xffffefff

00002b68 <__sseek>:
    2b68:	b538      	push	{r3, r4, r5, lr}
    2b6a:	1c0c      	adds	r4, r1, #0
    2b6c:	250e      	movs	r5, #14
    2b6e:	5f49      	ldrsh	r1, [r1, r5]
    2b70:	f7fd fe0e 	bl	790 <_lseek_r>
    2b74:	89a2      	ldrh	r2, [r4, #12]
    2b76:	1c43      	adds	r3, r0, #1
    2b78:	d005      	beq.n	2b86 <__sseek+0x1e>
    2b7a:	2380      	movs	r3, #128	; 0x80
    2b7c:	015b      	lsls	r3, r3, #5
    2b7e:	4313      	orrs	r3, r2
    2b80:	81a3      	strh	r3, [r4, #12]
    2b82:	6520      	str	r0, [r4, #80]	; 0x50
    2b84:	bd38      	pop	{r3, r4, r5, pc}
    2b86:	4b02      	ldr	r3, [pc, #8]	; (2b90 <__sseek+0x28>)
    2b88:	4013      	ands	r3, r2
    2b8a:	81a3      	strh	r3, [r4, #12]
    2b8c:	e7fa      	b.n	2b84 <__sseek+0x1c>
    2b8e:	46c0      	nop			; (mov r8, r8)
    2b90:	ffffefff 	.word	0xffffefff

00002b94 <__sclose>:
    2b94:	b508      	push	{r3, lr}
    2b96:	230e      	movs	r3, #14
    2b98:	5ec9      	ldrsh	r1, [r1, r3]
    2b9a:	f7fd fe03 	bl	7a4 <_close_r>
    2b9e:	bd08      	pop	{r3, pc}

00002ba0 <strcmp>:
    2ba0:	7802      	ldrb	r2, [r0, #0]
    2ba2:	780b      	ldrb	r3, [r1, #0]
    2ba4:	3001      	adds	r0, #1
    2ba6:	3101      	adds	r1, #1
    2ba8:	2a00      	cmp	r2, #0
    2baa:	d001      	beq.n	2bb0 <strcmp+0x10>
    2bac:	429a      	cmp	r2, r3
    2bae:	d0f7      	beq.n	2ba0 <strcmp>
    2bb0:	1ad0      	subs	r0, r2, r3
    2bb2:	4770      	bx	lr

00002bb4 <strlen>:
    2bb4:	2300      	movs	r3, #0
    2bb6:	5cc2      	ldrb	r2, [r0, r3]
    2bb8:	3301      	adds	r3, #1
    2bba:	2a00      	cmp	r2, #0
    2bbc:	d1fb      	bne.n	2bb6 <strlen+0x2>
    2bbe:	1e58      	subs	r0, r3, #1
    2bc0:	4770      	bx	lr
    2bc2:	46c0      	nop			; (mov r8, r8)

00002bc4 <__swbuf_r>:
    2bc4:	b570      	push	{r4, r5, r6, lr}
    2bc6:	1c05      	adds	r5, r0, #0
    2bc8:	1c0e      	adds	r6, r1, #0
    2bca:	1c14      	adds	r4, r2, #0
    2bcc:	2800      	cmp	r0, #0
    2bce:	d002      	beq.n	2bd6 <__swbuf_r+0x12>
    2bd0:	6b81      	ldr	r1, [r0, #56]	; 0x38
    2bd2:	2900      	cmp	r1, #0
    2bd4:	d049      	beq.n	2c6a <__swbuf_r+0xa6>
    2bd6:	69a2      	ldr	r2, [r4, #24]
    2bd8:	89a3      	ldrh	r3, [r4, #12]
    2bda:	60a2      	str	r2, [r4, #8]
    2bdc:	0719      	lsls	r1, r3, #28
    2bde:	d53b      	bpl.n	2c58 <__swbuf_r+0x94>
    2be0:	6922      	ldr	r2, [r4, #16]
    2be2:	2a00      	cmp	r2, #0
    2be4:	d038      	beq.n	2c58 <__swbuf_r+0x94>
    2be6:	21ff      	movs	r1, #255	; 0xff
    2be8:	400e      	ands	r6, r1
    2bea:	2180      	movs	r1, #128	; 0x80
    2bec:	0189      	lsls	r1, r1, #6
    2bee:	420b      	tst	r3, r1
    2bf0:	d015      	beq.n	2c1e <__swbuf_r+0x5a>
    2bf2:	6823      	ldr	r3, [r4, #0]
    2bf4:	6961      	ldr	r1, [r4, #20]
    2bf6:	1a9a      	subs	r2, r3, r2
    2bf8:	428a      	cmp	r2, r1
    2bfa:	da1b      	bge.n	2c34 <__swbuf_r+0x70>
    2bfc:	3201      	adds	r2, #1
    2bfe:	68a1      	ldr	r1, [r4, #8]
    2c00:	3901      	subs	r1, #1
    2c02:	60a1      	str	r1, [r4, #8]
    2c04:	701e      	strb	r6, [r3, #0]
    2c06:	3301      	adds	r3, #1
    2c08:	6023      	str	r3, [r4, #0]
    2c0a:	6963      	ldr	r3, [r4, #20]
    2c0c:	4293      	cmp	r3, r2
    2c0e:	d01a      	beq.n	2c46 <__swbuf_r+0x82>
    2c10:	89a3      	ldrh	r3, [r4, #12]
    2c12:	07d9      	lsls	r1, r3, #31
    2c14:	d501      	bpl.n	2c1a <__swbuf_r+0x56>
    2c16:	2e0a      	cmp	r6, #10
    2c18:	d015      	beq.n	2c46 <__swbuf_r+0x82>
    2c1a:	1c30      	adds	r0, r6, #0
    2c1c:	bd70      	pop	{r4, r5, r6, pc}
    2c1e:	430b      	orrs	r3, r1
    2c20:	81a3      	strh	r3, [r4, #12]
    2c22:	6e61      	ldr	r1, [r4, #100]	; 0x64
    2c24:	4b12      	ldr	r3, [pc, #72]	; (2c70 <__swbuf_r+0xac>)
    2c26:	400b      	ands	r3, r1
    2c28:	6663      	str	r3, [r4, #100]	; 0x64
    2c2a:	6961      	ldr	r1, [r4, #20]
    2c2c:	6823      	ldr	r3, [r4, #0]
    2c2e:	1a9a      	subs	r2, r3, r2
    2c30:	428a      	cmp	r2, r1
    2c32:	dbe3      	blt.n	2bfc <__swbuf_r+0x38>
    2c34:	1c28      	adds	r0, r5, #0
    2c36:	1c21      	adds	r1, r4, #0
    2c38:	f7fe fcd8 	bl	15ec <_fflush_r>
    2c3c:	2800      	cmp	r0, #0
    2c3e:	d108      	bne.n	2c52 <__swbuf_r+0x8e>
    2c40:	6823      	ldr	r3, [r4, #0]
    2c42:	2201      	movs	r2, #1
    2c44:	e7db      	b.n	2bfe <__swbuf_r+0x3a>
    2c46:	1c28      	adds	r0, r5, #0
    2c48:	1c21      	adds	r1, r4, #0
    2c4a:	f7fe fccf 	bl	15ec <_fflush_r>
    2c4e:	2800      	cmp	r0, #0
    2c50:	d0e3      	beq.n	2c1a <__swbuf_r+0x56>
    2c52:	2601      	movs	r6, #1
    2c54:	4276      	negs	r6, r6
    2c56:	e7e0      	b.n	2c1a <__swbuf_r+0x56>
    2c58:	1c28      	adds	r0, r5, #0
    2c5a:	1c21      	adds	r1, r4, #0
    2c5c:	f7fe fbb8 	bl	13d0 <__swsetup_r>
    2c60:	2800      	cmp	r0, #0
    2c62:	d1f6      	bne.n	2c52 <__swbuf_r+0x8e>
    2c64:	89a3      	ldrh	r3, [r4, #12]
    2c66:	6922      	ldr	r2, [r4, #16]
    2c68:	e7bd      	b.n	2be6 <__swbuf_r+0x22>
    2c6a:	f7fe fd37 	bl	16dc <__sinit>
    2c6e:	e7b2      	b.n	2bd6 <__swbuf_r+0x12>
    2c70:	ffffdfff 	.word	0xffffdfff

00002c74 <__swbuf>:
    2c74:	b508      	push	{r3, lr}
    2c76:	1c0a      	adds	r2, r1, #0
    2c78:	4903      	ldr	r1, [pc, #12]	; (2c88 <__swbuf+0x14>)
    2c7a:	1c03      	adds	r3, r0, #0
    2c7c:	6808      	ldr	r0, [r1, #0]
    2c7e:	1c19      	adds	r1, r3, #0
    2c80:	f7ff ffa0 	bl	2bc4 <__swbuf_r>
    2c84:	bd08      	pop	{r3, pc}
    2c86:	46c0      	nop			; (mov r8, r8)
    2c88:	100000c8 	.word	0x100000c8

00002c8c <_wcrtomb_r>:
    2c8c:	b5f0      	push	{r4, r5, r6, r7, lr}
    2c8e:	4647      	mov	r7, r8
    2c90:	b480      	push	{r7}
    2c92:	1c1e      	adds	r6, r3, #0
    2c94:	b086      	sub	sp, #24
    2c96:	1c05      	adds	r5, r0, #0
    2c98:	1c0c      	adds	r4, r1, #0
    2c9a:	1c17      	adds	r7, r2, #0
    2c9c:	4b10      	ldr	r3, [pc, #64]	; (2ce0 <_wcrtomb_r+0x54>)
    2c9e:	2900      	cmp	r1, #0
    2ca0:	d013      	beq.n	2cca <_wcrtomb_r+0x3e>
    2ca2:	681a      	ldr	r2, [r3, #0]
    2ca4:	4690      	mov	r8, r2
    2ca6:	f7ff f92f 	bl	1f08 <__locale_charset>
    2caa:	9600      	str	r6, [sp, #0]
    2cac:	1c03      	adds	r3, r0, #0
    2cae:	1c21      	adds	r1, r4, #0
    2cb0:	1c28      	adds	r0, r5, #0
    2cb2:	1c3a      	adds	r2, r7, #0
    2cb4:	47c0      	blx	r8
    2cb6:	1c43      	adds	r3, r0, #1
    2cb8:	d103      	bne.n	2cc2 <_wcrtomb_r+0x36>
    2cba:	2300      	movs	r3, #0
    2cbc:	6033      	str	r3, [r6, #0]
    2cbe:	238a      	movs	r3, #138	; 0x8a
    2cc0:	602b      	str	r3, [r5, #0]
    2cc2:	b006      	add	sp, #24
    2cc4:	bc04      	pop	{r2}
    2cc6:	4690      	mov	r8, r2
    2cc8:	bdf0      	pop	{r4, r5, r6, r7, pc}
    2cca:	681c      	ldr	r4, [r3, #0]
    2ccc:	f7ff f91c 	bl	1f08 <__locale_charset>
    2cd0:	9600      	str	r6, [sp, #0]
    2cd2:	1c03      	adds	r3, r0, #0
    2cd4:	a903      	add	r1, sp, #12
    2cd6:	1c28      	adds	r0, r5, #0
    2cd8:	2200      	movs	r2, #0
    2cda:	47a0      	blx	r4
    2cdc:	e7eb      	b.n	2cb6 <_wcrtomb_r+0x2a>
    2cde:	46c0      	nop			; (mov r8, r8)
    2ce0:	10000984 	.word	0x10000984

00002ce4 <wcrtomb>:
    2ce4:	b5f0      	push	{r4, r5, r6, r7, lr}
    2ce6:	464f      	mov	r7, r9
    2ce8:	4646      	mov	r6, r8
    2cea:	b4c0      	push	{r6, r7}
    2cec:	1c04      	adds	r4, r0, #0
    2cee:	b087      	sub	sp, #28
    2cf0:	1c0f      	adds	r7, r1, #0
    2cf2:	1c16      	adds	r6, r2, #0
    2cf4:	4b13      	ldr	r3, [pc, #76]	; (2d44 <wcrtomb+0x60>)
    2cf6:	2800      	cmp	r0, #0
    2cf8:	d018      	beq.n	2d2c <wcrtomb+0x48>
    2cfa:	4d13      	ldr	r5, [pc, #76]	; (2d48 <wcrtomb+0x64>)
    2cfc:	681a      	ldr	r2, [r3, #0]
    2cfe:	682b      	ldr	r3, [r5, #0]
    2d00:	4690      	mov	r8, r2
    2d02:	4699      	mov	r9, r3
    2d04:	f7ff f900 	bl	1f08 <__locale_charset>
    2d08:	9600      	str	r6, [sp, #0]
    2d0a:	1c03      	adds	r3, r0, #0
    2d0c:	1c21      	adds	r1, r4, #0
    2d0e:	4648      	mov	r0, r9
    2d10:	1c3a      	adds	r2, r7, #0
    2d12:	47c0      	blx	r8
    2d14:	1c42      	adds	r2, r0, #1
    2d16:	d104      	bne.n	2d22 <wcrtomb+0x3e>
    2d18:	2300      	movs	r3, #0
    2d1a:	6033      	str	r3, [r6, #0]
    2d1c:	682b      	ldr	r3, [r5, #0]
    2d1e:	228a      	movs	r2, #138	; 0x8a
    2d20:	601a      	str	r2, [r3, #0]
    2d22:	b007      	add	sp, #28
    2d24:	bc0c      	pop	{r2, r3}
    2d26:	4690      	mov	r8, r2
    2d28:	4699      	mov	r9, r3
    2d2a:	bdf0      	pop	{r4, r5, r6, r7, pc}
    2d2c:	4d06      	ldr	r5, [pc, #24]	; (2d48 <wcrtomb+0x64>)
    2d2e:	681c      	ldr	r4, [r3, #0]
    2d30:	682f      	ldr	r7, [r5, #0]
    2d32:	f7ff f8e9 	bl	1f08 <__locale_charset>
    2d36:	9600      	str	r6, [sp, #0]
    2d38:	1c03      	adds	r3, r0, #0
    2d3a:	a903      	add	r1, sp, #12
    2d3c:	1c38      	adds	r0, r7, #0
    2d3e:	2200      	movs	r2, #0
    2d40:	47a0      	blx	r4
    2d42:	e7e7      	b.n	2d14 <wcrtomb+0x30>
    2d44:	10000984 	.word	0x10000984
    2d48:	100000c8 	.word	0x100000c8

00002d4c <__ascii_wctomb>:
    2d4c:	b500      	push	{lr}
    2d4e:	2900      	cmp	r1, #0
    2d50:	d004      	beq.n	2d5c <__ascii_wctomb+0x10>
    2d52:	2aff      	cmp	r2, #255	; 0xff
    2d54:	d804      	bhi.n	2d60 <__ascii_wctomb+0x14>
    2d56:	700a      	strb	r2, [r1, #0]
    2d58:	2001      	movs	r0, #1
    2d5a:	bd00      	pop	{pc}
    2d5c:	2000      	movs	r0, #0
    2d5e:	e7fc      	b.n	2d5a <__ascii_wctomb+0xe>
    2d60:	238a      	movs	r3, #138	; 0x8a
    2d62:	6003      	str	r3, [r0, #0]
    2d64:	2001      	movs	r0, #1
    2d66:	4240      	negs	r0, r0
    2d68:	e7f7      	b.n	2d5a <__ascii_wctomb+0xe>
    2d6a:	46c0      	nop			; (mov r8, r8)

00002d6c <_wctomb_r>:
    2d6c:	b5f0      	push	{r4, r5, r6, r7, lr}
    2d6e:	4647      	mov	r7, r8
    2d70:	b480      	push	{r7}
    2d72:	4698      	mov	r8, r3
    2d74:	4b09      	ldr	r3, [pc, #36]	; (2d9c <_wctomb_r+0x30>)
    2d76:	b082      	sub	sp, #8
    2d78:	1c15      	adds	r5, r2, #0
    2d7a:	681c      	ldr	r4, [r3, #0]
    2d7c:	1c07      	adds	r7, r0, #0
    2d7e:	1c0e      	adds	r6, r1, #0
    2d80:	f7ff f8c2 	bl	1f08 <__locale_charset>
    2d84:	4642      	mov	r2, r8
    2d86:	1c03      	adds	r3, r0, #0
    2d88:	9200      	str	r2, [sp, #0]
    2d8a:	1c38      	adds	r0, r7, #0
    2d8c:	1c31      	adds	r1, r6, #0
    2d8e:	1c2a      	adds	r2, r5, #0
    2d90:	47a0      	blx	r4
    2d92:	b002      	add	sp, #8
    2d94:	bc04      	pop	{r2}
    2d96:	4690      	mov	r8, r2
    2d98:	bdf0      	pop	{r4, r5, r6, r7, pc}
    2d9a:	46c0      	nop			; (mov r8, r8)
    2d9c:	10000984 	.word	0x10000984

00002da0 <_fclose_r>:
    2da0:	b570      	push	{r4, r5, r6, lr}
    2da2:	1c05      	adds	r5, r0, #0
    2da4:	1e0c      	subs	r4, r1, #0
    2da6:	d008      	beq.n	2dba <_fclose_r+0x1a>
    2da8:	2800      	cmp	r0, #0
    2daa:	d002      	beq.n	2db2 <_fclose_r+0x12>
    2dac:	6b82      	ldr	r2, [r0, #56]	; 0x38
    2dae:	2a00      	cmp	r2, #0
    2db0:	d031      	beq.n	2e16 <_fclose_r+0x76>
    2db2:	220c      	movs	r2, #12
    2db4:	5ea3      	ldrsh	r3, [r4, r2]
    2db6:	2b00      	cmp	r3, #0
    2db8:	d102      	bne.n	2dc0 <_fclose_r+0x20>
    2dba:	2600      	movs	r6, #0
    2dbc:	1c30      	adds	r0, r6, #0
    2dbe:	bd70      	pop	{r4, r5, r6, pc}
    2dc0:	1c28      	adds	r0, r5, #0
    2dc2:	1c21      	adds	r1, r4, #0
    2dc4:	f7fe fc12 	bl	15ec <_fflush_r>
    2dc8:	6ae3      	ldr	r3, [r4, #44]	; 0x2c
    2dca:	1c06      	adds	r6, r0, #0
    2dcc:	2b00      	cmp	r3, #0
    2dce:	d004      	beq.n	2dda <_fclose_r+0x3a>
    2dd0:	1c28      	adds	r0, r5, #0
    2dd2:	69e1      	ldr	r1, [r4, #28]
    2dd4:	4798      	blx	r3
    2dd6:	2800      	cmp	r0, #0
    2dd8:	db20      	blt.n	2e1c <_fclose_r+0x7c>
    2dda:	89a3      	ldrh	r3, [r4, #12]
    2ddc:	061a      	lsls	r2, r3, #24
    2dde:	d420      	bmi.n	2e22 <_fclose_r+0x82>
    2de0:	6b21      	ldr	r1, [r4, #48]	; 0x30
    2de2:	2900      	cmp	r1, #0
    2de4:	d008      	beq.n	2df8 <_fclose_r+0x58>
    2de6:	1c23      	adds	r3, r4, #0
    2de8:	3340      	adds	r3, #64	; 0x40
    2dea:	4299      	cmp	r1, r3
    2dec:	d002      	beq.n	2df4 <_fclose_r+0x54>
    2dee:	1c28      	adds	r0, r5, #0
    2df0:	f7fe fdd0 	bl	1994 <_free_r>
    2df4:	2300      	movs	r3, #0
    2df6:	6323      	str	r3, [r4, #48]	; 0x30
    2df8:	6c61      	ldr	r1, [r4, #68]	; 0x44
    2dfa:	2900      	cmp	r1, #0
    2dfc:	d004      	beq.n	2e08 <_fclose_r+0x68>
    2dfe:	1c28      	adds	r0, r5, #0
    2e00:	f7fe fdc8 	bl	1994 <_free_r>
    2e04:	2300      	movs	r3, #0
    2e06:	6463      	str	r3, [r4, #68]	; 0x44
    2e08:	f7fe fcd6 	bl	17b8 <__sfp_lock_acquire>
    2e0c:	2300      	movs	r3, #0
    2e0e:	81a3      	strh	r3, [r4, #12]
    2e10:	f7fe fcd4 	bl	17bc <__sfp_lock_release>
    2e14:	e7d2      	b.n	2dbc <_fclose_r+0x1c>
    2e16:	f7fe fc61 	bl	16dc <__sinit>
    2e1a:	e7ca      	b.n	2db2 <_fclose_r+0x12>
    2e1c:	2601      	movs	r6, #1
    2e1e:	4276      	negs	r6, r6
    2e20:	e7db      	b.n	2dda <_fclose_r+0x3a>
    2e22:	1c28      	adds	r0, r5, #0
    2e24:	6921      	ldr	r1, [r4, #16]
    2e26:	f7fe fdb5 	bl	1994 <_free_r>
    2e2a:	e7d9      	b.n	2de0 <_fclose_r+0x40>

00002e2c <fclose>:
    2e2c:	b508      	push	{r3, lr}
    2e2e:	4b03      	ldr	r3, [pc, #12]	; (2e3c <fclose+0x10>)
    2e30:	1c01      	adds	r1, r0, #0
    2e32:	6818      	ldr	r0, [r3, #0]
    2e34:	f7ff ffb4 	bl	2da0 <_fclose_r>
    2e38:	bd08      	pop	{r3, pc}
    2e3a:	46c0      	nop			; (mov r8, r8)
    2e3c:	100000c8 	.word	0x100000c8
    2e40:	0000018e 	.word	0x0000018e
    2e44:	000001ca 	.word	0x000001ca
    2e48:	00000192 	.word	0x00000192
    2e4c:	00000196 	.word	0x00000196
    2e50:	0000019a 	.word	0x0000019a
    2e54:	0000019e 	.word	0x0000019e
    2e58:	000001a2 	.word	0x000001a2
    2e5c:	000001a6 	.word	0x000001a6
    2e60:	000001aa 	.word	0x000001aa
    2e64:	000001ae 	.word	0x000001ae
    2e68:	000001b2 	.word	0x000001b2
    2e6c:	000001b6 	.word	0x000001b6
    2e70:	000001ba 	.word	0x000001ba
    2e74:	000001be 	.word	0x000001be
    2e78:	000001c2 	.word	0x000001c2
    2e7c:	000001c6 	.word	0x000001c6
    2e80:	32335b1b 	.word	0x32335b1b
    2e84:	436d313b 	.word	0x436d313b
    2e88:	656e6e6f 	.word	0x656e6e6f
    2e8c:	64657463 	.word	0x64657463
    2e90:	6544202e 	.word	0x6544202e
    2e94:	65636976 	.word	0x65636976
    2e98:	3a444920 	.word	0x3a444920
    2e9c:	786c2520 	.word	0x786c2520
    2ea0:	5b1b0a0d 	.word	0x5b1b0a0d
    2ea4:	00006d30 	.word	0x00006d30
    2ea8:	61656c43 	.word	0x61656c43
    2eac:	25203a72 	.word	0x25203a72
    2eb0:	646c3530 	.word	0x646c3530
    2eb4:	52202d20 	.word	0x52202d20
    2eb8:	3025203a 	.word	0x3025203a
    2ebc:	20646c35 	.word	0x20646c35
    2ec0:	3a47202d 	.word	0x3a47202d
    2ec4:	35302520 	.word	0x35302520
    2ec8:	2d20646c 	.word	0x2d20646c
    2ecc:	203a4220 	.word	0x203a4220
    2ed0:	6c353025 	.word	0x6c353025
    2ed4:	000a0d64 	.word	0x000a0d64
    2ed8:	71657246 	.word	0x71657246
    2edc:	636e6575 	.word	0x636e6575
    2ee0:	25203a79 	.word	0x25203a79
    2ee4:	0a0d646c 	.word	0x0a0d646c
    2ee8:	00000000 	.word	0x00000000

00002eec <_global_impure_ptr>:
    2eec:	100000d0 00000043 00000d26 00000aea     ....C...&.......
    2efc:	00000aea 00000d1c 00000aea 00000aea     ................
    2f0c:	00000aea 00000aea 00000aea 00000aea     ................
    2f1c:	00000bc0 00000d18 00000aea 00000bd6     ................
    2f2c:	00000cb8 00000aea 00000d0e 00000cf0     ................
    2f3c:	00000cf0 00000cf0 00000cf0 00000cf0     ................
    2f4c:	00000cf0 00000cf0 00000cf0 00000cf0     ................
    2f5c:	00000aea 00000aea 00000aea 00000aea     ................
    2f6c:	00000aea 00000aea 00000aea 00000aea     ................
    2f7c:	00000aea 00000aea 00000ffa 00000aea     ................
    2f8c:	00000aea 00000aea 00000aea 00000aea     ................
    2f9c:	00000aea 00000aea 00000aea 00000aea     ................
    2fac:	00000aea 00000b9e 00000aea 00000aea     ................
    2fbc:	00000aea 00000aea 00000aea 00000b10     ................
    2fcc:	00000aea 00000aea 00000fb2 00000aea     ................
    2fdc:	00000aea 00000aea 00000aea 00000aea     ................
    2fec:	00000aea 00000aea 00000aea 00000aea     ................
    2ffc:	00000aea 00000d80 00000d54 00000aea     ........T.......
    300c:	00000aea 00000aea 00000d38 00000d54     ........8...T...
    301c:	00000aea 00000aea 00000d30 00000aea     ........0.......
    302c:	00000c56 00000ba6 00000c8a 00000c82     V...............
    303c:	00000aea 00000be0 00000aea 00000b18     ................
    304c:	00000aea 00000aea 00000c2a              ........*...

00003058 <blanks.6690>:
    3058:	20202020 20202020 20202020 20202020                     

00003068 <zeroes.6691>:
    3068:	30303030 30303030 30303030 30303030     0000000000000000
    3078:	33323130 37363534 42413938 46454443     0123456789ABCDEF
    3088:	00000000 33323130 37363534 62613938     ....0123456789ab
    3098:	66656463 00000000 6c756e28 0000296c     cdef....(null)..
    30a8:	49534f50 00000058 0000002e              POSIX.......
