
usart.elf:     file format elf32-littlearm
usart.elf
architecture: arm, flags 0x00000112:
EXEC_P, HAS_SYMS, D_PAGED
start address 0x00000101

Program Header:
    LOAD off    0x00008000 vaddr 0x00000000 paddr 0x00000000 align 2**15
         filesz 0x00002dd0 memsz 0x00002dd0 flags r-x
    LOAD off    0x000100c0 vaddr 0x100000c0 paddr 0x00002dd0 align 2**15
         filesz 0x000008c8 memsz 0x000008c8 flags rw-
    LOAD off    0x00010988 vaddr 0x10000988 paddr 0x10000988 align 2**15
         filesz 0x00000000 memsz 0x000000f4 flags rw-
private flags = 5000002: [Version5 EABI] [has entry point]

Sections:
Idx Name          Size      VMA       LMA       File off  Algn
  0 .text         00002dd0  00000000  00000000  00008000  2**2
                  CONTENTS, ALLOC, LOAD, READONLY, CODE
  1 .data         000008c8  100000c0  00002dd0  000100c0  2**3
                  CONTENTS, ALLOC, LOAD, DATA
  2 .bss          000000f4  10000988  10000988  00010988  2**2
                  ALLOC
  3 .comment      00000011  00000000  00000000  00010988  2**0
                  CONTENTS, READONLY
  4 .ARM.attributes 00000033  00000000  00000000  00010999  2**0
                  CONTENTS, READONLY
  5 .debug_frame  00000854  00000000  00000000  000109cc  2**2
                  CONTENTS, READONLY, DEBUGGING
  6 .debug_line   000036da  00000000  00000000  00011220  2**0
                  CONTENTS, READONLY, DEBUGGING
  7 .debug_info   000101d9  00000000  00000000  000148fa  2**0
                  CONTENTS, READONLY, DEBUGGING
  8 .debug_abbrev 000030d2  00000000  00000000  00024ad3  2**0
                  CONTENTS, READONLY, DEBUGGING
  9 .debug_aranges 00000398  00000000  00000000  00027ba8  2**3
                  CONTENTS, READONLY, DEBUGGING
 10 .debug_str    00001646  00000000  00000000  00027f40  2**0
                  CONTENTS, READONLY, DEBUGGING
 11 .debug_loc    00006d59  00000000  00000000  00029586  2**0
                  CONTENTS, READONLY, DEBUGGING
 12 .debug_ranges 000002c0  00000000  00000000  000302df  2**0
                  CONTENTS, READONLY, DEBUGGING
SYMBOL TABLE:
00000000 l    d  .text	00000000 .text
100000c0 l    d  .data	00000000 .data
10000988 l    d  .bss	00000000 .bss
00000000 l    d  .comment	00000000 .comment
00000000 l    d  .ARM.attributes	00000000 .ARM.attributes
00000000 l    d  .debug_frame	00000000 .debug_frame
00000000 l    d  .debug_line	00000000 .debug_line
00000000 l    d  .debug_info	00000000 .debug_info
00000000 l    d  .debug_abbrev	00000000 .debug_abbrev
00000000 l    d  .debug_aranges	00000000 .debug_aranges
00000000 l    d  .debug_str	00000000 .debug_str
00000000 l    d  .debug_loc	00000000 .debug_loc
00000000 l    d  .debug_ranges	00000000 .debug_ranges
00000000 l    df *ABS*	00000000 startup_LPC11U24.c
00000000 l    df *ABS*	00000000 core_cm0.c
00000000 l    df *ABS*	00000000 system_LPC11Uxx.c
00002b9c l     O .text	0000003c CSWTCH.10
00000000 l    df *ABS*	00000000 uart.c
00000000 l    df *ABS*	00000000 main.c
00000000 l    df *ABS*	00000000 syscalls.c
10000990 l     O .bss	00000004 heap_end.5006
0000055c l       .text	00000000 .udivsi3_skip_div0_test
00000000 l    df *ABS*	00000000 errno.c
00000000 l    df *ABS*	00000000 impure.c
100000d0 l     O .data	00000428 impure_data
00000000 l    df *ABS*	00000000 iprintf.c
00000000 l    df *ABS*	00000000 memset.c
00000000 l    df *ABS*	00000000 vfprintf.c
00002d74 l     O .text	00000010 blanks.6690
00002d84 l     O .text	00000010 zeroes.6691
00000000 l    df *ABS*	00000000 wsetup.c
00000000 l    df *ABS*	00000000 fflush.c
00000000 l    df *ABS*	00000000 findfp.c
0000139c l     F .text	00000004 __fp_lock
000013a0 l     F .text	00000004 __fp_unlock
000013b4 l     F .text	00000048 std.isra.0
00000000 l    df *ABS*	00000000 fputwc.c
00000000 l    df *ABS*	00000000 mallocr.c
00000000 l    df *ABS*	00000000 fvwrite.c
00000000 l    df *ABS*	00000000 fwalk.c
00000000 l    df *ABS*	00000000 locale.c
100004f8 l     O .data	00000020 lc_ctype_charset
1000051c l     O .data	00000020 lc_message_charset
1000053c l     O .data	00000038 lconv
00000000 l    df *ABS*	00000000 makebuf.c
00000000 l    df *ABS*	00000000 mallocr.c
00000000 l    df *ABS*	00000000 memchr-stub.c
00000000 l    df *ABS*	00000000 memcpy-stub.c
00000000 l    df *ABS*	00000000 memmove.c
00000000 l    df *ABS*	00000000 mlock.c
00000000 l    df *ABS*	00000000 mallocr.c
00000000 l    df *ABS*	00000000 stdio.c
00000000 l    df *ABS*	00000000 strcmp.c
00000000 l    df *ABS*	00000000 strlen.c
00000000 l    df *ABS*	00000000 wbuf.c
00000000 l    df *ABS*	00000000 wcrtomb.c
00000000 l    df *ABS*	00000000 wctomb_r.c
00000000 l    df *ABS*	00000000 fclose.c
00000554 g     F .text	00000004 _isatty_r
100000c4 g     O .data	00000001 UARTTxEmpty
000000fc  w    F .text	00000004 TIMER16_0_IRQHandler
000000f0  w    F .text	00000004 SVCall_Handler
000004f0 g     F .text	00000004 _lseek_r
20004800 g       *ABS*	00000000 __top_RamUsb2
000000c0 g       .text	00000000 __section_table_start
000029e8 g     F .text	00000058 _wcrtomb_r
000028c4 g     F .text	0000002c __sseek
00001438 g     F .text	00000050 __sinit
00002920 g     F .text	000000b0 __swbuf_r
000000ec  w    F .text	00000004 HardFault_Handler
00001c20 g     F .text	00000044 _setlocale_r
000013fc g     F .text	0000002a __sfmoreglue
00002478 g     F .text	00000002 __malloc_unlock
000000f8  w    F .text	00000004 SysTick_Handler
000023c8 g     F .text	000000aa memmove
00001428 g     F .text	00000010 _cleanup
000000f4  w    F .text	00000004 PendSV_Handler
000000e8  w    F .text	00000004 NMI_Handler
00002dd0 g       *ABS*	00000000 __exidx_end
000003fc g     F .text	00000068 UART_IRQHandler
000000d8 g       .text	00000000 __data_section_table_end
000000fc  w    F .text	00000004 TIMER32_0_IRQHandler
000005f8 g     F .text	0000000c __errno
000000fc  w    F .text	00000004 FLEX_INT7_IRQHandler
0000053c g     F .text	00000018 _fstat_r
00002888 g     F .text	00000004 __seofread
00002dd0 g       *ABS*	00000000 _etext
00000188 g     F .text	00000014 bss_init
000000fc  w    F .text	00000004 TIMER32_1_IRQHandler
000003d8 g     F .text	00000024 UARTSend
0000233c g     F .text	0000008c memcpy
000013a4 g     F .text	00000010 _cleanup_r
100000c0 g     O .data	00000004 SystemCoreClock
00000558 g     F .text	00000088 __udivsi3
00001c64 g     F .text	00000008 __locale_charset
000000fc  w    F .text	00000004 FLEX_INT1_IRQHandler
100009a0 g     O .bss	00000004 __malloc_top_pad
10000518 g     O .data	00000004 __mb_cur_max
00001c88 g     F .text	0000000c _localeconv_r
00001880 g     F .text	000002fc __sfvwrite_r
100009d4 g     O .bss	00000040 UARTBuffer
00000508 g     F .text	00000034 _sbrk_r
000000fc  w    F .text	00000004 IntDefaultHandler
000004e0 g     F .text	00000010 _read_r
00002afc g     F .text	0000008c _fclose_r
00001374 g     F .text	00000028 fflush
100009cc g     O .bss	00000004 __malloc_max_sbrked_mem
000000fc  w    F .text	00000004 SSP0_IRQHandler
00002dd0 g       *ABS*	00000000 __exidx_start
00002c08 g     O .text	00000004 _global_impure_ptr
0000247c g     F .text	000003e2 _realloc_r
00001554 g     F .text	000000d4 _fputwc_r
00001524 g     F .text	00000018 __fp_lock_all
000000c0 g       .text	00000000 __data_section_table
10000a7c g       .bss	00000000 _ebss
000000fc  w    F .text	00000004 USBWakeup_IRQHandler
00000174 g     F .text	00000014 data_init
000000fc  w    F .text	00000004 FLEX_INT0_IRQHandler
1000099c g     O .bss	00000004 __nlocale_changed
000000fc  w    F .text	00000004 FLEX_INT2_IRQHandler
10000a7c g       .bss	00000000 end
1000098c g     O .bss	00000004 UARTbufferPtr
00001514 g     F .text	00000002 __sfp_lock_acquire
000022ac g     F .text	00000090 memchr
000016f0 g     F .text	00000190 _free_r
00001c6c g     F .text	0000000c __locale_mb_cur_max
000000fc  w    F .text	00000004 TIMER16_1_IRQHandler
10000988 g       .bss	00000000 _bss
10000998 g     O .bss	00000004 __mlocale_changed
1000097c g     O .data	00000004 __malloc_sbrk_base
000000fc  w    F .text	00000004 USB_FIQHandler
000000fc  w    F .text	00000004 FLEX_INT5_IRQHandler
00000320 g     F .text	000000b8 UARTInit
000000fc  w    F .text	00000004 ADC_IRQHandler
10001000 g       *ABS*	00000000 _vStackTop
100009a4 g     O .bss	00000028 __malloc_current_mallinfo
00000628 g     F .text	0000001a _iprintf_r
000000fc  w    F .text	00000004 SSP1_IRQHandler
000000e8 g       .text	00000000 __bss_section_table_end
00000504 g     F .text	00000004 _close_r
000000fc  w    F .text	00000004 FLEX_INT3_IRQHandler
000000fc  w    F .text	00000004 USB_IRQHandler
0000112c g     F .text	000000cc __swsetup_r
10000a14 g     O .bss	00000004 UARTStatus
000005f4  w    F .text	00000002 __aeabi_ldiv0
00001488 g     F .text	0000008c __sfp
00008000 g       *ABS*	00000000 __top_MFlash32
10000574 g     O .data	00000408 __malloc_av_
000000fc  w    F .text	00000004 BOD_IRQHandler
00001520 g     F .text	00000002 __sinit_lock_release
00002860 g     F .text	00000028 __sread
00002474 g     F .text	00000002 __malloc_lock
00001348 g     F .text	0000002a _fflush_r
000000fc  w    F .text	00000004 I2C_IRQHandler
00000644 g     F .text	0000008e memset
00000464 g     F .text	0000007c main
100009d0 g     O .bss	00000004 __malloc_max_total_mem
10001000 g       *ABS*	00000000 __top_RamLoc4
000029d0 g     F .text	00000018 __swbuf
000000fc  w    F .text	00000004 WDT_IRQHandler
00000558 g     F .text	00000000 __aeabi_uidiv
000028f0 g     F .text	0000000c __sclose
00002b88 g     F .text	00000014 fclose
00001d94 g     F .text	00000518 _malloc_r
10000988 g     O .bss	00000004 UARTCount
00002aa8 g     F .text	0000001e __ascii_wctomb
00001b7c g     F .text	0000004c _fwalk
0000031c g     F .text	00000002 ModemInit
00001650 g     F .text	000000a0 _malloc_trim_r
000028fc g     F .text	00000014 strcmp
00001110 g     F .text	0000001c vfiprintf
00000238 g     F .text	000000e4 SystemInit
000000d8 g       .text	00000000 __bss_section_table
00000604 g     F .text	00000024 iprintf
10000994 g     O .bss	00000004 _PathLocale
000004f4 g     F .text	00000010 _write_r
00001c94 g     F .text	00000018 setlocale
100000c8 g     O .data	00000004 _impure_ptr
000011f8 g     F .text	00000150 __sflush_r
00001c84 g     F .text	00000004 __locale_cjk_lang
100000c0 g       .data	00000000 _data
0000153c g     F .text	00000018 __fp_unlock_all
000000e8 g       .text	00000000 __section_table_end
000000fc  w    F .text	00000004 GINT0_IRQHandler
00001cac g     F .text	0000000c localeconv
000005e0 g     F .text	00000012 __aeabi_uidivmod
10000a18 g     O .bss	00000064 UARTbuffer
10000988 g       .data	00000000 _edata
0000288c g     F .text	00000038 __swrite
10000980 g     O .data	00000004 __malloc_trim_threshold
00001c78 g     F .text	0000000c __locale_msgcharset
00000754 g     F .text	000009bc _vfiprintf_r
000000fc  w    F .text	00000004 FLEX_INT4_IRQHandler
00000000 g     O .text	000000c0 g_pfnVectors
00000100 g     F .text	00000074 ResetISR
00001bc8 g     F .text	00000056 _fwalk_reent
0000019c g     F .text	0000009c SystemCoreClockUpdate
00001518 g     F .text	00000002 __sfp_lock_release
000005f4  w    F .text	00000002 __aeabi_idiv0
000000fc  w    F .text	00000004 FLEX_INT6_IRQHandler
00001cb8 g     F .text	000000dc __smakebuf_r
00002910 g     F .text	0000000e strlen
10000984 g     O .data	00000004 __wctomb
000000fc  w    F .text	00000004 FMC_IRQHandler
000006d4 g     F .text	0000007e __sprint_r
00002ac8 g     F .text	00000034 _wctomb_r
000000fc  w    F .text	00000004 GINT1_IRQHandler
00002a40 g     F .text	00000068 wcrtomb
00001628 g     F .text	00000028 fputwc
0000151c g     F .text	00000002 __sinit_lock_acquire



Disassembly of section .text:

00000000 <g_pfnVectors>:
       0:	00 10 00 10 01 01 00 00 e9 00 00 00 ed 00 00 00     ................
	...
      2c:	f1 00 00 00 00 00 00 00 00 00 00 00 f5 00 00 00     ................
      3c:	f9 00 00 00 fd 00 00 00 fd 00 00 00 fd 00 00 00     ................
      4c:	fd 00 00 00 fd 00 00 00 fd 00 00 00 fd 00 00 00     ................
      5c:	fd 00 00 00 fd 00 00 00 fd 00 00 00 00 00 00 00     ................
	...
      78:	fd 00 00 00 fd 00 00 00 fd 00 00 00 fd 00 00 00     ................
      88:	fd 00 00 00 fd 00 00 00 fd 00 00 00 fd 03 00 00     ................
      98:	fd 00 00 00 fd 00 00 00 fd 00 00 00 fd 00 00 00     ................
      a8:	fd 00 00 00 fd 00 00 00 00 00 00 00 00 00 00 00     ................
      b8:	fd 00 00 00 00 00 00 00                             ........

000000c0 <__data_section_table>:
      c0:	00002dd0 	.word	0x00002dd0
      c4:	100000c0 	.word	0x100000c0
      c8:	000008c8 	.word	0x000008c8
      cc:	00002dd0 	.word	0x00002dd0
      d0:	20004000 	.word	0x20004000
      d4:	00000000 	.word	0x00000000

000000d8 <__bss_section_table>:
      d8:	10000988 	.word	0x10000988
      dc:	000000f4 	.word	0x000000f4
      e0:	20004000 	.word	0x20004000
      e4:	00000000 	.word	0x00000000

000000e8 <NMI_Handler>:
      e8:	b500      	push	{lr}
      ea:	e7fe      	b.n	ea <NMI_Handler+0x2>

000000ec <HardFault_Handler>:
      ec:	b500      	push	{lr}
      ee:	e7fe      	b.n	ee <HardFault_Handler+0x2>

000000f0 <SVCall_Handler>:
      f0:	b500      	push	{lr}
      f2:	e7fe      	b.n	f2 <SVCall_Handler+0x2>

000000f4 <PendSV_Handler>:
      f4:	b500      	push	{lr}
      f6:	e7fe      	b.n	f6 <PendSV_Handler+0x2>

000000f8 <SysTick_Handler>:
      f8:	b500      	push	{lr}
      fa:	e7fe      	b.n	fa <SysTick_Handler+0x2>

000000fc <ADC_IRQHandler>:
      fc:	b500      	push	{lr}
      fe:	e7fe      	b.n	fe <ADC_IRQHandler+0x2>

00000100 <ResetISR>:
     100:	b5f8      	push	{r3, r4, r5, r6, r7, lr}
     102:	4919      	ldr	r1, [pc, #100]	; (168 <ResetISR+0x68>)
     104:	4b19      	ldr	r3, [pc, #100]	; (16c <ResetISR+0x6c>)
     106:	428b      	cmp	r3, r1
     108:	d20d      	bcs.n	126 <ResetISR+0x26>
     10a:	689c      	ldr	r4, [r3, #8]
     10c:	681d      	ldr	r5, [r3, #0]
     10e:	6858      	ldr	r0, [r3, #4]
     110:	330c      	adds	r3, #12
     112:	2c00      	cmp	r4, #0
     114:	d0f7      	beq.n	106 <ResetISR+0x6>
     116:	1c02      	adds	r2, r0, #0
     118:	cd40      	ldmia	r5!, {r6}
     11a:	c240      	stmia	r2!, {r6}
     11c:	1a16      	subs	r6, r2, r0
     11e:	42b4      	cmp	r4, r6
     120:	d8fa      	bhi.n	118 <ResetISR+0x18>
     122:	428b      	cmp	r3, r1
     124:	d3f1      	bcc.n	10a <ResetISR+0xa>
     126:	4a12      	ldr	r2, [pc, #72]	; (170 <ResetISR+0x70>)
     128:	4293      	cmp	r3, r2
     12a:	d217      	bcs.n	15c <ResetISR+0x5c>
     12c:	1dd6      	adds	r6, r2, #7
     12e:	1c1a      	adds	r2, r3, #0
     130:	3208      	adds	r2, #8
     132:	1ab6      	subs	r6, r6, r2
     134:	08f6      	lsrs	r6, r6, #3
     136:	3601      	adds	r6, #1
     138:	00f6      	lsls	r6, r6, #3
     13a:	199e      	adds	r6, r3, r6
     13c:	2500      	movs	r5, #0
     13e:	e002      	b.n	146 <ResetISR+0x46>
     140:	42b2      	cmp	r2, r6
     142:	d00b      	beq.n	15c <ResetISR+0x5c>
     144:	3208      	adds	r2, #8
     146:	cb11      	ldmia	r3!, {r0, r4}
     148:	1c13      	adds	r3, r2, #0
     14a:	2c00      	cmp	r4, #0
     14c:	d0f8      	beq.n	140 <ResetISR+0x40>
     14e:	1c01      	adds	r1, r0, #0
     150:	c120      	stmia	r1!, {r5}
     152:	1a0f      	subs	r7, r1, r0
     154:	42bc      	cmp	r4, r7
     156:	d8fb      	bhi.n	150 <ResetISR+0x50>
     158:	42b2      	cmp	r2, r6
     15a:	d1f3      	bne.n	144 <ResetISR+0x44>
     15c:	f000 f86c 	bl	238 <SystemInit>
     160:	f000 f980 	bl	464 <main>
     164:	e7fe      	b.n	164 <ResetISR+0x64>
     166:	46c0      	nop			; (mov r8, r8)
     168:	000000d8 	.word	0x000000d8
     16c:	000000c0 	.word	0x000000c0
     170:	000000e8 	.word	0x000000e8

00000174 <data_init>:
     174:	b510      	push	{r4, lr}
     176:	1c0b      	adds	r3, r1, #0
     178:	2a00      	cmp	r2, #0
     17a:	d004      	beq.n	186 <data_init+0x12>
     17c:	c810      	ldmia	r0!, {r4}
     17e:	c310      	stmia	r3!, {r4}
     180:	1a5c      	subs	r4, r3, r1
     182:	4294      	cmp	r4, r2
     184:	d3fa      	bcc.n	17c <data_init+0x8>
     186:	bd10      	pop	{r4, pc}

00000188 <bss_init>:
     188:	b510      	push	{r4, lr}
     18a:	1c03      	adds	r3, r0, #0
     18c:	2400      	movs	r4, #0
     18e:	2900      	cmp	r1, #0
     190:	d003      	beq.n	19a <bss_init+0x12>
     192:	c310      	stmia	r3!, {r4}
     194:	1a1a      	subs	r2, r3, r0
     196:	428a      	cmp	r2, r1
     198:	d3fb      	bcc.n	192 <bss_init+0xa>
     19a:	bd10      	pop	{r4, pc}

0000019c <SystemCoreClockUpdate>:
     19c:	4b22      	ldr	r3, [pc, #136]	; (228 <SystemCoreClockUpdate+0x8c>)
     19e:	b510      	push	{r4, lr}
     1a0:	6a5b      	ldr	r3, [r3, #36]	; 0x24
     1a2:	2000      	movs	r0, #0
     1a4:	05db      	lsls	r3, r3, #23
     1a6:	0f1b      	lsrs	r3, r3, #28
     1a8:	3b01      	subs	r3, #1
     1aa:	2b0e      	cmp	r3, #14
     1ac:	d802      	bhi.n	1b4 <SystemCoreClockUpdate+0x18>
     1ae:	4a1f      	ldr	r2, [pc, #124]	; (22c <SystemCoreClockUpdate+0x90>)
     1b0:	009b      	lsls	r3, r3, #2
     1b2:	5898      	ldr	r0, [r3, r2]
     1b4:	4b1c      	ldr	r3, [pc, #112]	; (228 <SystemCoreClockUpdate+0x8c>)
     1b6:	2403      	movs	r4, #3
     1b8:	6a59      	ldr	r1, [r3, #36]	; 0x24
     1ba:	6f1a      	ldr	r2, [r3, #112]	; 0x70
     1bc:	4022      	ands	r2, r4
     1be:	2a02      	cmp	r2, #2
     1c0:	d025      	beq.n	20e <SystemCoreClockUpdate+0x72>
     1c2:	2a03      	cmp	r2, #3
     1c4:	d010      	beq.n	1e8 <SystemCoreClockUpdate+0x4c>
     1c6:	2a01      	cmp	r2, #1
     1c8:	d007      	beq.n	1da <SystemCoreClockUpdate+0x3e>
     1ca:	4819      	ldr	r0, [pc, #100]	; (230 <SystemCoreClockUpdate+0x94>)
     1cc:	4b16      	ldr	r3, [pc, #88]	; (228 <SystemCoreClockUpdate+0x8c>)
     1ce:	6f99      	ldr	r1, [r3, #120]	; 0x78
     1d0:	f000 f9c2 	bl	558 <__aeabi_uidiv>
     1d4:	4b17      	ldr	r3, [pc, #92]	; (234 <SystemCoreClockUpdate+0x98>)
     1d6:	6018      	str	r0, [r3, #0]
     1d8:	bd10      	pop	{r4, pc}
     1da:	6c1b      	ldr	r3, [r3, #64]	; 0x40
     1dc:	401c      	ands	r4, r3
     1de:	3c02      	subs	r4, #2
     1e0:	2c01      	cmp	r4, #1
     1e2:	d8f2      	bhi.n	1ca <SystemCoreClockUpdate+0x2e>
     1e4:	2000      	movs	r0, #0
     1e6:	e7f1      	b.n	1cc <SystemCoreClockUpdate+0x30>
     1e8:	6c19      	ldr	r1, [r3, #64]	; 0x40
     1ea:	400a      	ands	r2, r1
     1ec:	2a01      	cmp	r2, #1
     1ee:	d015      	beq.n	21c <SystemCoreClockUpdate+0x80>
     1f0:	2a00      	cmp	r2, #0
     1f2:	d1f7      	bne.n	1e4 <SystemCoreClockUpdate+0x48>
     1f4:	4b0c      	ldr	r3, [pc, #48]	; (228 <SystemCoreClockUpdate+0x8c>)
     1f6:	22c0      	movs	r2, #192	; 0xc0
     1f8:	6899      	ldr	r1, [r3, #8]
     1fa:	0052      	lsls	r2, r2, #1
     1fc:	4211      	tst	r1, r2
     1fe:	d1e4      	bne.n	1ca <SystemCoreClockUpdate+0x2e>
     200:	689b      	ldr	r3, [r3, #8]
     202:	201f      	movs	r0, #31
     204:	4003      	ands	r3, r0
     206:	480a      	ldr	r0, [pc, #40]	; (230 <SystemCoreClockUpdate+0x94>)
     208:	3301      	adds	r3, #1
     20a:	4358      	muls	r0, r3
     20c:	e7de      	b.n	1cc <SystemCoreClockUpdate+0x30>
     20e:	231f      	movs	r3, #31
     210:	4019      	ands	r1, r3
     212:	0049      	lsls	r1, r1, #1
     214:	3102      	adds	r1, #2
     216:	f000 f99f 	bl	558 <__aeabi_uidiv>
     21a:	e7d7      	b.n	1cc <SystemCoreClockUpdate+0x30>
     21c:	22c0      	movs	r2, #192	; 0xc0
     21e:	6899      	ldr	r1, [r3, #8]
     220:	0052      	lsls	r2, r2, #1
     222:	4211      	tst	r1, r2
     224:	d1d1      	bne.n	1ca <SystemCoreClockUpdate+0x2e>
     226:	e7eb      	b.n	200 <SystemCoreClockUpdate+0x64>
     228:	40048000 	.word	0x40048000
     22c:	00002b9c 	.word	0x00002b9c
     230:	00b71b00 	.word	0x00b71b00
     234:	100000c0 	.word	0x100000c0

00000238 <SystemInit>:
     238:	b510      	push	{r4, lr}
     23a:	4b35      	ldr	r3, [pc, #212]	; (310 <SystemInit+0xd8>)
     23c:	228e      	movs	r2, #142	; 0x8e
     23e:	0092      	lsls	r2, r2, #2
     240:	5899      	ldr	r1, [r3, r2]
     242:	2020      	movs	r0, #32
     244:	4381      	bics	r1, r0
     246:	5099      	str	r1, [r3, r2]
     248:	b082      	sub	sp, #8
     24a:	2200      	movs	r2, #0
     24c:	621a      	str	r2, [r3, #32]
     24e:	9201      	str	r2, [sp, #4]
     250:	9b01      	ldr	r3, [sp, #4]
     252:	2bc7      	cmp	r3, #199	; 0xc7
     254:	d806      	bhi.n	264 <SystemInit+0x2c>
     256:	46c0      	nop			; (mov r8, r8)
     258:	9b01      	ldr	r3, [sp, #4]
     25a:	3301      	adds	r3, #1
     25c:	9301      	str	r3, [sp, #4]
     25e:	9b01      	ldr	r3, [sp, #4]
     260:	2bc7      	cmp	r3, #199	; 0xc7
     262:	d9f8      	bls.n	256 <SystemInit+0x1e>
     264:	482a      	ldr	r0, [pc, #168]	; (310 <SystemInit+0xd8>)
     266:	2301      	movs	r3, #1
     268:	2200      	movs	r2, #0
     26a:	6403      	str	r3, [r0, #64]	; 0x40
     26c:	2101      	movs	r1, #1
     26e:	6443      	str	r3, [r0, #68]	; 0x44
     270:	6442      	str	r2, [r0, #68]	; 0x44
     272:	6443      	str	r3, [r0, #68]	; 0x44
     274:	6c43      	ldr	r3, [r0, #68]	; 0x44
     276:	4a26      	ldr	r2, [pc, #152]	; (310 <SystemInit+0xd8>)
     278:	4219      	tst	r1, r3
     27a:	d0fb      	beq.n	274 <SystemInit+0x3c>
     27c:	2323      	movs	r3, #35	; 0x23
     27e:	6093      	str	r3, [r2, #8]
     280:	238e      	movs	r3, #142	; 0x8e
     282:	009b      	lsls	r3, r3, #2
     284:	58d1      	ldr	r1, [r2, r3]
     286:	2080      	movs	r0, #128	; 0x80
     288:	4381      	bics	r1, r0
     28a:	50d1      	str	r1, [r2, r3]
     28c:	1c14      	adds	r4, r2, #0
     28e:	2001      	movs	r0, #1
     290:	68e3      	ldr	r3, [r4, #12]
     292:	4a1f      	ldr	r2, [pc, #124]	; (310 <SystemInit+0xd8>)
     294:	2101      	movs	r1, #1
     296:	4218      	tst	r0, r3
     298:	d0fa      	beq.n	290 <SystemInit+0x58>
     29a:	2303      	movs	r3, #3
     29c:	6713      	str	r3, [r2, #112]	; 0x70
     29e:	2300      	movs	r3, #0
     2a0:	6751      	str	r1, [r2, #116]	; 0x74
     2a2:	1c14      	adds	r4, r2, #0
     2a4:	6753      	str	r3, [r2, #116]	; 0x74
     2a6:	2001      	movs	r0, #1
     2a8:	6751      	str	r1, [r2, #116]	; 0x74
     2aa:	6f63      	ldr	r3, [r4, #116]	; 0x74
     2ac:	4a18      	ldr	r2, [pc, #96]	; (310 <SystemInit+0xd8>)
     2ae:	2101      	movs	r1, #1
     2b0:	4218      	tst	r0, r3
     2b2:	d0fa      	beq.n	2aa <SystemInit+0x72>
     2b4:	238e      	movs	r3, #142	; 0x8e
     2b6:	6791      	str	r1, [r2, #120]	; 0x78
     2b8:	009b      	lsls	r3, r3, #2
     2ba:	58d4      	ldr	r4, [r2, r3]
     2bc:	4815      	ldr	r0, [pc, #84]	; (314 <SystemInit+0xdc>)
     2be:	4020      	ands	r0, r4
     2c0:	50d0      	str	r0, [r2, r3]
     2c2:	58d4      	ldr	r4, [r2, r3]
     2c4:	4814      	ldr	r0, [pc, #80]	; (318 <SystemInit+0xe0>)
     2c6:	4020      	ands	r0, r4
     2c8:	50d0      	str	r0, [r2, r3]
     2ca:	2300      	movs	r3, #0
     2cc:	6491      	str	r1, [r2, #72]	; 0x48
     2ce:	2001      	movs	r0, #1
     2d0:	64d1      	str	r1, [r2, #76]	; 0x4c
     2d2:	64d3      	str	r3, [r2, #76]	; 0x4c
     2d4:	64d1      	str	r1, [r2, #76]	; 0x4c
     2d6:	6cd3      	ldr	r3, [r2, #76]	; 0x4c
     2d8:	490d      	ldr	r1, [pc, #52]	; (310 <SystemInit+0xd8>)
     2da:	4218      	tst	r0, r3
     2dc:	d0fb      	beq.n	2d6 <SystemInit+0x9e>
     2de:	2323      	movs	r3, #35	; 0x23
     2e0:	610b      	str	r3, [r1, #16]
     2e2:	1c0c      	adds	r4, r1, #0
     2e4:	2001      	movs	r0, #1
     2e6:	6963      	ldr	r3, [r4, #20]
     2e8:	4a09      	ldr	r2, [pc, #36]	; (310 <SystemInit+0xd8>)
     2ea:	2101      	movs	r1, #1
     2ec:	4218      	tst	r0, r3
     2ee:	d0fa      	beq.n	2e6 <SystemInit+0xae>
     2f0:	2000      	movs	r0, #0
     2f2:	23c0      	movs	r3, #192	; 0xc0
     2f4:	50d0      	str	r0, [r2, r3]
     2f6:	23c4      	movs	r3, #196	; 0xc4
     2f8:	50d0      	str	r0, [r2, r3]
     2fa:	50d1      	str	r1, [r2, r3]
     2fc:	23c8      	movs	r3, #200	; 0xc8
     2fe:	50d1      	str	r1, [r2, r3]
     300:	2380      	movs	r3, #128	; 0x80
     302:	58d0      	ldr	r0, [r2, r3]
     304:	2180      	movs	r1, #128	; 0x80
     306:	0249      	lsls	r1, r1, #9
     308:	4301      	orrs	r1, r0
     30a:	50d1      	str	r1, [r2, r3]
     30c:	b002      	add	sp, #8
     30e:	bd10      	pop	{r4, pc}
     310:	40048000 	.word	0x40048000
     314:	fffffbff 	.word	0xfffffbff
     318:	fffffeff 	.word	0xfffffeff

0000031c <ModemInit>:
     31c:	4770      	bx	lr
     31e:	46c0      	nop			; (mov r8, r8)

00000320 <UARTInit>:
     320:	4b26      	ldr	r3, [pc, #152]	; (3bc <UARTInit+0x9c>)
     322:	2001      	movs	r0, #1
     324:	b570      	push	{r4, r5, r6, lr}
     326:	7018      	strb	r0, [r3, #0]
     328:	4b25      	ldr	r3, [pc, #148]	; (3c0 <UARTInit+0xa0>)
     32a:	2200      	movs	r2, #0
     32c:	601a      	str	r2, [r3, #0]
     32e:	4b25      	ldr	r3, [pc, #148]	; (3c4 <UARTInit+0xa4>)
     330:	2280      	movs	r2, #128	; 0x80
     332:	2180      	movs	r1, #128	; 0x80
     334:	0392      	lsls	r2, r2, #14
     336:	505a      	str	r2, [r3, r1]
     338:	4b23      	ldr	r3, [pc, #140]	; (3c8 <UARTInit+0xa8>)
     33a:	22c8      	movs	r2, #200	; 0xc8
     33c:	589c      	ldr	r4, [r3, r2]
     33e:	2507      	movs	r5, #7
     340:	43ac      	bics	r4, r5
     342:	509c      	str	r4, [r3, r2]
     344:	589e      	ldr	r6, [r3, r2]
     346:	2402      	movs	r4, #2
     348:	4326      	orrs	r6, r4
     34a:	509e      	str	r6, [r3, r2]
     34c:	22cc      	movs	r2, #204	; 0xcc
     34e:	589e      	ldr	r6, [r3, r2]
     350:	43ae      	bics	r6, r5
     352:	509e      	str	r6, [r3, r2]
     354:	589d      	ldr	r5, [r3, r2]
     356:	432c      	orrs	r4, r5
     358:	509c      	str	r4, [r3, r2]
     35a:	4b1c      	ldr	r3, [pc, #112]	; (3cc <UARTInit+0xac>)
     35c:	2280      	movs	r2, #128	; 0x80
     35e:	585c      	ldr	r4, [r3, r1]
     360:	0152      	lsls	r2, r2, #5
     362:	4322      	orrs	r2, r4
     364:	505a      	str	r2, [r3, r1]
     366:	2298      	movs	r2, #152	; 0x98
     368:	5098      	str	r0, [r3, r2]
     36a:	4b19      	ldr	r3, [pc, #100]	; (3d0 <UARTInit+0xb0>)
     36c:	46c0      	nop			; (mov r8, r8)
     36e:	3b01      	subs	r3, #1
     370:	2b00      	cmp	r3, #0
     372:	d1fb      	bne.n	36c <UARTInit+0x4c>
     374:	4817      	ldr	r0, [pc, #92]	; (3d4 <UARTInit+0xb4>)
     376:	2283      	movs	r2, #131	; 0x83
     378:	60c2      	str	r2, [r0, #12]
     37a:	6043      	str	r3, [r0, #4]
     37c:	23fa      	movs	r3, #250	; 0xfa
     37e:	6003      	str	r3, [r0, #0]
     380:	2341      	movs	r3, #65	; 0x41
     382:	6283      	str	r3, [r0, #40]	; 0x28
     384:	2303      	movs	r3, #3
     386:	60c3      	str	r3, [r0, #12]
     388:	2307      	movs	r3, #7
     38a:	6083      	str	r3, [r0, #8]
     38c:	6943      	ldr	r3, [r0, #20]
     38e:	2160      	movs	r1, #96	; 0x60
     390:	6943      	ldr	r3, [r0, #20]
     392:	4a10      	ldr	r2, [pc, #64]	; (3d4 <UARTInit+0xb4>)
     394:	400b      	ands	r3, r1
     396:	2b60      	cmp	r3, #96	; 0x60
     398:	d1fa      	bne.n	390 <UARTInit+0x70>
     39a:	6953      	ldr	r3, [r2, #20]
     39c:	07d9      	lsls	r1, r3, #31
     39e:	d505      	bpl.n	3ac <UARTInit+0x8c>
     3a0:	1c13      	adds	r3, r2, #0
     3a2:	2101      	movs	r1, #1
     3a4:	681a      	ldr	r2, [r3, #0]
     3a6:	695a      	ldr	r2, [r3, #20]
     3a8:	4211      	tst	r1, r2
     3aa:	d1fb      	bne.n	3a4 <UARTInit+0x84>
     3ac:	4b05      	ldr	r3, [pc, #20]	; (3c4 <UARTInit+0xa4>)
     3ae:	2280      	movs	r2, #128	; 0x80
     3b0:	0392      	lsls	r2, r2, #14
     3b2:	601a      	str	r2, [r3, #0]
     3b4:	4b07      	ldr	r3, [pc, #28]	; (3d4 <UARTInit+0xb4>)
     3b6:	2205      	movs	r2, #5
     3b8:	605a      	str	r2, [r3, #4]
     3ba:	bd70      	pop	{r4, r5, r6, pc}
     3bc:	100000c4 	.word	0x100000c4
     3c0:	10000988 	.word	0x10000988
     3c4:	e000e100 	.word	0xe000e100
     3c8:	40044000 	.word	0x40044000
     3cc:	40048000 	.word	0x40048000
     3d0:	000186a0 	.word	0x000186a0
     3d4:	40008000 	.word	0x40008000

000003d8 <UARTSend>:
     3d8:	b510      	push	{r4, lr}
     3da:	1844      	adds	r4, r0, r1
     3dc:	2900      	cmp	r1, #0
     3de:	d009      	beq.n	3f4 <UARTSend+0x1c>
     3e0:	4a05      	ldr	r2, [pc, #20]	; (3f8 <UARTSend+0x20>)
     3e2:	2120      	movs	r1, #32
     3e4:	6953      	ldr	r3, [r2, #20]
     3e6:	4219      	tst	r1, r3
     3e8:	d0fc      	beq.n	3e4 <UARTSend+0xc>
     3ea:	7803      	ldrb	r3, [r0, #0]
     3ec:	3001      	adds	r0, #1
     3ee:	6013      	str	r3, [r2, #0]
     3f0:	42a0      	cmp	r0, r4
     3f2:	d1f7      	bne.n	3e4 <UARTSend+0xc>
     3f4:	bd10      	pop	{r4, pc}
     3f6:	46c0      	nop			; (mov r8, r8)
     3f8:	40008000 	.word	0x40008000

000003fc <UART_IRQHandler>:
     3fc:	b508      	push	{r3, lr}
     3fe:	4a14      	ldr	r2, [pc, #80]	; (450 <UART_IRQHandler+0x54>)
     400:	6893      	ldr	r3, [r2, #8]
     402:	071b      	lsls	r3, r3, #28
     404:	0f5b      	lsrs	r3, r3, #29
     406:	2b03      	cmp	r3, #3
     408:	d002      	beq.n	410 <UART_IRQHandler+0x14>
     40a:	2b02      	cmp	r3, #2
     40c:	d013      	beq.n	436 <UART_IRQHandler+0x3a>
     40e:	bd08      	pop	{r3, pc}
     410:	6953      	ldr	r3, [r2, #20]
     412:	219e      	movs	r1, #158	; 0x9e
     414:	4219      	tst	r1, r3
     416:	d10c      	bne.n	432 <UART_IRQHandler+0x36>
     418:	07d9      	lsls	r1, r3, #31
     41a:	d5f8      	bpl.n	40e <UART_IRQHandler+0x12>
     41c:	4b0d      	ldr	r3, [pc, #52]	; (454 <UART_IRQHandler+0x58>)
     41e:	480e      	ldr	r0, [pc, #56]	; (458 <UART_IRQHandler+0x5c>)
     420:	681b      	ldr	r3, [r3, #0]
     422:	6811      	ldr	r1, [r2, #0]
     424:	4a0d      	ldr	r2, [pc, #52]	; (45c <UART_IRQHandler+0x60>)
     426:	b2c9      	uxtb	r1, r1
     428:	54d1      	strb	r1, [r2, r3]
     42a:	2103      	movs	r1, #3
     42c:	f7ff ffd4 	bl	3d8 <UARTSend>
     430:	e7ed      	b.n	40e <UART_IRQHandler+0x12>
     432:	6813      	ldr	r3, [r2, #0]
     434:	e7eb      	b.n	40e <UART_IRQHandler+0x12>
     436:	4b07      	ldr	r3, [pc, #28]	; (454 <UART_IRQHandler+0x58>)
     438:	6819      	ldr	r1, [r3, #0]
     43a:	6810      	ldr	r0, [r2, #0]
     43c:	4a07      	ldr	r2, [pc, #28]	; (45c <UART_IRQHandler+0x60>)
     43e:	b2c0      	uxtb	r0, r0
     440:	5450      	strb	r0, [r2, r1]
     442:	3101      	adds	r1, #1
     444:	6019      	str	r1, [r3, #0]
     446:	4806      	ldr	r0, [pc, #24]	; (460 <UART_IRQHandler+0x64>)
     448:	2103      	movs	r1, #3
     44a:	f7ff ffc5 	bl	3d8 <UARTSend>
     44e:	e7de      	b.n	40e <UART_IRQHandler+0x12>
     450:	40008000 	.word	0x40008000
     454:	1000098c 	.word	0x1000098c
     458:	00002c00 	.word	0x00002c00
     45c:	10000a18 	.word	0x10000a18
     460:	00002c04 	.word	0x00002c04

00000464 <main>:
     464:	b538      	push	{r3, r4, r5, lr}
     466:	4d17      	ldr	r5, [pc, #92]	; (4c4 <main+0x60>)
     468:	f7ff fe98 	bl	19c <SystemCoreClockUpdate>
     46c:	2380      	movs	r3, #128	; 0x80
     46e:	58e9      	ldr	r1, [r5, r3]
     470:	4a15      	ldr	r2, [pc, #84]	; (4c8 <main+0x64>)
     472:	24a0      	movs	r4, #160	; 0xa0
     474:	400a      	ands	r2, r1
     476:	4915      	ldr	r1, [pc, #84]	; (4cc <main+0x68>)
     478:	05e4      	lsls	r4, r4, #23
     47a:	430a      	orrs	r2, r1
     47c:	50ea      	str	r2, [r5, r3]
     47e:	4a14      	ldr	r2, [pc, #80]	; (4d0 <main+0x6c>)
     480:	2184      	movs	r1, #132	; 0x84
     482:	50d3      	str	r3, [r2, r3]
     484:	5053      	str	r3, [r2, r1]
     486:	2188      	movs	r1, #136	; 0x88
     488:	5053      	str	r3, [r2, r1]
     48a:	218c      	movs	r1, #140	; 0x8c
     48c:	5053      	str	r3, [r2, r1]
     48e:	4b11      	ldr	r3, [pc, #68]	; (4d4 <main+0x70>)
     490:	22f0      	movs	r2, #240	; 0xf0
     492:	0112      	lsls	r2, r2, #4
     494:	2096      	movs	r0, #150	; 0x96
     496:	50e2      	str	r2, [r4, r3]
     498:	0180      	lsls	r0, r0, #6
     49a:	f7ff ff41 	bl	320 <UARTInit>
     49e:	23fd      	movs	r3, #253	; 0xfd
     4a0:	009b      	lsls	r3, r3, #2
     4a2:	58e9      	ldr	r1, [r5, r3]
     4a4:	480c      	ldr	r0, [pc, #48]	; (4d8 <main+0x74>)
     4a6:	f000 f8ad 	bl	604 <iprintf>
     4aa:	4b0c      	ldr	r3, [pc, #48]	; (4dc <main+0x78>)
     4ac:	2280      	movs	r2, #128	; 0x80
     4ae:	58e1      	ldr	r1, [r4, r3]
     4b0:	0092      	lsls	r2, r2, #2
     4b2:	430a      	orrs	r2, r1
     4b4:	50e2      	str	r2, [r4, r3]
     4b6:	58e1      	ldr	r1, [r4, r3]
     4b8:	2280      	movs	r2, #128	; 0x80
     4ba:	00d2      	lsls	r2, r2, #3
     4bc:	430a      	orrs	r2, r1
     4be:	50e2      	str	r2, [r4, r3]
     4c0:	e7fe      	b.n	4c0 <main+0x5c>
     4c2:	46c0      	nop			; (mov r8, r8)
     4c4:	40048000 	.word	0x40048000
     4c8:	098cffbf 	.word	0x098cffbf
     4cc:	00010040 	.word	0x00010040
     4d0:	40044000 	.word	0x40044000
     4d4:	00002004 	.word	0x00002004
     4d8:	00002bd8 	.word	0x00002bd8
     4dc:	00002104 	.word	0x00002104

000004e0 <_read_r>:
     4e0:	b508      	push	{r3, lr}
     4e2:	f000 f889 	bl	5f8 <__errno>
     4e6:	2316      	movs	r3, #22
     4e8:	6003      	str	r3, [r0, #0]
     4ea:	2001      	movs	r0, #1
     4ec:	4240      	negs	r0, r0
     4ee:	bd08      	pop	{r3, pc}

000004f0 <_lseek_r>:
     4f0:	2000      	movs	r0, #0
     4f2:	4770      	bx	lr

000004f4 <_write_r>:
     4f4:	b510      	push	{r4, lr}
     4f6:	1c10      	adds	r0, r2, #0
     4f8:	1c19      	adds	r1, r3, #0
     4fa:	1c1c      	adds	r4, r3, #0
     4fc:	f7ff ff6c 	bl	3d8 <UARTSend>
     500:	1c20      	adds	r0, r4, #0
     502:	bd10      	pop	{r4, pc}

00000504 <_close_r>:
     504:	2000      	movs	r0, #0
     506:	4770      	bx	lr

00000508 <_sbrk_r>:
     508:	b508      	push	{r3, lr}
     50a:	4b0a      	ldr	r3, [pc, #40]	; (534 <_sbrk_r+0x2c>)
     50c:	6818      	ldr	r0, [r3, #0]
     50e:	2800      	cmp	r0, #0
     510:	d00c      	beq.n	52c <_sbrk_r+0x24>
     512:	1841      	adds	r1, r0, r1
     514:	466a      	mov	r2, sp
     516:	4291      	cmp	r1, r2
     518:	d801      	bhi.n	51e <_sbrk_r+0x16>
     51a:	6019      	str	r1, [r3, #0]
     51c:	bd08      	pop	{r3, pc}
     51e:	f000 f86b 	bl	5f8 <__errno>
     522:	230c      	movs	r3, #12
     524:	6003      	str	r3, [r0, #0]
     526:	2001      	movs	r0, #1
     528:	4240      	negs	r0, r0
     52a:	e7f7      	b.n	51c <_sbrk_r+0x14>
     52c:	4802      	ldr	r0, [pc, #8]	; (538 <_sbrk_r+0x30>)
     52e:	6018      	str	r0, [r3, #0]
     530:	e7ef      	b.n	512 <_sbrk_r+0xa>
     532:	46c0      	nop			; (mov r8, r8)
     534:	10000990 	.word	0x10000990
     538:	10000a7c 	.word	0x10000a7c

0000053c <_fstat_r>:
     53c:	b510      	push	{r4, lr}
     53e:	1c10      	adds	r0, r2, #0
     540:	1c14      	adds	r4, r2, #0
     542:	2100      	movs	r1, #0
     544:	223c      	movs	r2, #60	; 0x3c
     546:	f000 f87d 	bl	644 <memset>
     54a:	2380      	movs	r3, #128	; 0x80
     54c:	019b      	lsls	r3, r3, #6
     54e:	2000      	movs	r0, #0
     550:	6063      	str	r3, [r4, #4]
     552:	bd10      	pop	{r4, pc}

00000554 <_isatty_r>:
     554:	2001      	movs	r0, #1
     556:	4770      	bx	lr

00000558 <__aeabi_uidiv>:
     558:	2900      	cmp	r1, #0
     55a:	d034      	beq.n	5c6 <.udivsi3_skip_div0_test+0x6a>

0000055c <.udivsi3_skip_div0_test>:
     55c:	2301      	movs	r3, #1
     55e:	2200      	movs	r2, #0
     560:	b410      	push	{r4}
     562:	4288      	cmp	r0, r1
     564:	d32c      	bcc.n	5c0 <.udivsi3_skip_div0_test+0x64>
     566:	2401      	movs	r4, #1
     568:	0724      	lsls	r4, r4, #28
     56a:	42a1      	cmp	r1, r4
     56c:	d204      	bcs.n	578 <.udivsi3_skip_div0_test+0x1c>
     56e:	4281      	cmp	r1, r0
     570:	d202      	bcs.n	578 <.udivsi3_skip_div0_test+0x1c>
     572:	0109      	lsls	r1, r1, #4
     574:	011b      	lsls	r3, r3, #4
     576:	e7f8      	b.n	56a <.udivsi3_skip_div0_test+0xe>
     578:	00e4      	lsls	r4, r4, #3
     57a:	42a1      	cmp	r1, r4
     57c:	d204      	bcs.n	588 <.udivsi3_skip_div0_test+0x2c>
     57e:	4281      	cmp	r1, r0
     580:	d202      	bcs.n	588 <.udivsi3_skip_div0_test+0x2c>
     582:	0049      	lsls	r1, r1, #1
     584:	005b      	lsls	r3, r3, #1
     586:	e7f8      	b.n	57a <.udivsi3_skip_div0_test+0x1e>
     588:	4288      	cmp	r0, r1
     58a:	d301      	bcc.n	590 <.udivsi3_skip_div0_test+0x34>
     58c:	1a40      	subs	r0, r0, r1
     58e:	431a      	orrs	r2, r3
     590:	084c      	lsrs	r4, r1, #1
     592:	42a0      	cmp	r0, r4
     594:	d302      	bcc.n	59c <.udivsi3_skip_div0_test+0x40>
     596:	1b00      	subs	r0, r0, r4
     598:	085c      	lsrs	r4, r3, #1
     59a:	4322      	orrs	r2, r4
     59c:	088c      	lsrs	r4, r1, #2
     59e:	42a0      	cmp	r0, r4
     5a0:	d302      	bcc.n	5a8 <.udivsi3_skip_div0_test+0x4c>
     5a2:	1b00      	subs	r0, r0, r4
     5a4:	089c      	lsrs	r4, r3, #2
     5a6:	4322      	orrs	r2, r4
     5a8:	08cc      	lsrs	r4, r1, #3
     5aa:	42a0      	cmp	r0, r4
     5ac:	d302      	bcc.n	5b4 <.udivsi3_skip_div0_test+0x58>
     5ae:	1b00      	subs	r0, r0, r4
     5b0:	08dc      	lsrs	r4, r3, #3
     5b2:	4322      	orrs	r2, r4
     5b4:	2800      	cmp	r0, #0
     5b6:	d003      	beq.n	5c0 <.udivsi3_skip_div0_test+0x64>
     5b8:	091b      	lsrs	r3, r3, #4
     5ba:	d001      	beq.n	5c0 <.udivsi3_skip_div0_test+0x64>
     5bc:	0909      	lsrs	r1, r1, #4
     5be:	e7e3      	b.n	588 <.udivsi3_skip_div0_test+0x2c>
     5c0:	1c10      	adds	r0, r2, #0
     5c2:	bc10      	pop	{r4}
     5c4:	4770      	bx	lr
     5c6:	2800      	cmp	r0, #0
     5c8:	d001      	beq.n	5ce <.udivsi3_skip_div0_test+0x72>
     5ca:	2000      	movs	r0, #0
     5cc:	43c0      	mvns	r0, r0
     5ce:	b407      	push	{r0, r1, r2}
     5d0:	4802      	ldr	r0, [pc, #8]	; (5dc <.udivsi3_skip_div0_test+0x80>)
     5d2:	a102      	add	r1, pc, #8	; (adr r1, 5dc <.udivsi3_skip_div0_test+0x80>)
     5d4:	1840      	adds	r0, r0, r1
     5d6:	9002      	str	r0, [sp, #8]
     5d8:	bd03      	pop	{r0, r1, pc}
     5da:	46c0      	nop			; (mov r8, r8)
     5dc:	00000019 	.word	0x00000019

000005e0 <__aeabi_uidivmod>:
     5e0:	2900      	cmp	r1, #0
     5e2:	d0f0      	beq.n	5c6 <.udivsi3_skip_div0_test+0x6a>
     5e4:	b503      	push	{r0, r1, lr}
     5e6:	f7ff ffb9 	bl	55c <.udivsi3_skip_div0_test>
     5ea:	bc0e      	pop	{r1, r2, r3}
     5ec:	4342      	muls	r2, r0
     5ee:	1a89      	subs	r1, r1, r2
     5f0:	4718      	bx	r3
     5f2:	46c0      	nop			; (mov r8, r8)

000005f4 <__aeabi_idiv0>:
     5f4:	4770      	bx	lr
     5f6:	46c0      	nop			; (mov r8, r8)

000005f8 <__errno>:
     5f8:	4b01      	ldr	r3, [pc, #4]	; (600 <__errno+0x8>)
     5fa:	6818      	ldr	r0, [r3, #0]
     5fc:	4770      	bx	lr
     5fe:	46c0      	nop			; (mov r8, r8)
     600:	100000c8 	.word	0x100000c8

00000604 <iprintf>:
     604:	b40f      	push	{r0, r1, r2, r3}
     606:	b500      	push	{lr}
     608:	b083      	sub	sp, #12
     60a:	ab04      	add	r3, sp, #16
     60c:	cb04      	ldmia	r3!, {r2}
     60e:	4a05      	ldr	r2, [pc, #20]	; (624 <iprintf+0x20>)
     610:	9301      	str	r3, [sp, #4]
     612:	6810      	ldr	r0, [r2, #0]
     614:	9a04      	ldr	r2, [sp, #16]
     616:	6881      	ldr	r1, [r0, #8]
     618:	f000 f89c 	bl	754 <_vfiprintf_r>
     61c:	b003      	add	sp, #12
     61e:	bc08      	pop	{r3}
     620:	b004      	add	sp, #16
     622:	4718      	bx	r3
     624:	100000c8 	.word	0x100000c8

00000628 <_iprintf_r>:
     628:	b40e      	push	{r1, r2, r3}
     62a:	b500      	push	{lr}
     62c:	b082      	sub	sp, #8
     62e:	ab03      	add	r3, sp, #12
     630:	cb04      	ldmia	r3!, {r2}
     632:	6881      	ldr	r1, [r0, #8]
     634:	9301      	str	r3, [sp, #4]
     636:	f000 f88d 	bl	754 <_vfiprintf_r>
     63a:	b002      	add	sp, #8
     63c:	bc08      	pop	{r3}
     63e:	b003      	add	sp, #12
     640:	4718      	bx	r3
     642:	46c0      	nop			; (mov r8, r8)

00000644 <memset>:
     644:	b570      	push	{r4, r5, r6, lr}
     646:	0783      	lsls	r3, r0, #30
     648:	d03e      	beq.n	6c8 <memset+0x84>
     64a:	1e54      	subs	r4, r2, #1
     64c:	2a00      	cmp	r2, #0
     64e:	d03a      	beq.n	6c6 <memset+0x82>
     650:	b2ce      	uxtb	r6, r1
     652:	1c03      	adds	r3, r0, #0
     654:	2503      	movs	r5, #3
     656:	e003      	b.n	660 <memset+0x1c>
     658:	1e62      	subs	r2, r4, #1
     65a:	2c00      	cmp	r4, #0
     65c:	d033      	beq.n	6c6 <memset+0x82>
     65e:	1c14      	adds	r4, r2, #0
     660:	701e      	strb	r6, [r3, #0]
     662:	3301      	adds	r3, #1
     664:	422b      	tst	r3, r5
     666:	d1f7      	bne.n	658 <memset+0x14>
     668:	2c03      	cmp	r4, #3
     66a:	d924      	bls.n	6b6 <memset+0x72>
     66c:	22ff      	movs	r2, #255	; 0xff
     66e:	400a      	ands	r2, r1
     670:	0215      	lsls	r5, r2, #8
     672:	432a      	orrs	r2, r5
     674:	0415      	lsls	r5, r2, #16
     676:	432a      	orrs	r2, r5
     678:	2c0f      	cmp	r4, #15
     67a:	d928      	bls.n	6ce <memset+0x8a>
     67c:	1c26      	adds	r6, r4, #0
     67e:	3e10      	subs	r6, #16
     680:	0936      	lsrs	r6, r6, #4
     682:	3601      	adds	r6, #1
     684:	0136      	lsls	r6, r6, #4
     686:	199e      	adds	r6, r3, r6
     688:	601a      	str	r2, [r3, #0]
     68a:	605a      	str	r2, [r3, #4]
     68c:	609a      	str	r2, [r3, #8]
     68e:	60da      	str	r2, [r3, #12]
     690:	3310      	adds	r3, #16
     692:	429e      	cmp	r6, r3
     694:	d1f8      	bne.n	688 <memset+0x44>
     696:	230f      	movs	r3, #15
     698:	401c      	ands	r4, r3
     69a:	1c35      	adds	r5, r6, #0
     69c:	1c33      	adds	r3, r6, #0
     69e:	2c03      	cmp	r4, #3
     6a0:	d909      	bls.n	6b6 <memset+0x72>
     6a2:	1f23      	subs	r3, r4, #4
     6a4:	089b      	lsrs	r3, r3, #2
     6a6:	3301      	adds	r3, #1
     6a8:	009b      	lsls	r3, r3, #2
     6aa:	18eb      	adds	r3, r5, r3
     6ac:	c504      	stmia	r5!, {r2}
     6ae:	429d      	cmp	r5, r3
     6b0:	d1fc      	bne.n	6ac <memset+0x68>
     6b2:	2203      	movs	r2, #3
     6b4:	4014      	ands	r4, r2
     6b6:	2c00      	cmp	r4, #0
     6b8:	d005      	beq.n	6c6 <memset+0x82>
     6ba:	b2c9      	uxtb	r1, r1
     6bc:	191c      	adds	r4, r3, r4
     6be:	7019      	strb	r1, [r3, #0]
     6c0:	3301      	adds	r3, #1
     6c2:	42a3      	cmp	r3, r4
     6c4:	d1fb      	bne.n	6be <memset+0x7a>
     6c6:	bd70      	pop	{r4, r5, r6, pc}
     6c8:	1c03      	adds	r3, r0, #0
     6ca:	1c14      	adds	r4, r2, #0
     6cc:	e7cc      	b.n	668 <memset+0x24>
     6ce:	1c1d      	adds	r5, r3, #0
     6d0:	e7e7      	b.n	6a2 <memset+0x5e>
     6d2:	46c0      	nop			; (mov r8, r8)

000006d4 <__sprint_r>:
     6d4:	b5f0      	push	{r4, r5, r6, r7, lr}
     6d6:	6893      	ldr	r3, [r2, #8]
     6d8:	464e      	mov	r6, r9
     6da:	4645      	mov	r5, r8
     6dc:	4657      	mov	r7, sl
     6de:	b4e0      	push	{r5, r6, r7}
     6e0:	4680      	mov	r8, r0
     6e2:	1c0e      	adds	r6, r1, #0
     6e4:	4691      	mov	r9, r2
     6e6:	2b00      	cmp	r3, #0
     6e8:	d02c      	beq.n	744 <__sprint_r+0x70>
     6ea:	6e49      	ldr	r1, [r1, #100]	; 0x64
     6ec:	0489      	lsls	r1, r1, #18
     6ee:	d52c      	bpl.n	74a <__sprint_r+0x76>
     6f0:	6812      	ldr	r2, [r2, #0]
     6f2:	4692      	mov	sl, r2
     6f4:	4652      	mov	r2, sl
     6f6:	6852      	ldr	r2, [r2, #4]
     6f8:	4651      	mov	r1, sl
     6fa:	0897      	lsrs	r7, r2, #2
     6fc:	680d      	ldr	r5, [r1, #0]
     6fe:	2400      	movs	r4, #0
     700:	2f00      	cmp	r7, #0
     702:	dc03      	bgt.n	70c <__sprint_r+0x38>
     704:	e014      	b.n	730 <__sprint_r+0x5c>
     706:	3401      	adds	r4, #1
     708:	42a7      	cmp	r7, r4
     70a:	d00f      	beq.n	72c <__sprint_r+0x58>
     70c:	1c32      	adds	r2, r6, #0
     70e:	cd02      	ldmia	r5!, {r1}
     710:	4640      	mov	r0, r8
     712:	f000 ff1f 	bl	1554 <_fputwc_r>
     716:	1c42      	adds	r2, r0, #1
     718:	d1f5      	bne.n	706 <__sprint_r+0x32>
     71a:	2300      	movs	r3, #0
     71c:	464a      	mov	r2, r9
     71e:	6093      	str	r3, [r2, #8]
     720:	6053      	str	r3, [r2, #4]
     722:	bc1c      	pop	{r2, r3, r4}
     724:	4690      	mov	r8, r2
     726:	4699      	mov	r9, r3
     728:	46a2      	mov	sl, r4
     72a:	bdf0      	pop	{r4, r5, r6, r7, pc}
     72c:	4649      	mov	r1, r9
     72e:	688b      	ldr	r3, [r1, #8]
     730:	00bf      	lsls	r7, r7, #2
     732:	1bdb      	subs	r3, r3, r7
     734:	464a      	mov	r2, r9
     736:	2108      	movs	r1, #8
     738:	6093      	str	r3, [r2, #8]
     73a:	448a      	add	sl, r1
     73c:	2b00      	cmp	r3, #0
     73e:	d1d9      	bne.n	6f4 <__sprint_r+0x20>
     740:	2000      	movs	r0, #0
     742:	e7ea      	b.n	71a <__sprint_r+0x46>
     744:	6053      	str	r3, [r2, #4]
     746:	2000      	movs	r0, #0
     748:	e7eb      	b.n	722 <__sprint_r+0x4e>
     74a:	1c31      	adds	r1, r6, #0
     74c:	f001 f898 	bl	1880 <__sfvwrite_r>
     750:	e7e3      	b.n	71a <__sprint_r+0x46>
     752:	46c0      	nop			; (mov r8, r8)

00000754 <_vfiprintf_r>:
     754:	b5f0      	push	{r4, r5, r6, r7, lr}
     756:	4656      	mov	r6, sl
     758:	464d      	mov	r5, r9
     75a:	4644      	mov	r4, r8
     75c:	465f      	mov	r7, fp
     75e:	b4f0      	push	{r4, r5, r6, r7}
     760:	4ccf      	ldr	r4, [pc, #828]	; (aa0 <_vfiprintf_r+0x34c>)
     762:	468a      	mov	sl, r1
     764:	44a5      	add	sp, r4
     766:	9006      	str	r0, [sp, #24]
     768:	1c15      	adds	r5, r2, #0
     76a:	930a      	str	r3, [sp, #40]	; 0x28
     76c:	2800      	cmp	r0, #0
     76e:	d004      	beq.n	77a <_vfiprintf_r+0x26>
     770:	6b80      	ldr	r0, [r0, #56]	; 0x38
     772:	2800      	cmp	r0, #0
     774:	d101      	bne.n	77a <_vfiprintf_r+0x26>
     776:	f000 fc06 	bl	f86 <_vfiprintf_r+0x832>
     77a:	4651      	mov	r1, sl
     77c:	2280      	movs	r2, #128	; 0x80
     77e:	898b      	ldrh	r3, [r1, #12]
     780:	0192      	lsls	r2, r2, #6
     782:	4213      	tst	r3, r2
     784:	d105      	bne.n	792 <_vfiprintf_r+0x3e>
     786:	4313      	orrs	r3, r2
     788:	6e4c      	ldr	r4, [r1, #100]	; 0x64
     78a:	4ac6      	ldr	r2, [pc, #792]	; (aa4 <_vfiprintf_r+0x350>)
     78c:	818b      	strh	r3, [r1, #12]
     78e:	4022      	ands	r2, r4
     790:	664a      	str	r2, [r1, #100]	; 0x64
     792:	0719      	lsls	r1, r3, #28
     794:	d400      	bmi.n	798 <_vfiprintf_r+0x44>
     796:	e38a      	b.n	eae <_vfiprintf_r+0x75a>
     798:	4652      	mov	r2, sl
     79a:	6912      	ldr	r2, [r2, #16]
     79c:	2a00      	cmp	r2, #0
     79e:	d100      	bne.n	7a2 <_vfiprintf_r+0x4e>
     7a0:	e385      	b.n	eae <_vfiprintf_r+0x75a>
     7a2:	221a      	movs	r2, #26
     7a4:	1c19      	adds	r1, r3, #0
     7a6:	4013      	ands	r3, r2
     7a8:	2b0a      	cmp	r3, #10
     7aa:	d100      	bne.n	7ae <_vfiprintf_r+0x5a>
     7ac:	e38e      	b.n	ecc <_vfiprintf_r+0x778>
     7ae:	2400      	movs	r4, #0
     7b0:	940e      	str	r4, [sp, #56]	; 0x38
     7b2:	9408      	str	r4, [sp, #32]
     7b4:	466c      	mov	r4, sp
     7b6:	347f      	adds	r4, #127	; 0x7f
     7b8:	a83a      	add	r0, sp, #232	; 0xe8
     7ba:	9404      	str	r4, [sp, #16]
     7bc:	9013      	str	r0, [sp, #76]	; 0x4c
     7be:	1c06      	adds	r6, r0, #0
     7c0:	9804      	ldr	r0, [sp, #16]
     7c2:	ac20      	add	r4, sp, #128	; 0x80
     7c4:	2300      	movs	r3, #0
     7c6:	9403      	str	r4, [sp, #12]
     7c8:	1a24      	subs	r4, r4, r0
     7ca:	9315      	str	r3, [sp, #84]	; 0x54
     7cc:	9314      	str	r3, [sp, #80]	; 0x50
     7ce:	940f      	str	r4, [sp, #60]	; 0x3c
     7d0:	782b      	ldrb	r3, [r5, #0]
     7d2:	1c2c      	adds	r4, r5, #0
     7d4:	2b25      	cmp	r3, #37	; 0x25
     7d6:	d019      	beq.n	80c <_vfiprintf_r+0xb8>
     7d8:	2b00      	cmp	r3, #0
     7da:	d102      	bne.n	7e2 <_vfiprintf_r+0x8e>
     7dc:	e016      	b.n	80c <_vfiprintf_r+0xb8>
     7de:	2b00      	cmp	r3, #0
     7e0:	d003      	beq.n	7ea <_vfiprintf_r+0x96>
     7e2:	3401      	adds	r4, #1
     7e4:	7823      	ldrb	r3, [r4, #0]
     7e6:	2b25      	cmp	r3, #37	; 0x25
     7e8:	d1f9      	bne.n	7de <_vfiprintf_r+0x8a>
     7ea:	1b67      	subs	r7, r4, r5
     7ec:	d00e      	beq.n	80c <_vfiprintf_r+0xb8>
     7ee:	9915      	ldr	r1, [sp, #84]	; 0x54
     7f0:	6035      	str	r5, [r6, #0]
     7f2:	19cb      	adds	r3, r1, r7
     7f4:	9315      	str	r3, [sp, #84]	; 0x54
     7f6:	9b14      	ldr	r3, [sp, #80]	; 0x50
     7f8:	6077      	str	r7, [r6, #4]
     7fa:	3301      	adds	r3, #1
     7fc:	9314      	str	r3, [sp, #80]	; 0x50
     7fe:	2b07      	cmp	r3, #7
     800:	dd00      	ble.n	804 <_vfiprintf_r+0xb0>
     802:	e398      	b.n	f36 <_vfiprintf_r+0x7e2>
     804:	3608      	adds	r6, #8
     806:	9a08      	ldr	r2, [sp, #32]
     808:	19d2      	adds	r2, r2, r7
     80a:	9208      	str	r2, [sp, #32]
     80c:	7823      	ldrb	r3, [r4, #0]
     80e:	2b00      	cmp	r3, #0
     810:	d101      	bne.n	816 <_vfiprintf_r+0xc2>
     812:	f000 fc28 	bl	1066 <_vfiprintf_r+0x912>
     816:	1c65      	adds	r5, r4, #1
     818:	2447      	movs	r4, #71	; 0x47
     81a:	2300      	movs	r3, #0
     81c:	446c      	add	r4, sp
     81e:	7023      	strb	r3, [r4, #0]
     820:	2401      	movs	r4, #1
     822:	4264      	negs	r4, r4
     824:	46a0      	mov	r8, r4
     826:	2280      	movs	r2, #128	; 0x80
     828:	2400      	movs	r4, #0
     82a:	2304      	movs	r3, #4
     82c:	499e      	ldr	r1, [pc, #632]	; (aa8 <_vfiprintf_r+0x354>)
     82e:	2000      	movs	r0, #0
     830:	9409      	str	r4, [sp, #36]	; 0x24
     832:	46a3      	mov	fp, r4
     834:	2710      	movs	r7, #16
     836:	4691      	mov	r9, r2
     838:	469c      	mov	ip, r3
     83a:	782b      	ldrb	r3, [r5, #0]
     83c:	3501      	adds	r5, #1
     83e:	1c1a      	adds	r2, r3, #0
     840:	3a20      	subs	r2, #32
     842:	2a58      	cmp	r2, #88	; 0x58
     844:	d90f      	bls.n	866 <_vfiprintf_r+0x112>
     846:	2447      	movs	r4, #71	; 0x47
     848:	446c      	add	r4, sp
     84a:	7020      	strb	r0, [r4, #0]
     84c:	2b00      	cmp	r3, #0
     84e:	d101      	bne.n	854 <_vfiprintf_r+0x100>
     850:	f000 fc09 	bl	1066 <_vfiprintf_r+0x912>
     854:	aa16      	add	r2, sp, #88	; 0x58
     856:	7013      	strb	r3, [r2, #0]
     858:	2300      	movs	r3, #0
     85a:	7023      	strb	r3, [r4, #0]
     85c:	2401      	movs	r4, #1
     85e:	9405      	str	r4, [sp, #20]
     860:	9407      	str	r4, [sp, #28]
     862:	920d      	str	r2, [sp, #52]	; 0x34
     864:	e149      	b.n	afa <_vfiprintf_r+0x3a6>
     866:	0092      	lsls	r2, r2, #2
     868:	588a      	ldr	r2, [r1, r2]
     86a:	4697      	mov	pc, r2
     86c:	465c      	mov	r4, fp
     86e:	2310      	movs	r3, #16
     870:	431c      	orrs	r4, r3
     872:	46a3      	mov	fp, r4
     874:	4658      	mov	r0, fp
     876:	06c0      	lsls	r0, r0, #27
     878:	d400      	bmi.n	87c <_vfiprintf_r+0x128>
     87a:	e3bb      	b.n	ff4 <_vfiprintf_r+0x8a0>
     87c:	9c0a      	ldr	r4, [sp, #40]	; 0x28
     87e:	6827      	ldr	r7, [r4, #0]
     880:	1c39      	adds	r1, r7, #0
     882:	3404      	adds	r4, #4
     884:	1e4b      	subs	r3, r1, #1
     886:	4199      	sbcs	r1, r3
     888:	940a      	str	r4, [sp, #40]	; 0x28
     88a:	2301      	movs	r3, #1
     88c:	2047      	movs	r0, #71	; 0x47
     88e:	2200      	movs	r2, #0
     890:	4468      	add	r0, sp
     892:	7002      	strb	r2, [r0, #0]
     894:	2400      	movs	r4, #0
     896:	4642      	mov	r2, r8
     898:	2a00      	cmp	r2, #0
     89a:	db03      	blt.n	8a4 <_vfiprintf_r+0x150>
     89c:	4658      	mov	r0, fp
     89e:	2280      	movs	r2, #128	; 0x80
     8a0:	4390      	bics	r0, r2
     8a2:	4683      	mov	fp, r0
     8a4:	4642      	mov	r2, r8
     8a6:	2a00      	cmp	r2, #0
     8a8:	d102      	bne.n	8b0 <_vfiprintf_r+0x15c>
     8aa:	2900      	cmp	r1, #0
     8ac:	d100      	bne.n	8b0 <_vfiprintf_r+0x15c>
     8ae:	e275      	b.n	d9c <_vfiprintf_r+0x648>
     8b0:	2b01      	cmp	r3, #1
     8b2:	d100      	bne.n	8b6 <_vfiprintf_r+0x162>
     8b4:	e371      	b.n	f9a <_vfiprintf_r+0x846>
     8b6:	2b02      	cmp	r3, #2
     8b8:	d100      	bne.n	8bc <_vfiprintf_r+0x168>
     8ba:	e389      	b.n	fd0 <_vfiprintf_r+0x87c>
     8bc:	466b      	mov	r3, sp
     8be:	337f      	adds	r3, #127	; 0x7f
     8c0:	2107      	movs	r1, #7
     8c2:	1c0a      	adds	r2, r1, #0
     8c4:	403a      	ands	r2, r7
     8c6:	3230      	adds	r2, #48	; 0x30
     8c8:	1c18      	adds	r0, r3, #0
     8ca:	701a      	strb	r2, [r3, #0]
     8cc:	08ff      	lsrs	r7, r7, #3
     8ce:	3b01      	subs	r3, #1
     8d0:	2f00      	cmp	r7, #0
     8d2:	d1f6      	bne.n	8c2 <_vfiprintf_r+0x16e>
     8d4:	900d      	str	r0, [sp, #52]	; 0x34
     8d6:	1c01      	adds	r1, r0, #0
     8d8:	4658      	mov	r0, fp
     8da:	07c0      	lsls	r0, r0, #31
     8dc:	d400      	bmi.n	8e0 <_vfiprintf_r+0x18c>
     8de:	e3a9      	b.n	1034 <_vfiprintf_r+0x8e0>
     8e0:	2a30      	cmp	r2, #48	; 0x30
     8e2:	d101      	bne.n	8e8 <_vfiprintf_r+0x194>
     8e4:	f000 fbf4 	bl	10d0 <_vfiprintf_r+0x97c>
     8e8:	930d      	str	r3, [sp, #52]	; 0x34
     8ea:	3901      	subs	r1, #1
     8ec:	2330      	movs	r3, #48	; 0x30
     8ee:	700b      	strb	r3, [r1, #0]
     8f0:	9a0d      	ldr	r2, [sp, #52]	; 0x34
     8f2:	9903      	ldr	r1, [sp, #12]
     8f4:	1a89      	subs	r1, r1, r2
     8f6:	9107      	str	r1, [sp, #28]
     8f8:	e25e      	b.n	db8 <_vfiprintf_r+0x664>
     8fa:	4658      	mov	r0, fp
     8fc:	2310      	movs	r3, #16
     8fe:	4318      	orrs	r0, r3
     900:	4683      	mov	fp, r0
     902:	4659      	mov	r1, fp
     904:	06c9      	lsls	r1, r1, #27
     906:	d400      	bmi.n	90a <_vfiprintf_r+0x1b6>
     908:	e37b      	b.n	1002 <_vfiprintf_r+0x8ae>
     90a:	9c0a      	ldr	r4, [sp, #40]	; 0x28
     90c:	6827      	ldr	r7, [r4, #0]
     90e:	1c39      	adds	r1, r7, #0
     910:	3404      	adds	r4, #4
     912:	1e4b      	subs	r3, r1, #1
     914:	4199      	sbcs	r1, r3
     916:	940a      	str	r4, [sp, #40]	; 0x28
     918:	2300      	movs	r3, #0
     91a:	e7b7      	b.n	88c <_vfiprintf_r+0x138>
     91c:	9c0a      	ldr	r4, [sp, #40]	; 0x28
     91e:	6824      	ldr	r4, [r4, #0]
     920:	9409      	str	r4, [sp, #36]	; 0x24
     922:	9c0a      	ldr	r4, [sp, #40]	; 0x28
     924:	3404      	adds	r4, #4
     926:	940a      	str	r4, [sp, #40]	; 0x28
     928:	9c09      	ldr	r4, [sp, #36]	; 0x24
     92a:	2c00      	cmp	r4, #0
     92c:	da85      	bge.n	83a <_vfiprintf_r+0xe6>
     92e:	4264      	negs	r4, r4
     930:	9409      	str	r4, [sp, #36]	; 0x24
     932:	465a      	mov	r2, fp
     934:	4663      	mov	r3, ip
     936:	431a      	orrs	r2, r3
     938:	4693      	mov	fp, r2
     93a:	e77e      	b.n	83a <_vfiprintf_r+0xe6>
     93c:	9c0a      	ldr	r4, [sp, #40]	; 0x28
     93e:	2047      	movs	r0, #71	; 0x47
     940:	9f0a      	ldr	r7, [sp, #40]	; 0x28
     942:	6824      	ldr	r4, [r4, #0]
     944:	2300      	movs	r3, #0
     946:	4468      	add	r0, sp
     948:	7003      	strb	r3, [r0, #0]
     94a:	3704      	adds	r7, #4
     94c:	940d      	str	r4, [sp, #52]	; 0x34
     94e:	2c00      	cmp	r4, #0
     950:	d100      	bne.n	954 <_vfiprintf_r+0x200>
     952:	e3b2      	b.n	10ba <_vfiprintf_r+0x966>
     954:	4640      	mov	r0, r8
     956:	2800      	cmp	r0, #0
     958:	da00      	bge.n	95c <_vfiprintf_r+0x208>
     95a:	e3a3      	b.n	10a4 <_vfiprintf_r+0x950>
     95c:	980d      	ldr	r0, [sp, #52]	; 0x34
     95e:	2100      	movs	r1, #0
     960:	4642      	mov	r2, r8
     962:	f001 fca3 	bl	22ac <memchr>
     966:	2800      	cmp	r0, #0
     968:	d100      	bne.n	96c <_vfiprintf_r+0x218>
     96a:	e392      	b.n	1092 <_vfiprintf_r+0x93e>
     96c:	9c0d      	ldr	r4, [sp, #52]	; 0x34
     96e:	1b00      	subs	r0, r0, r4
     970:	9007      	str	r0, [sp, #28]
     972:	4540      	cmp	r0, r8
     974:	dd00      	ble.n	978 <_vfiprintf_r+0x224>
     976:	e38c      	b.n	1092 <_vfiprintf_r+0x93e>
     978:	2047      	movs	r0, #71	; 0x47
     97a:	4468      	add	r0, sp
     97c:	2100      	movs	r1, #0
     97e:	7804      	ldrb	r4, [r0, #0]
     980:	970a      	str	r7, [sp, #40]	; 0x28
     982:	910b      	str	r1, [sp, #44]	; 0x2c
     984:	e21a      	b.n	dbc <_vfiprintf_r+0x668>
     986:	2147      	movs	r1, #71	; 0x47
     988:	4469      	add	r1, sp
     98a:	4c48      	ldr	r4, [pc, #288]	; (aac <_vfiprintf_r+0x358>)
     98c:	7008      	strb	r0, [r1, #0]
     98e:	4658      	mov	r0, fp
     990:	940e      	str	r4, [sp, #56]	; 0x38
     992:	06c0      	lsls	r0, r0, #27
     994:	d400      	bmi.n	998 <_vfiprintf_r+0x244>
     996:	e1c3      	b.n	d20 <_vfiprintf_r+0x5cc>
     998:	9c0a      	ldr	r4, [sp, #40]	; 0x28
     99a:	6827      	ldr	r7, [r4, #0]
     99c:	3404      	adds	r4, #4
     99e:	940a      	str	r4, [sp, #40]	; 0x28
     9a0:	4658      	mov	r0, fp
     9a2:	07c0      	lsls	r0, r0, #31
     9a4:	d500      	bpl.n	9a8 <_vfiprintf_r+0x254>
     9a6:	e1c7      	b.n	d38 <_vfiprintf_r+0x5e4>
     9a8:	1c39      	adds	r1, r7, #0
     9aa:	1e4b      	subs	r3, r1, #1
     9ac:	4199      	sbcs	r1, r3
     9ae:	2302      	movs	r3, #2
     9b0:	e76c      	b.n	88c <_vfiprintf_r+0x138>
     9b2:	2247      	movs	r2, #71	; 0x47
     9b4:	446a      	add	r2, sp
     9b6:	465b      	mov	r3, fp
     9b8:	7010      	strb	r0, [r2, #0]
     9ba:	06db      	lsls	r3, r3, #27
     9bc:	d500      	bpl.n	9c0 <_vfiprintf_r+0x26c>
     9be:	e33d      	b.n	103c <_vfiprintf_r+0x8e8>
     9c0:	4658      	mov	r0, fp
     9c2:	0640      	lsls	r0, r0, #25
     9c4:	d400      	bmi.n	9c8 <_vfiprintf_r+0x274>
     9c6:	e339      	b.n	103c <_vfiprintf_r+0x8e8>
     9c8:	990a      	ldr	r1, [sp, #40]	; 0x28
     9ca:	9c0a      	ldr	r4, [sp, #40]	; 0x28
     9cc:	466a      	mov	r2, sp
     9ce:	2320      	movs	r3, #32
     9d0:	6809      	ldr	r1, [r1, #0]
     9d2:	5a9b      	ldrh	r3, [r3, r2]
     9d4:	3404      	adds	r4, #4
     9d6:	9101      	str	r1, [sp, #4]
     9d8:	800b      	strh	r3, [r1, #0]
     9da:	940a      	str	r4, [sp, #40]	; 0x28
     9dc:	e6f8      	b.n	7d0 <_vfiprintf_r+0x7c>
     9de:	465a      	mov	r2, fp
     9e0:	433a      	orrs	r2, r7
     9e2:	4693      	mov	fp, r2
     9e4:	e729      	b.n	83a <_vfiprintf_r+0xe6>
     9e6:	9b0a      	ldr	r3, [sp, #40]	; 0x28
     9e8:	4658      	mov	r0, fp
     9ea:	1c1c      	adds	r4, r3, #0
     9ec:	3404      	adds	r4, #4
     9ee:	681f      	ldr	r7, [r3, #0]
     9f0:	2302      	movs	r3, #2
     9f2:	4318      	orrs	r0, r3
     9f4:	a912      	add	r1, sp, #72	; 0x48
     9f6:	2330      	movs	r3, #48	; 0x30
     9f8:	940a      	str	r4, [sp, #40]	; 0x28
     9fa:	2249      	movs	r2, #73	; 0x49
     9fc:	4c2b      	ldr	r4, [pc, #172]	; (aac <_vfiprintf_r+0x358>)
     9fe:	700b      	strb	r3, [r1, #0]
     a00:	446a      	add	r2, sp
     a02:	2378      	movs	r3, #120	; 0x78
     a04:	1c39      	adds	r1, r7, #0
     a06:	7013      	strb	r3, [r2, #0]
     a08:	4683      	mov	fp, r0
     a0a:	1e4b      	subs	r3, r1, #1
     a0c:	4199      	sbcs	r1, r3
     a0e:	940e      	str	r4, [sp, #56]	; 0x38
     a10:	2302      	movs	r3, #2
     a12:	e73b      	b.n	88c <_vfiprintf_r+0x138>
     a14:	782b      	ldrb	r3, [r5, #0]
     a16:	3501      	adds	r5, #1
     a18:	2b2a      	cmp	r3, #42	; 0x2a
     a1a:	d100      	bne.n	a1e <_vfiprintf_r+0x2ca>
     a1c:	e367      	b.n	10ee <_vfiprintf_r+0x99a>
     a1e:	1c1a      	adds	r2, r3, #0
     a20:	3a30      	subs	r2, #48	; 0x30
     a22:	2400      	movs	r4, #0
     a24:	2a09      	cmp	r2, #9
     a26:	d80f      	bhi.n	a48 <_vfiprintf_r+0x2f4>
     a28:	00a3      	lsls	r3, r4, #2
     a2a:	191c      	adds	r4, r3, r4
     a2c:	782b      	ldrb	r3, [r5, #0]
     a2e:	0064      	lsls	r4, r4, #1
     a30:	1914      	adds	r4, r2, r4
     a32:	1c1a      	adds	r2, r3, #0
     a34:	3a30      	subs	r2, #48	; 0x30
     a36:	3501      	adds	r5, #1
     a38:	2a09      	cmp	r2, #9
     a3a:	d9f5      	bls.n	a28 <_vfiprintf_r+0x2d4>
     a3c:	46a0      	mov	r8, r4
     a3e:	2c00      	cmp	r4, #0
     a40:	db00      	blt.n	a44 <_vfiprintf_r+0x2f0>
     a42:	e6fc      	b.n	83e <_vfiprintf_r+0xea>
     a44:	2401      	movs	r4, #1
     a46:	4264      	negs	r4, r4
     a48:	46a0      	mov	r8, r4
     a4a:	e6f8      	b.n	83e <_vfiprintf_r+0xea>
     a4c:	1c1a      	adds	r2, r3, #0
     a4e:	2400      	movs	r4, #0
     a50:	3a30      	subs	r2, #48	; 0x30
     a52:	00a3      	lsls	r3, r4, #2
     a54:	191c      	adds	r4, r3, r4
     a56:	782b      	ldrb	r3, [r5, #0]
     a58:	0064      	lsls	r4, r4, #1
     a5a:	18a4      	adds	r4, r4, r2
     a5c:	1c1a      	adds	r2, r3, #0
     a5e:	3a30      	subs	r2, #48	; 0x30
     a60:	3501      	adds	r5, #1
     a62:	2a09      	cmp	r2, #9
     a64:	d9f5      	bls.n	a52 <_vfiprintf_r+0x2fe>
     a66:	9409      	str	r4, [sp, #36]	; 0x24
     a68:	e6e9      	b.n	83e <_vfiprintf_r+0xea>
     a6a:	465b      	mov	r3, fp
     a6c:	464c      	mov	r4, r9
     a6e:	4323      	orrs	r3, r4
     a70:	469b      	mov	fp, r3
     a72:	e6e2      	b.n	83a <_vfiprintf_r+0xe6>
     a74:	202b      	movs	r0, #43	; 0x2b
     a76:	e6e0      	b.n	83a <_vfiprintf_r+0xe6>
     a78:	465a      	mov	r2, fp
     a7a:	2301      	movs	r3, #1
     a7c:	431a      	orrs	r2, r3
     a7e:	4693      	mov	fp, r2
     a80:	e6db      	b.n	83a <_vfiprintf_r+0xe6>
     a82:	2800      	cmp	r0, #0
     a84:	d000      	beq.n	a88 <_vfiprintf_r+0x334>
     a86:	e6d8      	b.n	83a <_vfiprintf_r+0xe6>
     a88:	2020      	movs	r0, #32
     a8a:	e6d6      	b.n	83a <_vfiprintf_r+0xe6>
     a8c:	465c      	mov	r4, fp
     a8e:	433c      	orrs	r4, r7
     a90:	46a3      	mov	fp, r4
     a92:	e6d2      	b.n	83a <_vfiprintf_r+0xe6>
     a94:	465a      	mov	r2, fp
     a96:	2340      	movs	r3, #64	; 0x40
     a98:	431a      	orrs	r2, r3
     a9a:	4693      	mov	fp, r2
     a9c:	e6cd      	b.n	83a <_vfiprintf_r+0xe6>
     a9e:	46c0      	nop			; (mov r8, r8)
     aa0:	fffffb14 	.word	0xfffffb14
     aa4:	ffffdfff 	.word	0xffffdfff
     aa8:	00002c10 	.word	0x00002c10
     aac:	00002da8 	.word	0x00002da8
     ab0:	2447      	movs	r4, #71	; 0x47
     ab2:	446c      	add	r4, sp
     ab4:	465b      	mov	r3, fp
     ab6:	7020      	strb	r0, [r4, #0]
     ab8:	06db      	lsls	r3, r3, #27
     aba:	d400      	bmi.n	abe <_vfiprintf_r+0x36a>
     abc:	e156      	b.n	d6c <_vfiprintf_r+0x618>
     abe:	9c0a      	ldr	r4, [sp, #40]	; 0x28
     ac0:	6827      	ldr	r7, [r4, #0]
     ac2:	3404      	adds	r4, #4
     ac4:	940a      	str	r4, [sp, #40]	; 0x28
     ac6:	2f00      	cmp	r7, #0
     ac8:	da00      	bge.n	acc <_vfiprintf_r+0x378>
     aca:	e15c      	b.n	d86 <_vfiprintf_r+0x632>
     acc:	2047      	movs	r0, #71	; 0x47
     ace:	4468      	add	r0, sp
     ad0:	1c39      	adds	r1, r7, #0
     ad2:	1e4b      	subs	r3, r1, #1
     ad4:	4199      	sbcs	r1, r3
     ad6:	7804      	ldrb	r4, [r0, #0]
     ad8:	2301      	movs	r3, #1
     ada:	e6dc      	b.n	896 <_vfiprintf_r+0x142>
     adc:	9a0a      	ldr	r2, [sp, #40]	; 0x28
     ade:	ab16      	add	r3, sp, #88	; 0x58
     ae0:	1c14      	adds	r4, r2, #0
     ae2:	6812      	ldr	r2, [r2, #0]
     ae4:	3404      	adds	r4, #4
     ae6:	2047      	movs	r0, #71	; 0x47
     ae8:	940a      	str	r4, [sp, #40]	; 0x28
     aea:	701a      	strb	r2, [r3, #0]
     aec:	2401      	movs	r4, #1
     aee:	2200      	movs	r2, #0
     af0:	4468      	add	r0, sp
     af2:	7002      	strb	r2, [r0, #0]
     af4:	9405      	str	r4, [sp, #20]
     af6:	9407      	str	r4, [sp, #28]
     af8:	930d      	str	r3, [sp, #52]	; 0x34
     afa:	2400      	movs	r4, #0
     afc:	940b      	str	r4, [sp, #44]	; 0x2c
     afe:	2302      	movs	r3, #2
     b00:	465c      	mov	r4, fp
     b02:	401c      	ands	r4, r3
     b04:	940c      	str	r4, [sp, #48]	; 0x30
     b06:	d002      	beq.n	b0e <_vfiprintf_r+0x3ba>
     b08:	9c05      	ldr	r4, [sp, #20]
     b0a:	3402      	adds	r4, #2
     b0c:	9405      	str	r4, [sp, #20]
     b0e:	2384      	movs	r3, #132	; 0x84
     b10:	4658      	mov	r0, fp
     b12:	4018      	ands	r0, r3
     b14:	4681      	mov	r9, r0
     b16:	d138      	bne.n	b8a <_vfiprintf_r+0x436>
     b18:	9909      	ldr	r1, [sp, #36]	; 0x24
     b1a:	9a05      	ldr	r2, [sp, #20]
     b1c:	1a8c      	subs	r4, r1, r2
     b1e:	2c00      	cmp	r4, #0
     b20:	dd33      	ble.n	b8a <_vfiprintf_r+0x436>
     b22:	4fbe      	ldr	r7, [pc, #760]	; (e1c <_vfiprintf_r+0x6c8>)
     b24:	2c10      	cmp	r4, #16
     b26:	dd24      	ble.n	b72 <_vfiprintf_r+0x41e>
     b28:	2310      	movs	r3, #16
     b2a:	4698      	mov	r8, r3
     b2c:	1c33      	adds	r3, r6, #0
     b2e:	4656      	mov	r6, sl
     b30:	46aa      	mov	sl, r5
     b32:	9d06      	ldr	r5, [sp, #24]
     b34:	e003      	b.n	b3e <_vfiprintf_r+0x3ea>
     b36:	3c10      	subs	r4, #16
     b38:	3308      	adds	r3, #8
     b3a:	2c10      	cmp	r4, #16
     b3c:	dd16      	ble.n	b6c <_vfiprintf_r+0x418>
     b3e:	9a15      	ldr	r2, [sp, #84]	; 0x54
     b40:	4640      	mov	r0, r8
     b42:	3210      	adds	r2, #16
     b44:	9215      	str	r2, [sp, #84]	; 0x54
     b46:	9a14      	ldr	r2, [sp, #80]	; 0x50
     b48:	601f      	str	r7, [r3, #0]
     b4a:	3201      	adds	r2, #1
     b4c:	6058      	str	r0, [r3, #4]
     b4e:	9214      	str	r2, [sp, #80]	; 0x50
     b50:	2a07      	cmp	r2, #7
     b52:	ddf0      	ble.n	b36 <_vfiprintf_r+0x3e2>
     b54:	1c28      	adds	r0, r5, #0
     b56:	1c31      	adds	r1, r6, #0
     b58:	aa13      	add	r2, sp, #76	; 0x4c
     b5a:	f7ff fdbb 	bl	6d4 <__sprint_r>
     b5e:	2800      	cmp	r0, #0
     b60:	d000      	beq.n	b64 <_vfiprintf_r+0x410>
     b62:	e137      	b.n	dd4 <_vfiprintf_r+0x680>
     b64:	3c10      	subs	r4, #16
     b66:	ab3a      	add	r3, sp, #232	; 0xe8
     b68:	2c10      	cmp	r4, #16
     b6a:	dce8      	bgt.n	b3e <_vfiprintf_r+0x3ea>
     b6c:	4655      	mov	r5, sl
     b6e:	46b2      	mov	sl, r6
     b70:	1c1e      	adds	r6, r3, #0
     b72:	9915      	ldr	r1, [sp, #84]	; 0x54
     b74:	9b14      	ldr	r3, [sp, #80]	; 0x50
     b76:	6074      	str	r4, [r6, #4]
     b78:	3301      	adds	r3, #1
     b7a:	190c      	adds	r4, r1, r4
     b7c:	6037      	str	r7, [r6, #0]
     b7e:	9415      	str	r4, [sp, #84]	; 0x54
     b80:	9314      	str	r3, [sp, #80]	; 0x50
     b82:	2b07      	cmp	r3, #7
     b84:	dd00      	ble.n	b88 <_vfiprintf_r+0x434>
     b86:	e243      	b.n	1010 <_vfiprintf_r+0x8bc>
     b88:	3608      	adds	r6, #8
     b8a:	2247      	movs	r2, #71	; 0x47
     b8c:	446a      	add	r2, sp
     b8e:	7813      	ldrb	r3, [r2, #0]
     b90:	2b00      	cmp	r3, #0
     b92:	d00c      	beq.n	bae <_vfiprintf_r+0x45a>
     b94:	2301      	movs	r3, #1
     b96:	6073      	str	r3, [r6, #4]
     b98:	9b15      	ldr	r3, [sp, #84]	; 0x54
     b9a:	6032      	str	r2, [r6, #0]
     b9c:	3301      	adds	r3, #1
     b9e:	9315      	str	r3, [sp, #84]	; 0x54
     ba0:	9b14      	ldr	r3, [sp, #80]	; 0x50
     ba2:	3301      	adds	r3, #1
     ba4:	9314      	str	r3, [sp, #80]	; 0x50
     ba6:	2b07      	cmp	r3, #7
     ba8:	dd00      	ble.n	bac <_vfiprintf_r+0x458>
     baa:	e1e2      	b.n	f72 <_vfiprintf_r+0x81e>
     bac:	3608      	adds	r6, #8
     bae:	9c0c      	ldr	r4, [sp, #48]	; 0x30
     bb0:	2c00      	cmp	r4, #0
     bb2:	d00d      	beq.n	bd0 <_vfiprintf_r+0x47c>
     bb4:	ab12      	add	r3, sp, #72	; 0x48
     bb6:	6033      	str	r3, [r6, #0]
     bb8:	2302      	movs	r3, #2
     bba:	6073      	str	r3, [r6, #4]
     bbc:	9b15      	ldr	r3, [sp, #84]	; 0x54
     bbe:	3302      	adds	r3, #2
     bc0:	9315      	str	r3, [sp, #84]	; 0x54
     bc2:	9b14      	ldr	r3, [sp, #80]	; 0x50
     bc4:	3301      	adds	r3, #1
     bc6:	9314      	str	r3, [sp, #80]	; 0x50
     bc8:	2b07      	cmp	r3, #7
     bca:	dd00      	ble.n	bce <_vfiprintf_r+0x47a>
     bcc:	e1c7      	b.n	f5e <_vfiprintf_r+0x80a>
     bce:	3608      	adds	r6, #8
     bd0:	4648      	mov	r0, r9
     bd2:	2880      	cmp	r0, #128	; 0x80
     bd4:	d100      	bne.n	bd8 <_vfiprintf_r+0x484>
     bd6:	e10e      	b.n	df6 <_vfiprintf_r+0x6a2>
     bd8:	980b      	ldr	r0, [sp, #44]	; 0x2c
     bda:	9907      	ldr	r1, [sp, #28]
     bdc:	1a44      	subs	r4, r0, r1
     bde:	2c00      	cmp	r4, #0
     be0:	dd38      	ble.n	c54 <_vfiprintf_r+0x500>
     be2:	4f8e      	ldr	r7, [pc, #568]	; (e1c <_vfiprintf_r+0x6c8>)
     be4:	2c10      	cmp	r4, #16
     be6:	dd28      	ble.n	c3a <_vfiprintf_r+0x4e6>
     be8:	2210      	movs	r2, #16
     bea:	2310      	movs	r3, #16
     bec:	19d2      	adds	r2, r2, r7
     bee:	4698      	mov	r8, r3
     bf0:	4691      	mov	r9, r2
     bf2:	1c33      	adds	r3, r6, #0
     bf4:	4656      	mov	r6, sl
     bf6:	46aa      	mov	sl, r5
     bf8:	9d06      	ldr	r5, [sp, #24]
     bfa:	e003      	b.n	c04 <_vfiprintf_r+0x4b0>
     bfc:	3c10      	subs	r4, #16
     bfe:	3308      	adds	r3, #8
     c00:	2c10      	cmp	r4, #16
     c02:	dd17      	ble.n	c34 <_vfiprintf_r+0x4e0>
     c04:	9a15      	ldr	r2, [sp, #84]	; 0x54
     c06:	4648      	mov	r0, r9
     c08:	3210      	adds	r2, #16
     c0a:	9215      	str	r2, [sp, #84]	; 0x54
     c0c:	9a14      	ldr	r2, [sp, #80]	; 0x50
     c0e:	4641      	mov	r1, r8
     c10:	3201      	adds	r2, #1
     c12:	6018      	str	r0, [r3, #0]
     c14:	6059      	str	r1, [r3, #4]
     c16:	9214      	str	r2, [sp, #80]	; 0x50
     c18:	2a07      	cmp	r2, #7
     c1a:	ddef      	ble.n	bfc <_vfiprintf_r+0x4a8>
     c1c:	1c28      	adds	r0, r5, #0
     c1e:	1c31      	adds	r1, r6, #0
     c20:	aa13      	add	r2, sp, #76	; 0x4c
     c22:	f7ff fd57 	bl	6d4 <__sprint_r>
     c26:	2800      	cmp	r0, #0
     c28:	d000      	beq.n	c2c <_vfiprintf_r+0x4d8>
     c2a:	e0d3      	b.n	dd4 <_vfiprintf_r+0x680>
     c2c:	3c10      	subs	r4, #16
     c2e:	ab3a      	add	r3, sp, #232	; 0xe8
     c30:	2c10      	cmp	r4, #16
     c32:	dce7      	bgt.n	c04 <_vfiprintf_r+0x4b0>
     c34:	4655      	mov	r5, sl
     c36:	46b2      	mov	sl, r6
     c38:	1c1e      	adds	r6, r3, #0
     c3a:	9a15      	ldr	r2, [sp, #84]	; 0x54
     c3c:	9b14      	ldr	r3, [sp, #80]	; 0x50
     c3e:	3710      	adds	r7, #16
     c40:	6074      	str	r4, [r6, #4]
     c42:	3301      	adds	r3, #1
     c44:	1914      	adds	r4, r2, r4
     c46:	6037      	str	r7, [r6, #0]
     c48:	9415      	str	r4, [sp, #84]	; 0x54
     c4a:	9314      	str	r3, [sp, #80]	; 0x50
     c4c:	2b07      	cmp	r3, #7
     c4e:	dd00      	ble.n	c52 <_vfiprintf_r+0x4fe>
     c50:	e17b      	b.n	f4a <_vfiprintf_r+0x7f6>
     c52:	3608      	adds	r6, #8
     c54:	9c0d      	ldr	r4, [sp, #52]	; 0x34
     c56:	9815      	ldr	r0, [sp, #84]	; 0x54
     c58:	6034      	str	r4, [r6, #0]
     c5a:	9c07      	ldr	r4, [sp, #28]
     c5c:	1903      	adds	r3, r0, r4
     c5e:	9315      	str	r3, [sp, #84]	; 0x54
     c60:	9b14      	ldr	r3, [sp, #80]	; 0x50
     c62:	6074      	str	r4, [r6, #4]
     c64:	3301      	adds	r3, #1
     c66:	9314      	str	r3, [sp, #80]	; 0x50
     c68:	2b07      	cmp	r3, #7
     c6a:	dd00      	ble.n	c6e <_vfiprintf_r+0x51a>
     c6c:	e108      	b.n	e80 <_vfiprintf_r+0x72c>
     c6e:	1c33      	adds	r3, r6, #0
     c70:	3308      	adds	r3, #8
     c72:	4659      	mov	r1, fp
     c74:	0749      	lsls	r1, r1, #29
     c76:	d53a      	bpl.n	cee <_vfiprintf_r+0x59a>
     c78:	9a09      	ldr	r2, [sp, #36]	; 0x24
     c7a:	9805      	ldr	r0, [sp, #20]
     c7c:	1a14      	subs	r4, r2, r0
     c7e:	2c00      	cmp	r4, #0
     c80:	dd35      	ble.n	cee <_vfiprintf_r+0x59a>
     c82:	4f66      	ldr	r7, [pc, #408]	; (e1c <_vfiprintf_r+0x6c8>)
     c84:	2c10      	cmp	r4, #16
     c86:	dd21      	ble.n	ccc <_vfiprintf_r+0x578>
     c88:	46a8      	mov	r8, r5
     c8a:	2610      	movs	r6, #16
     c8c:	1c25      	adds	r5, r4, #0
     c8e:	4654      	mov	r4, sl
     c90:	e003      	b.n	c9a <_vfiprintf_r+0x546>
     c92:	3d10      	subs	r5, #16
     c94:	3308      	adds	r3, #8
     c96:	2d10      	cmp	r5, #16
     c98:	dd15      	ble.n	cc6 <_vfiprintf_r+0x572>
     c9a:	9a15      	ldr	r2, [sp, #84]	; 0x54
     c9c:	601f      	str	r7, [r3, #0]
     c9e:	3210      	adds	r2, #16
     ca0:	9215      	str	r2, [sp, #84]	; 0x54
     ca2:	9a14      	ldr	r2, [sp, #80]	; 0x50
     ca4:	605e      	str	r6, [r3, #4]
     ca6:	3201      	adds	r2, #1
     ca8:	9214      	str	r2, [sp, #80]	; 0x50
     caa:	2a07      	cmp	r2, #7
     cac:	ddf1      	ble.n	c92 <_vfiprintf_r+0x53e>
     cae:	9806      	ldr	r0, [sp, #24]
     cb0:	1c21      	adds	r1, r4, #0
     cb2:	aa13      	add	r2, sp, #76	; 0x4c
     cb4:	f7ff fd0e 	bl	6d4 <__sprint_r>
     cb8:	2800      	cmp	r0, #0
     cba:	d000      	beq.n	cbe <_vfiprintf_r+0x56a>
     cbc:	e1dd      	b.n	107a <_vfiprintf_r+0x926>
     cbe:	3d10      	subs	r5, #16
     cc0:	ab3a      	add	r3, sp, #232	; 0xe8
     cc2:	2d10      	cmp	r5, #16
     cc4:	dce9      	bgt.n	c9a <_vfiprintf_r+0x546>
     cc6:	46a2      	mov	sl, r4
     cc8:	1c2c      	adds	r4, r5, #0
     cca:	4645      	mov	r5, r8
     ccc:	605c      	str	r4, [r3, #4]
     cce:	9915      	ldr	r1, [sp, #84]	; 0x54
     cd0:	601f      	str	r7, [r3, #0]
     cd2:	9b14      	ldr	r3, [sp, #80]	; 0x50
     cd4:	1864      	adds	r4, r4, r1
     cd6:	3301      	adds	r3, #1
     cd8:	9415      	str	r4, [sp, #84]	; 0x54
     cda:	9314      	str	r3, [sp, #80]	; 0x50
     cdc:	2b07      	cmp	r3, #7
     cde:	dd07      	ble.n	cf0 <_vfiprintf_r+0x59c>
     ce0:	9806      	ldr	r0, [sp, #24]
     ce2:	4651      	mov	r1, sl
     ce4:	aa13      	add	r2, sp, #76	; 0x4c
     ce6:	f7ff fcf5 	bl	6d4 <__sprint_r>
     cea:	2800      	cmp	r0, #0
     cec:	d173      	bne.n	dd6 <_vfiprintf_r+0x682>
     cee:	9c15      	ldr	r4, [sp, #84]	; 0x54
     cf0:	9b05      	ldr	r3, [sp, #20]
     cf2:	9a09      	ldr	r2, [sp, #36]	; 0x24
     cf4:	4293      	cmp	r3, r2
     cf6:	da00      	bge.n	cfa <_vfiprintf_r+0x5a6>
     cf8:	1c13      	adds	r3, r2, #0
     cfa:	9808      	ldr	r0, [sp, #32]
     cfc:	18c0      	adds	r0, r0, r3
     cfe:	9008      	str	r0, [sp, #32]
     d00:	2c00      	cmp	r4, #0
     d02:	d000      	beq.n	d06 <_vfiprintf_r+0x5b2>
     d04:	e0c5      	b.n	e92 <_vfiprintf_r+0x73e>
     d06:	2300      	movs	r3, #0
     d08:	9314      	str	r3, [sp, #80]	; 0x50
     d0a:	ae3a      	add	r6, sp, #232	; 0xe8
     d0c:	e560      	b.n	7d0 <_vfiprintf_r+0x7c>
     d0e:	2147      	movs	r1, #71	; 0x47
     d10:	4469      	add	r1, sp
     d12:	4c43      	ldr	r4, [pc, #268]	; (e20 <_vfiprintf_r+0x6cc>)
     d14:	7008      	strb	r0, [r1, #0]
     d16:	4658      	mov	r0, fp
     d18:	940e      	str	r4, [sp, #56]	; 0x38
     d1a:	06c0      	lsls	r0, r0, #27
     d1c:	d500      	bpl.n	d20 <_vfiprintf_r+0x5cc>
     d1e:	e63b      	b.n	998 <_vfiprintf_r+0x244>
     d20:	4658      	mov	r0, fp
     d22:	9c0a      	ldr	r4, [sp, #40]	; 0x28
     d24:	0640      	lsls	r0, r0, #25
     d26:	d400      	bmi.n	d2a <_vfiprintf_r+0x5d6>
     d28:	e199      	b.n	105e <_vfiprintf_r+0x90a>
     d2a:	8827      	ldrh	r7, [r4, #0]
     d2c:	4658      	mov	r0, fp
     d2e:	3404      	adds	r4, #4
     d30:	940a      	str	r4, [sp, #40]	; 0x28
     d32:	07c0      	lsls	r0, r0, #31
     d34:	d400      	bmi.n	d38 <_vfiprintf_r+0x5e4>
     d36:	e637      	b.n	9a8 <_vfiprintf_r+0x254>
     d38:	2f00      	cmp	r7, #0
     d3a:	d100      	bne.n	d3e <_vfiprintf_r+0x5ea>
     d3c:	e18b      	b.n	1056 <_vfiprintf_r+0x902>
     d3e:	2230      	movs	r2, #48	; 0x30
     d40:	a912      	add	r1, sp, #72	; 0x48
     d42:	700a      	strb	r2, [r1, #0]
     d44:	2249      	movs	r2, #73	; 0x49
     d46:	446a      	add	r2, sp
     d48:	465c      	mov	r4, fp
     d4a:	7013      	strb	r3, [r2, #0]
     d4c:	2302      	movs	r3, #2
     d4e:	431c      	orrs	r4, r3
     d50:	46a3      	mov	fp, r4
     d52:	2101      	movs	r1, #1
     d54:	e59a      	b.n	88c <_vfiprintf_r+0x138>
     d56:	2310      	movs	r3, #16
     d58:	465a      	mov	r2, fp
     d5a:	431a      	orrs	r2, r3
     d5c:	2147      	movs	r1, #71	; 0x47
     d5e:	4693      	mov	fp, r2
     d60:	4469      	add	r1, sp
     d62:	465b      	mov	r3, fp
     d64:	7008      	strb	r0, [r1, #0]
     d66:	06db      	lsls	r3, r3, #27
     d68:	d500      	bpl.n	d6c <_vfiprintf_r+0x618>
     d6a:	e6a8      	b.n	abe <_vfiprintf_r+0x36a>
     d6c:	4658      	mov	r0, fp
     d6e:	9c0a      	ldr	r4, [sp, #40]	; 0x28
     d70:	0640      	lsls	r0, r0, #25
     d72:	d400      	bmi.n	d76 <_vfiprintf_r+0x622>
     d74:	e16b      	b.n	104e <_vfiprintf_r+0x8fa>
     d76:	2700      	movs	r7, #0
     d78:	5fe7      	ldrsh	r7, [r4, r7]
     d7a:	9c0a      	ldr	r4, [sp, #40]	; 0x28
     d7c:	3404      	adds	r4, #4
     d7e:	940a      	str	r4, [sp, #40]	; 0x28
     d80:	2f00      	cmp	r7, #0
     d82:	db00      	blt.n	d86 <_vfiprintf_r+0x632>
     d84:	e6a2      	b.n	acc <_vfiprintf_r+0x378>
     d86:	2147      	movs	r1, #71	; 0x47
     d88:	232d      	movs	r3, #45	; 0x2d
     d8a:	4469      	add	r1, sp
     d8c:	427f      	negs	r7, r7
     d8e:	700b      	strb	r3, [r1, #0]
     d90:	1c39      	adds	r1, r7, #0
     d92:	1e4b      	subs	r3, r1, #1
     d94:	4199      	sbcs	r1, r3
     d96:	242d      	movs	r4, #45	; 0x2d
     d98:	2301      	movs	r3, #1
     d9a:	e57c      	b.n	896 <_vfiprintf_r+0x142>
     d9c:	2b00      	cmp	r3, #0
     d9e:	d000      	beq.n	da2 <_vfiprintf_r+0x64e>
     da0:	e080      	b.n	ea4 <_vfiprintf_r+0x750>
     da2:	4659      	mov	r1, fp
     da4:	07c9      	lsls	r1, r1, #31
     da6:	d400      	bmi.n	daa <_vfiprintf_r+0x656>
     da8:	e0f2      	b.n	f90 <_vfiprintf_r+0x83c>
     daa:	227f      	movs	r2, #127	; 0x7f
     dac:	2330      	movs	r3, #48	; 0x30
     dae:	446a      	add	r2, sp
     db0:	7013      	strb	r3, [r2, #0]
     db2:	9b0f      	ldr	r3, [sp, #60]	; 0x3c
     db4:	920d      	str	r2, [sp, #52]	; 0x34
     db6:	9307      	str	r3, [sp, #28]
     db8:	4642      	mov	r2, r8
     dba:	920b      	str	r2, [sp, #44]	; 0x2c
     dbc:	9807      	ldr	r0, [sp, #28]
     dbe:	990b      	ldr	r1, [sp, #44]	; 0x2c
     dc0:	9005      	str	r0, [sp, #20]
     dc2:	4288      	cmp	r0, r1
     dc4:	da00      	bge.n	dc8 <_vfiprintf_r+0x674>
     dc6:	9105      	str	r1, [sp, #20]
     dc8:	9a05      	ldr	r2, [sp, #20]
     dca:	1e63      	subs	r3, r4, #1
     dcc:	419c      	sbcs	r4, r3
     dce:	1912      	adds	r2, r2, r4
     dd0:	9205      	str	r2, [sp, #20]
     dd2:	e694      	b.n	afe <_vfiprintf_r+0x3aa>
     dd4:	46b2      	mov	sl, r6
     dd6:	4652      	mov	r2, sl
     dd8:	8993      	ldrh	r3, [r2, #12]
     dda:	065c      	lsls	r4, r3, #25
     ddc:	d502      	bpl.n	de4 <_vfiprintf_r+0x690>
     dde:	2301      	movs	r3, #1
     de0:	425b      	negs	r3, r3
     de2:	9308      	str	r3, [sp, #32]
     de4:	9808      	ldr	r0, [sp, #32]
     de6:	4b0f      	ldr	r3, [pc, #60]	; (e24 <_vfiprintf_r+0x6d0>)
     de8:	449d      	add	sp, r3
     dea:	bc3c      	pop	{r2, r3, r4, r5}
     dec:	4690      	mov	r8, r2
     dee:	4699      	mov	r9, r3
     df0:	46a2      	mov	sl, r4
     df2:	46ab      	mov	fp, r5
     df4:	bdf0      	pop	{r4, r5, r6, r7, pc}
     df6:	9909      	ldr	r1, [sp, #36]	; 0x24
     df8:	9a05      	ldr	r2, [sp, #20]
     dfa:	1a8c      	subs	r4, r1, r2
     dfc:	2c00      	cmp	r4, #0
     dfe:	dc00      	bgt.n	e02 <_vfiprintf_r+0x6ae>
     e00:	e6ea      	b.n	bd8 <_vfiprintf_r+0x484>
     e02:	4f06      	ldr	r7, [pc, #24]	; (e1c <_vfiprintf_r+0x6c8>)
     e04:	2c10      	cmp	r4, #16
     e06:	dd2d      	ble.n	e64 <_vfiprintf_r+0x710>
     e08:	2310      	movs	r3, #16
     e0a:	19db      	adds	r3, r3, r7
     e0c:	2010      	movs	r0, #16
     e0e:	4699      	mov	r9, r3
     e10:	4680      	mov	r8, r0
     e12:	1c33      	adds	r3, r6, #0
     e14:	4656      	mov	r6, sl
     e16:	46aa      	mov	sl, r5
     e18:	9d06      	ldr	r5, [sp, #24]
     e1a:	e009      	b.n	e30 <_vfiprintf_r+0x6dc>
     e1c:	00002d74 	.word	0x00002d74
     e20:	00002d94 	.word	0x00002d94
     e24:	000004ec 	.word	0x000004ec
     e28:	3c10      	subs	r4, #16
     e2a:	3308      	adds	r3, #8
     e2c:	2c10      	cmp	r4, #16
     e2e:	dd16      	ble.n	e5e <_vfiprintf_r+0x70a>
     e30:	4642      	mov	r2, r8
     e32:	605a      	str	r2, [r3, #4]
     e34:	9a15      	ldr	r2, [sp, #84]	; 0x54
     e36:	4649      	mov	r1, r9
     e38:	3210      	adds	r2, #16
     e3a:	9215      	str	r2, [sp, #84]	; 0x54
     e3c:	9a14      	ldr	r2, [sp, #80]	; 0x50
     e3e:	6019      	str	r1, [r3, #0]
     e40:	3201      	adds	r2, #1
     e42:	9214      	str	r2, [sp, #80]	; 0x50
     e44:	2a07      	cmp	r2, #7
     e46:	ddef      	ble.n	e28 <_vfiprintf_r+0x6d4>
     e48:	1c28      	adds	r0, r5, #0
     e4a:	1c31      	adds	r1, r6, #0
     e4c:	aa13      	add	r2, sp, #76	; 0x4c
     e4e:	f7ff fc41 	bl	6d4 <__sprint_r>
     e52:	2800      	cmp	r0, #0
     e54:	d1be      	bne.n	dd4 <_vfiprintf_r+0x680>
     e56:	3c10      	subs	r4, #16
     e58:	ab3a      	add	r3, sp, #232	; 0xe8
     e5a:	2c10      	cmp	r4, #16
     e5c:	dce8      	bgt.n	e30 <_vfiprintf_r+0x6dc>
     e5e:	4655      	mov	r5, sl
     e60:	46b2      	mov	sl, r6
     e62:	1c1e      	adds	r6, r3, #0
     e64:	9b15      	ldr	r3, [sp, #84]	; 0x54
     e66:	6074      	str	r4, [r6, #4]
     e68:	191c      	adds	r4, r3, r4
     e6a:	9b14      	ldr	r3, [sp, #80]	; 0x50
     e6c:	3710      	adds	r7, #16
     e6e:	3301      	adds	r3, #1
     e70:	6037      	str	r7, [r6, #0]
     e72:	9415      	str	r4, [sp, #84]	; 0x54
     e74:	9314      	str	r3, [sp, #80]	; 0x50
     e76:	2b07      	cmp	r3, #7
     e78:	dd00      	ble.n	e7c <_vfiprintf_r+0x728>
     e7a:	e100      	b.n	107e <_vfiprintf_r+0x92a>
     e7c:	3608      	adds	r6, #8
     e7e:	e6ab      	b.n	bd8 <_vfiprintf_r+0x484>
     e80:	9806      	ldr	r0, [sp, #24]
     e82:	4651      	mov	r1, sl
     e84:	aa13      	add	r2, sp, #76	; 0x4c
     e86:	f7ff fc25 	bl	6d4 <__sprint_r>
     e8a:	2800      	cmp	r0, #0
     e8c:	d1a3      	bne.n	dd6 <_vfiprintf_r+0x682>
     e8e:	ab3a      	add	r3, sp, #232	; 0xe8
     e90:	e6ef      	b.n	c72 <_vfiprintf_r+0x51e>
     e92:	9806      	ldr	r0, [sp, #24]
     e94:	4651      	mov	r1, sl
     e96:	aa13      	add	r2, sp, #76	; 0x4c
     e98:	f7ff fc1c 	bl	6d4 <__sprint_r>
     e9c:	2800      	cmp	r0, #0
     e9e:	d100      	bne.n	ea2 <_vfiprintf_r+0x74e>
     ea0:	e731      	b.n	d06 <_vfiprintf_r+0x5b2>
     ea2:	e798      	b.n	dd6 <_vfiprintf_r+0x682>
     ea4:	2100      	movs	r1, #0
     ea6:	aa20      	add	r2, sp, #128	; 0x80
     ea8:	9107      	str	r1, [sp, #28]
     eaa:	920d      	str	r2, [sp, #52]	; 0x34
     eac:	e784      	b.n	db8 <_vfiprintf_r+0x664>
     eae:	9806      	ldr	r0, [sp, #24]
     eb0:	4651      	mov	r1, sl
     eb2:	f000 f93b 	bl	112c <__swsetup_r>
     eb6:	2800      	cmp	r0, #0
     eb8:	d000      	beq.n	ebc <_vfiprintf_r+0x768>
     eba:	e790      	b.n	dde <_vfiprintf_r+0x68a>
     ebc:	4654      	mov	r4, sl
     ebe:	89a3      	ldrh	r3, [r4, #12]
     ec0:	221a      	movs	r2, #26
     ec2:	1c19      	adds	r1, r3, #0
     ec4:	4013      	ands	r3, r2
     ec6:	2b0a      	cmp	r3, #10
     ec8:	d000      	beq.n	ecc <_vfiprintf_r+0x778>
     eca:	e470      	b.n	7ae <_vfiprintf_r+0x5a>
     ecc:	4650      	mov	r0, sl
     ece:	89c3      	ldrh	r3, [r0, #14]
     ed0:	b21a      	sxth	r2, r3
     ed2:	2a00      	cmp	r2, #0
     ed4:	da00      	bge.n	ed8 <_vfiprintf_r+0x784>
     ed6:	e46a      	b.n	7ae <_vfiprintf_r+0x5a>
     ed8:	ac20      	add	r4, sp, #128	; 0x80
     eda:	81e3      	strh	r3, [r4, #14]
     edc:	6a43      	ldr	r3, [r0, #36]	; 0x24
     ede:	2202      	movs	r2, #2
     ee0:	4391      	bics	r1, r2
     ee2:	6263      	str	r3, [r4, #36]	; 0x24
     ee4:	2380      	movs	r3, #128	; 0x80
     ee6:	69c2      	ldr	r2, [r0, #28]
     ee8:	00db      	lsls	r3, r3, #3
     eea:	81a1      	strh	r1, [r4, #12]
     eec:	6e41      	ldr	r1, [r0, #100]	; 0x64
     eee:	60a3      	str	r3, [r4, #8]
     ef0:	a83a      	add	r0, sp, #232	; 0xe8
     ef2:	6163      	str	r3, [r4, #20]
     ef4:	2300      	movs	r3, #0
     ef6:	6661      	str	r1, [r4, #100]	; 0x64
     ef8:	61e2      	str	r2, [r4, #28]
     efa:	9020      	str	r0, [sp, #128]	; 0x80
     efc:	6120      	str	r0, [r4, #16]
     efe:	61a3      	str	r3, [r4, #24]
     f00:	9806      	ldr	r0, [sp, #24]
     f02:	1c21      	adds	r1, r4, #0
     f04:	1c2a      	adds	r2, r5, #0
     f06:	9b0a      	ldr	r3, [sp, #40]	; 0x28
     f08:	f7ff fc24 	bl	754 <_vfiprintf_r>
     f0c:	9008      	str	r0, [sp, #32]
     f0e:	2800      	cmp	r0, #0
     f10:	db06      	blt.n	f20 <_vfiprintf_r+0x7cc>
     f12:	9806      	ldr	r0, [sp, #24]
     f14:	1c21      	adds	r1, r4, #0
     f16:	f000 fa17 	bl	1348 <_fflush_r>
     f1a:	2800      	cmp	r0, #0
     f1c:	d000      	beq.n	f20 <_vfiprintf_r+0x7cc>
     f1e:	e0e2      	b.n	10e6 <_vfiprintf_r+0x992>
     f20:	89a3      	ldrh	r3, [r4, #12]
     f22:	0659      	lsls	r1, r3, #25
     f24:	d400      	bmi.n	f28 <_vfiprintf_r+0x7d4>
     f26:	e75d      	b.n	de4 <_vfiprintf_r+0x690>
     f28:	4653      	mov	r3, sl
     f2a:	899a      	ldrh	r2, [r3, #12]
     f2c:	2340      	movs	r3, #64	; 0x40
     f2e:	4313      	orrs	r3, r2
     f30:	4654      	mov	r4, sl
     f32:	81a3      	strh	r3, [r4, #12]
     f34:	e756      	b.n	de4 <_vfiprintf_r+0x690>
     f36:	9806      	ldr	r0, [sp, #24]
     f38:	4651      	mov	r1, sl
     f3a:	aa13      	add	r2, sp, #76	; 0x4c
     f3c:	f7ff fbca 	bl	6d4 <__sprint_r>
     f40:	2800      	cmp	r0, #0
     f42:	d000      	beq.n	f46 <_vfiprintf_r+0x7f2>
     f44:	e747      	b.n	dd6 <_vfiprintf_r+0x682>
     f46:	ae3a      	add	r6, sp, #232	; 0xe8
     f48:	e45d      	b.n	806 <_vfiprintf_r+0xb2>
     f4a:	9806      	ldr	r0, [sp, #24]
     f4c:	4651      	mov	r1, sl
     f4e:	aa13      	add	r2, sp, #76	; 0x4c
     f50:	f7ff fbc0 	bl	6d4 <__sprint_r>
     f54:	2800      	cmp	r0, #0
     f56:	d000      	beq.n	f5a <_vfiprintf_r+0x806>
     f58:	e73d      	b.n	dd6 <_vfiprintf_r+0x682>
     f5a:	ae3a      	add	r6, sp, #232	; 0xe8
     f5c:	e67a      	b.n	c54 <_vfiprintf_r+0x500>
     f5e:	9806      	ldr	r0, [sp, #24]
     f60:	4651      	mov	r1, sl
     f62:	aa13      	add	r2, sp, #76	; 0x4c
     f64:	f7ff fbb6 	bl	6d4 <__sprint_r>
     f68:	2800      	cmp	r0, #0
     f6a:	d000      	beq.n	f6e <_vfiprintf_r+0x81a>
     f6c:	e733      	b.n	dd6 <_vfiprintf_r+0x682>
     f6e:	ae3a      	add	r6, sp, #232	; 0xe8
     f70:	e62e      	b.n	bd0 <_vfiprintf_r+0x47c>
     f72:	9806      	ldr	r0, [sp, #24]
     f74:	4651      	mov	r1, sl
     f76:	aa13      	add	r2, sp, #76	; 0x4c
     f78:	f7ff fbac 	bl	6d4 <__sprint_r>
     f7c:	2800      	cmp	r0, #0
     f7e:	d000      	beq.n	f82 <_vfiprintf_r+0x82e>
     f80:	e729      	b.n	dd6 <_vfiprintf_r+0x682>
     f82:	ae3a      	add	r6, sp, #232	; 0xe8
     f84:	e613      	b.n	bae <_vfiprintf_r+0x45a>
     f86:	9806      	ldr	r0, [sp, #24]
     f88:	f000 fa56 	bl	1438 <__sinit>
     f8c:	f7ff fbf5 	bl	77a <_vfiprintf_r+0x26>
     f90:	2300      	movs	r3, #0
     f92:	a820      	add	r0, sp, #128	; 0x80
     f94:	9307      	str	r3, [sp, #28]
     f96:	900d      	str	r0, [sp, #52]	; 0x34
     f98:	e70e      	b.n	db8 <_vfiprintf_r+0x664>
     f9a:	2f09      	cmp	r7, #9
     f9c:	d942      	bls.n	1024 <_vfiprintf_r+0x8d0>
     f9e:	466b      	mov	r3, sp
     fa0:	337f      	adds	r3, #127	; 0x7f
     fa2:	46a1      	mov	r9, r4
     fa4:	1c38      	adds	r0, r7, #0
     fa6:	210a      	movs	r1, #10
     fa8:	1c1c      	adds	r4, r3, #0
     faa:	f7ff fb19 	bl	5e0 <__aeabi_uidivmod>
     fae:	3130      	adds	r1, #48	; 0x30
     fb0:	7021      	strb	r1, [r4, #0]
     fb2:	1c38      	adds	r0, r7, #0
     fb4:	210a      	movs	r1, #10
     fb6:	f7ff facf 	bl	558 <__aeabi_uidiv>
     fba:	1e63      	subs	r3, r4, #1
     fbc:	1c07      	adds	r7, r0, #0
     fbe:	2800      	cmp	r0, #0
     fc0:	d1f0      	bne.n	fa4 <_vfiprintf_r+0x850>
     fc2:	940d      	str	r4, [sp, #52]	; 0x34
     fc4:	9a03      	ldr	r2, [sp, #12]
     fc6:	9b0d      	ldr	r3, [sp, #52]	; 0x34
     fc8:	464c      	mov	r4, r9
     fca:	1ad2      	subs	r2, r2, r3
     fcc:	9207      	str	r2, [sp, #28]
     fce:	e6f3      	b.n	db8 <_vfiprintf_r+0x664>
     fd0:	466b      	mov	r3, sp
     fd2:	980e      	ldr	r0, [sp, #56]	; 0x38
     fd4:	337f      	adds	r3, #127	; 0x7f
     fd6:	220f      	movs	r2, #15
     fd8:	1c19      	adds	r1, r3, #0
     fda:	1c13      	adds	r3, r2, #0
     fdc:	403b      	ands	r3, r7
     fde:	5cc3      	ldrb	r3, [r0, r3]
     fe0:	093f      	lsrs	r7, r7, #4
     fe2:	700b      	strb	r3, [r1, #0]
     fe4:	1e4b      	subs	r3, r1, #1
     fe6:	2f00      	cmp	r7, #0
     fe8:	d1f6      	bne.n	fd8 <_vfiprintf_r+0x884>
     fea:	9803      	ldr	r0, [sp, #12]
     fec:	910d      	str	r1, [sp, #52]	; 0x34
     fee:	1a40      	subs	r0, r0, r1
     ff0:	9007      	str	r0, [sp, #28]
     ff2:	e6e1      	b.n	db8 <_vfiprintf_r+0x664>
     ff4:	4658      	mov	r0, fp
     ff6:	9c0a      	ldr	r4, [sp, #40]	; 0x28
     ff8:	0640      	lsls	r0, r0, #25
     ffa:	d400      	bmi.n	ffe <_vfiprintf_r+0x8aa>
     ffc:	e43f      	b.n	87e <_vfiprintf_r+0x12a>
     ffe:	8827      	ldrh	r7, [r4, #0]
    1000:	e43e      	b.n	880 <_vfiprintf_r+0x12c>
    1002:	4658      	mov	r0, fp
    1004:	9c0a      	ldr	r4, [sp, #40]	; 0x28
    1006:	0640      	lsls	r0, r0, #25
    1008:	d400      	bmi.n	100c <_vfiprintf_r+0x8b8>
    100a:	e47f      	b.n	90c <_vfiprintf_r+0x1b8>
    100c:	8827      	ldrh	r7, [r4, #0]
    100e:	e47e      	b.n	90e <_vfiprintf_r+0x1ba>
    1010:	9806      	ldr	r0, [sp, #24]
    1012:	4651      	mov	r1, sl
    1014:	aa13      	add	r2, sp, #76	; 0x4c
    1016:	f7ff fb5d 	bl	6d4 <__sprint_r>
    101a:	2800      	cmp	r0, #0
    101c:	d000      	beq.n	1020 <_vfiprintf_r+0x8cc>
    101e:	e6da      	b.n	dd6 <_vfiprintf_r+0x682>
    1020:	ae3a      	add	r6, sp, #232	; 0xe8
    1022:	e5b2      	b.n	b8a <_vfiprintf_r+0x436>
    1024:	237f      	movs	r3, #127	; 0x7f
    1026:	980f      	ldr	r0, [sp, #60]	; 0x3c
    1028:	446b      	add	r3, sp
    102a:	3730      	adds	r7, #48	; 0x30
    102c:	701f      	strb	r7, [r3, #0]
    102e:	9007      	str	r0, [sp, #28]
    1030:	930d      	str	r3, [sp, #52]	; 0x34
    1032:	e6c1      	b.n	db8 <_vfiprintf_r+0x664>
    1034:	9a03      	ldr	r2, [sp, #12]
    1036:	1a51      	subs	r1, r2, r1
    1038:	9107      	str	r1, [sp, #28]
    103a:	e6bd      	b.n	db8 <_vfiprintf_r+0x664>
    103c:	9c0a      	ldr	r4, [sp, #40]	; 0x28
    103e:	6823      	ldr	r3, [r4, #0]
    1040:	9c08      	ldr	r4, [sp, #32]
    1042:	601c      	str	r4, [r3, #0]
    1044:	9c0a      	ldr	r4, [sp, #40]	; 0x28
    1046:	3404      	adds	r4, #4
    1048:	940a      	str	r4, [sp, #40]	; 0x28
    104a:	f7ff fbc1 	bl	7d0 <_vfiprintf_r+0x7c>
    104e:	6827      	ldr	r7, [r4, #0]
    1050:	3404      	adds	r4, #4
    1052:	940a      	str	r4, [sp, #40]	; 0x28
    1054:	e537      	b.n	ac6 <_vfiprintf_r+0x372>
    1056:	2100      	movs	r1, #0
    1058:	2302      	movs	r3, #2
    105a:	f7ff fc17 	bl	88c <_vfiprintf_r+0x138>
    105e:	6827      	ldr	r7, [r4, #0]
    1060:	3404      	adds	r4, #4
    1062:	940a      	str	r4, [sp, #40]	; 0x28
    1064:	e49c      	b.n	9a0 <_vfiprintf_r+0x24c>
    1066:	9915      	ldr	r1, [sp, #84]	; 0x54
    1068:	2900      	cmp	r1, #0
    106a:	d100      	bne.n	106e <_vfiprintf_r+0x91a>
    106c:	e6b3      	b.n	dd6 <_vfiprintf_r+0x682>
    106e:	9806      	ldr	r0, [sp, #24]
    1070:	4651      	mov	r1, sl
    1072:	aa13      	add	r2, sp, #76	; 0x4c
    1074:	f7ff fb2e 	bl	6d4 <__sprint_r>
    1078:	e6ad      	b.n	dd6 <_vfiprintf_r+0x682>
    107a:	46a2      	mov	sl, r4
    107c:	e6ab      	b.n	dd6 <_vfiprintf_r+0x682>
    107e:	9806      	ldr	r0, [sp, #24]
    1080:	4651      	mov	r1, sl
    1082:	aa13      	add	r2, sp, #76	; 0x4c
    1084:	f7ff fb26 	bl	6d4 <__sprint_r>
    1088:	2800      	cmp	r0, #0
    108a:	d000      	beq.n	108e <_vfiprintf_r+0x93a>
    108c:	e6a3      	b.n	dd6 <_vfiprintf_r+0x682>
    108e:	ae3a      	add	r6, sp, #232	; 0xe8
    1090:	e5a2      	b.n	bd8 <_vfiprintf_r+0x484>
    1092:	2047      	movs	r0, #71	; 0x47
    1094:	4468      	add	r0, sp
    1096:	4642      	mov	r2, r8
    1098:	2300      	movs	r3, #0
    109a:	7804      	ldrb	r4, [r0, #0]
    109c:	970a      	str	r7, [sp, #40]	; 0x28
    109e:	9207      	str	r2, [sp, #28]
    10a0:	930b      	str	r3, [sp, #44]	; 0x2c
    10a2:	e68b      	b.n	dbc <_vfiprintf_r+0x668>
    10a4:	980d      	ldr	r0, [sp, #52]	; 0x34
    10a6:	f001 fc33 	bl	2910 <strlen>
    10aa:	2247      	movs	r2, #71	; 0x47
    10ac:	446a      	add	r2, sp
    10ae:	2300      	movs	r3, #0
    10b0:	9007      	str	r0, [sp, #28]
    10b2:	7814      	ldrb	r4, [r2, #0]
    10b4:	970a      	str	r7, [sp, #40]	; 0x28
    10b6:	930b      	str	r3, [sp, #44]	; 0x2c
    10b8:	e680      	b.n	dbc <_vfiprintf_r+0x668>
    10ba:	4644      	mov	r4, r8
    10bc:	9407      	str	r4, [sp, #28]
    10be:	2c06      	cmp	r4, #6
    10c0:	d90b      	bls.n	10da <_vfiprintf_r+0x986>
    10c2:	2406      	movs	r4, #6
    10c4:	9407      	str	r4, [sp, #28]
    10c6:	9405      	str	r4, [sp, #20]
    10c8:	4c10      	ldr	r4, [pc, #64]	; (110c <_vfiprintf_r+0x9b8>)
    10ca:	970a      	str	r7, [sp, #40]	; 0x28
    10cc:	940d      	str	r4, [sp, #52]	; 0x34
    10ce:	e514      	b.n	afa <_vfiprintf_r+0x3a6>
    10d0:	9b03      	ldr	r3, [sp, #12]
    10d2:	980d      	ldr	r0, [sp, #52]	; 0x34
    10d4:	1a1b      	subs	r3, r3, r0
    10d6:	9307      	str	r3, [sp, #28]
    10d8:	e66e      	b.n	db8 <_vfiprintf_r+0x664>
    10da:	9c07      	ldr	r4, [sp, #28]
    10dc:	43e3      	mvns	r3, r4
    10de:	17db      	asrs	r3, r3, #31
    10e0:	401c      	ands	r4, r3
    10e2:	9405      	str	r4, [sp, #20]
    10e4:	e7f0      	b.n	10c8 <_vfiprintf_r+0x974>
    10e6:	2301      	movs	r3, #1
    10e8:	425b      	negs	r3, r3
    10ea:	9308      	str	r3, [sp, #32]
    10ec:	e718      	b.n	f20 <_vfiprintf_r+0x7cc>
    10ee:	9c0a      	ldr	r4, [sp, #40]	; 0x28
    10f0:	9b0a      	ldr	r3, [sp, #40]	; 0x28
    10f2:	6822      	ldr	r2, [r4, #0]
    10f4:	3304      	adds	r3, #4
    10f6:	4690      	mov	r8, r2
    10f8:	930a      	str	r3, [sp, #40]	; 0x28
    10fa:	2a00      	cmp	r2, #0
    10fc:	db01      	blt.n	1102 <_vfiprintf_r+0x9ae>
    10fe:	f7ff fb9c 	bl	83a <_vfiprintf_r+0xe6>
    1102:	2401      	movs	r4, #1
    1104:	4264      	negs	r4, r4
    1106:	46a0      	mov	r8, r4
    1108:	f7ff fb97 	bl	83a <_vfiprintf_r+0xe6>
    110c:	00002dbc 	.word	0x00002dbc

00001110 <vfiprintf>:
    1110:	b538      	push	{r3, r4, r5, lr}
    1112:	1c13      	adds	r3, r2, #0
    1114:	4a04      	ldr	r2, [pc, #16]	; (1128 <vfiprintf+0x18>)
    1116:	1c05      	adds	r5, r0, #0
    1118:	1c0c      	adds	r4, r1, #0
    111a:	6810      	ldr	r0, [r2, #0]
    111c:	1c29      	adds	r1, r5, #0
    111e:	1c22      	adds	r2, r4, #0
    1120:	f7ff fb18 	bl	754 <_vfiprintf_r>
    1124:	bd38      	pop	{r3, r4, r5, pc}
    1126:	46c0      	nop			; (mov r8, r8)
    1128:	100000c8 	.word	0x100000c8

0000112c <__swsetup_r>:
    112c:	b538      	push	{r3, r4, r5, lr}
    112e:	4b31      	ldr	r3, [pc, #196]	; (11f4 <__swsetup_r+0xc8>)
    1130:	1c05      	adds	r5, r0, #0
    1132:	6818      	ldr	r0, [r3, #0]
    1134:	1c0c      	adds	r4, r1, #0
    1136:	2800      	cmp	r0, #0
    1138:	d002      	beq.n	1140 <__swsetup_r+0x14>
    113a:	6b81      	ldr	r1, [r0, #56]	; 0x38
    113c:	2900      	cmp	r1, #0
    113e:	d03a      	beq.n	11b6 <__swsetup_r+0x8a>
    1140:	89a3      	ldrh	r3, [r4, #12]
    1142:	1c1a      	adds	r2, r3, #0
    1144:	0718      	lsls	r0, r3, #28
    1146:	d50d      	bpl.n	1164 <__swsetup_r+0x38>
    1148:	6922      	ldr	r2, [r4, #16]
    114a:	2a00      	cmp	r2, #0
    114c:	d014      	beq.n	1178 <__swsetup_r+0x4c>
    114e:	07d9      	lsls	r1, r3, #31
    1150:	d520      	bpl.n	1194 <__swsetup_r+0x68>
    1152:	6960      	ldr	r0, [r4, #20]
    1154:	2300      	movs	r3, #0
    1156:	60a3      	str	r3, [r4, #8]
    1158:	4243      	negs	r3, r0
    115a:	61a3      	str	r3, [r4, #24]
    115c:	2000      	movs	r0, #0
    115e:	2a00      	cmp	r2, #0
    1160:	d020      	beq.n	11a4 <__swsetup_r+0x78>
    1162:	bd38      	pop	{r3, r4, r5, pc}
    1164:	06d9      	lsls	r1, r3, #27
    1166:	d53d      	bpl.n	11e4 <__swsetup_r+0xb8>
    1168:	0750      	lsls	r0, r2, #29
    116a:	d427      	bmi.n	11bc <__swsetup_r+0x90>
    116c:	6922      	ldr	r2, [r4, #16]
    116e:	2108      	movs	r1, #8
    1170:	430b      	orrs	r3, r1
    1172:	81a3      	strh	r3, [r4, #12]
    1174:	2a00      	cmp	r2, #0
    1176:	d1ea      	bne.n	114e <__swsetup_r+0x22>
    1178:	20a0      	movs	r0, #160	; 0xa0
    117a:	0080      	lsls	r0, r0, #2
    117c:	2180      	movs	r1, #128	; 0x80
    117e:	4018      	ands	r0, r3
    1180:	0089      	lsls	r1, r1, #2
    1182:	4288      	cmp	r0, r1
    1184:	d0e3      	beq.n	114e <__swsetup_r+0x22>
    1186:	1c28      	adds	r0, r5, #0
    1188:	1c21      	adds	r1, r4, #0
    118a:	f000 fd95 	bl	1cb8 <__smakebuf_r>
    118e:	89a3      	ldrh	r3, [r4, #12]
    1190:	6922      	ldr	r2, [r4, #16]
    1192:	e7dc      	b.n	114e <__swsetup_r+0x22>
    1194:	2100      	movs	r1, #0
    1196:	0798      	lsls	r0, r3, #30
    1198:	d400      	bmi.n	119c <__swsetup_r+0x70>
    119a:	6961      	ldr	r1, [r4, #20]
    119c:	60a1      	str	r1, [r4, #8]
    119e:	2000      	movs	r0, #0
    11a0:	2a00      	cmp	r2, #0
    11a2:	d1de      	bne.n	1162 <__swsetup_r+0x36>
    11a4:	89a3      	ldrh	r3, [r4, #12]
    11a6:	0619      	lsls	r1, r3, #24
    11a8:	d5db      	bpl.n	1162 <__swsetup_r+0x36>
    11aa:	2240      	movs	r2, #64	; 0x40
    11ac:	4313      	orrs	r3, r2
    11ae:	2001      	movs	r0, #1
    11b0:	81a3      	strh	r3, [r4, #12]
    11b2:	4240      	negs	r0, r0
    11b4:	e7d5      	b.n	1162 <__swsetup_r+0x36>
    11b6:	f000 f93f 	bl	1438 <__sinit>
    11ba:	e7c1      	b.n	1140 <__swsetup_r+0x14>
    11bc:	6b21      	ldr	r1, [r4, #48]	; 0x30
    11be:	2900      	cmp	r1, #0
    11c0:	d009      	beq.n	11d6 <__swsetup_r+0xaa>
    11c2:	1c22      	adds	r2, r4, #0
    11c4:	3240      	adds	r2, #64	; 0x40
    11c6:	4291      	cmp	r1, r2
    11c8:	d003      	beq.n	11d2 <__swsetup_r+0xa6>
    11ca:	1c28      	adds	r0, r5, #0
    11cc:	f000 fa90 	bl	16f0 <_free_r>
    11d0:	89a3      	ldrh	r3, [r4, #12]
    11d2:	2200      	movs	r2, #0
    11d4:	6322      	str	r2, [r4, #48]	; 0x30
    11d6:	2224      	movs	r2, #36	; 0x24
    11d8:	4393      	bics	r3, r2
    11da:	2200      	movs	r2, #0
    11dc:	6062      	str	r2, [r4, #4]
    11de:	6922      	ldr	r2, [r4, #16]
    11e0:	6022      	str	r2, [r4, #0]
    11e2:	e7c4      	b.n	116e <__swsetup_r+0x42>
    11e4:	2309      	movs	r3, #9
    11e6:	602b      	str	r3, [r5, #0]
    11e8:	2340      	movs	r3, #64	; 0x40
    11ea:	431a      	orrs	r2, r3
    11ec:	2001      	movs	r0, #1
    11ee:	81a2      	strh	r2, [r4, #12]
    11f0:	4240      	negs	r0, r0
    11f2:	e7b6      	b.n	1162 <__swsetup_r+0x36>
    11f4:	100000c8 	.word	0x100000c8

000011f8 <__sflush_r>:
    11f8:	b5f0      	push	{r4, r5, r6, r7, lr}
    11fa:	4647      	mov	r7, r8
    11fc:	b480      	push	{r7}
    11fe:	898b      	ldrh	r3, [r1, #12]
    1200:	4680      	mov	r8, r0
    1202:	1c0d      	adds	r5, r1, #0
    1204:	0718      	lsls	r0, r3, #28
    1206:	d43a      	bmi.n	127e <__sflush_r+0x86>
    1208:	2180      	movs	r1, #128	; 0x80
    120a:	0109      	lsls	r1, r1, #4
    120c:	686a      	ldr	r2, [r5, #4]
    120e:	4319      	orrs	r1, r3
    1210:	81a9      	strh	r1, [r5, #12]
    1212:	2a00      	cmp	r2, #0
    1214:	dd54      	ble.n	12c0 <__sflush_r+0xc8>
    1216:	6aac      	ldr	r4, [r5, #40]	; 0x28
    1218:	2c00      	cmp	r4, #0
    121a:	d02c      	beq.n	1276 <__sflush_r+0x7e>
    121c:	4640      	mov	r0, r8
    121e:	2200      	movs	r2, #0
    1220:	6806      	ldr	r6, [r0, #0]
    1222:	6002      	str	r2, [r0, #0]
    1224:	04da      	lsls	r2, r3, #19
    1226:	d54f      	bpl.n	12c8 <__sflush_r+0xd0>
    1228:	6d2a      	ldr	r2, [r5, #80]	; 0x50
    122a:	074b      	lsls	r3, r1, #29
    122c:	d506      	bpl.n	123c <__sflush_r+0x44>
    122e:	686f      	ldr	r7, [r5, #4]
    1230:	6b28      	ldr	r0, [r5, #48]	; 0x30
    1232:	1bd2      	subs	r2, r2, r7
    1234:	2800      	cmp	r0, #0
    1236:	d001      	beq.n	123c <__sflush_r+0x44>
    1238:	6be9      	ldr	r1, [r5, #60]	; 0x3c
    123a:	1a52      	subs	r2, r2, r1
    123c:	4640      	mov	r0, r8
    123e:	69e9      	ldr	r1, [r5, #28]
    1240:	2300      	movs	r3, #0
    1242:	47a0      	blx	r4
    1244:	1c42      	adds	r2, r0, #1
    1246:	d04a      	beq.n	12de <__sflush_r+0xe6>
    1248:	89ab      	ldrh	r3, [r5, #12]
    124a:	4a3e      	ldr	r2, [pc, #248]	; (1344 <__sflush_r+0x14c>)
    124c:	6929      	ldr	r1, [r5, #16]
    124e:	401a      	ands	r2, r3
    1250:	81aa      	strh	r2, [r5, #12]
    1252:	2200      	movs	r2, #0
    1254:	606a      	str	r2, [r5, #4]
    1256:	6029      	str	r1, [r5, #0]
    1258:	04da      	lsls	r2, r3, #19
    125a:	d44d      	bmi.n	12f8 <__sflush_r+0x100>
    125c:	6b29      	ldr	r1, [r5, #48]	; 0x30
    125e:	4640      	mov	r0, r8
    1260:	6006      	str	r6, [r0, #0]
    1262:	2900      	cmp	r1, #0
    1264:	d007      	beq.n	1276 <__sflush_r+0x7e>
    1266:	1c2b      	adds	r3, r5, #0
    1268:	3340      	adds	r3, #64	; 0x40
    126a:	4299      	cmp	r1, r3
    126c:	d001      	beq.n	1272 <__sflush_r+0x7a>
    126e:	f000 fa3f 	bl	16f0 <_free_r>
    1272:	2300      	movs	r3, #0
    1274:	632b      	str	r3, [r5, #48]	; 0x30
    1276:	2000      	movs	r0, #0
    1278:	bc04      	pop	{r2}
    127a:	4690      	mov	r8, r2
    127c:	bdf0      	pop	{r4, r5, r6, r7, pc}
    127e:	690e      	ldr	r6, [r1, #16]
    1280:	2e00      	cmp	r6, #0
    1282:	d0f8      	beq.n	1276 <__sflush_r+0x7e>
    1284:	6809      	ldr	r1, [r1, #0]
    1286:	2200      	movs	r2, #0
    1288:	1b8c      	subs	r4, r1, r6
    128a:	602e      	str	r6, [r5, #0]
    128c:	079f      	lsls	r7, r3, #30
    128e:	d100      	bne.n	1292 <__sflush_r+0x9a>
    1290:	696a      	ldr	r2, [r5, #20]
    1292:	60aa      	str	r2, [r5, #8]
    1294:	2c00      	cmp	r4, #0
    1296:	dc04      	bgt.n	12a2 <__sflush_r+0xaa>
    1298:	e7ed      	b.n	1276 <__sflush_r+0x7e>
    129a:	1836      	adds	r6, r6, r0
    129c:	1a24      	subs	r4, r4, r0
    129e:	2c00      	cmp	r4, #0
    12a0:	dde9      	ble.n	1276 <__sflush_r+0x7e>
    12a2:	4640      	mov	r0, r8
    12a4:	69e9      	ldr	r1, [r5, #28]
    12a6:	1c32      	adds	r2, r6, #0
    12a8:	1c23      	adds	r3, r4, #0
    12aa:	6a6f      	ldr	r7, [r5, #36]	; 0x24
    12ac:	47b8      	blx	r7
    12ae:	2800      	cmp	r0, #0
    12b0:	dcf3      	bgt.n	129a <__sflush_r+0xa2>
    12b2:	89aa      	ldrh	r2, [r5, #12]
    12b4:	2340      	movs	r3, #64	; 0x40
    12b6:	4313      	orrs	r3, r2
    12b8:	2001      	movs	r0, #1
    12ba:	81ab      	strh	r3, [r5, #12]
    12bc:	4240      	negs	r0, r0
    12be:	e7db      	b.n	1278 <__sflush_r+0x80>
    12c0:	6bef      	ldr	r7, [r5, #60]	; 0x3c
    12c2:	2f00      	cmp	r7, #0
    12c4:	dca7      	bgt.n	1216 <__sflush_r+0x1e>
    12c6:	e7d6      	b.n	1276 <__sflush_r+0x7e>
    12c8:	2200      	movs	r2, #0
    12ca:	4640      	mov	r0, r8
    12cc:	69e9      	ldr	r1, [r5, #28]
    12ce:	2301      	movs	r3, #1
    12d0:	47a0      	blx	r4
    12d2:	1c02      	adds	r2, r0, #0
    12d4:	1c43      	adds	r3, r0, #1
    12d6:	d01e      	beq.n	1316 <__sflush_r+0x11e>
    12d8:	89a9      	ldrh	r1, [r5, #12]
    12da:	6aac      	ldr	r4, [r5, #40]	; 0x28
    12dc:	e7a5      	b.n	122a <__sflush_r+0x32>
    12de:	4647      	mov	r7, r8
    12e0:	683b      	ldr	r3, [r7, #0]
    12e2:	2b00      	cmp	r3, #0
    12e4:	d10a      	bne.n	12fc <__sflush_r+0x104>
    12e6:	89aa      	ldrh	r2, [r5, #12]
    12e8:	4916      	ldr	r1, [pc, #88]	; (1344 <__sflush_r+0x14c>)
    12ea:	692f      	ldr	r7, [r5, #16]
    12ec:	4011      	ands	r1, r2
    12ee:	81a9      	strh	r1, [r5, #12]
    12f0:	606b      	str	r3, [r5, #4]
    12f2:	602f      	str	r7, [r5, #0]
    12f4:	04d1      	lsls	r1, r2, #19
    12f6:	d5b1      	bpl.n	125c <__sflush_r+0x64>
    12f8:	6528      	str	r0, [r5, #80]	; 0x50
    12fa:	e7af      	b.n	125c <__sflush_r+0x64>
    12fc:	2b1d      	cmp	r3, #29
    12fe:	d001      	beq.n	1304 <__sflush_r+0x10c>
    1300:	2b16      	cmp	r3, #22
    1302:	d119      	bne.n	1338 <__sflush_r+0x140>
    1304:	89aa      	ldrh	r2, [r5, #12]
    1306:	4b0f      	ldr	r3, [pc, #60]	; (1344 <__sflush_r+0x14c>)
    1308:	4013      	ands	r3, r2
    130a:	81ab      	strh	r3, [r5, #12]
    130c:	2300      	movs	r3, #0
    130e:	606b      	str	r3, [r5, #4]
    1310:	692b      	ldr	r3, [r5, #16]
    1312:	602b      	str	r3, [r5, #0]
    1314:	e7a2      	b.n	125c <__sflush_r+0x64>
    1316:	4647      	mov	r7, r8
    1318:	683b      	ldr	r3, [r7, #0]
    131a:	2b00      	cmp	r3, #0
    131c:	d0dc      	beq.n	12d8 <__sflush_r+0xe0>
    131e:	2b16      	cmp	r3, #22
    1320:	d001      	beq.n	1326 <__sflush_r+0x12e>
    1322:	2b1d      	cmp	r3, #29
    1324:	d103      	bne.n	132e <__sflush_r+0x136>
    1326:	4640      	mov	r0, r8
    1328:	6006      	str	r6, [r0, #0]
    132a:	2000      	movs	r0, #0
    132c:	e7a4      	b.n	1278 <__sflush_r+0x80>
    132e:	89a9      	ldrh	r1, [r5, #12]
    1330:	2340      	movs	r3, #64	; 0x40
    1332:	430b      	orrs	r3, r1
    1334:	81ab      	strh	r3, [r5, #12]
    1336:	e79f      	b.n	1278 <__sflush_r+0x80>
    1338:	89aa      	ldrh	r2, [r5, #12]
    133a:	2340      	movs	r3, #64	; 0x40
    133c:	4313      	orrs	r3, r2
    133e:	81ab      	strh	r3, [r5, #12]
    1340:	e79a      	b.n	1278 <__sflush_r+0x80>
    1342:	46c0      	nop			; (mov r8, r8)
    1344:	fffff7ff 	.word	0xfffff7ff

00001348 <_fflush_r>:
    1348:	b538      	push	{r3, r4, r5, lr}
    134a:	1c04      	adds	r4, r0, #0
    134c:	1c0d      	adds	r5, r1, #0
    134e:	2800      	cmp	r0, #0
    1350:	d002      	beq.n	1358 <_fflush_r+0x10>
    1352:	6b82      	ldr	r2, [r0, #56]	; 0x38
    1354:	2a00      	cmp	r2, #0
    1356:	d009      	beq.n	136c <_fflush_r+0x24>
    1358:	220c      	movs	r2, #12
    135a:	5eab      	ldrsh	r3, [r5, r2]
    135c:	2000      	movs	r0, #0
    135e:	2b00      	cmp	r3, #0
    1360:	d003      	beq.n	136a <_fflush_r+0x22>
    1362:	1c20      	adds	r0, r4, #0
    1364:	1c29      	adds	r1, r5, #0
    1366:	f7ff ff47 	bl	11f8 <__sflush_r>
    136a:	bd38      	pop	{r3, r4, r5, pc}
    136c:	f000 f864 	bl	1438 <__sinit>
    1370:	e7f2      	b.n	1358 <_fflush_r+0x10>
    1372:	46c0      	nop			; (mov r8, r8)

00001374 <fflush>:
    1374:	b508      	push	{r3, lr}
    1376:	1e01      	subs	r1, r0, #0
    1378:	d004      	beq.n	1384 <fflush+0x10>
    137a:	4b05      	ldr	r3, [pc, #20]	; (1390 <fflush+0x1c>)
    137c:	6818      	ldr	r0, [r3, #0]
    137e:	f7ff ffe3 	bl	1348 <_fflush_r>
    1382:	bd08      	pop	{r3, pc}
    1384:	4b03      	ldr	r3, [pc, #12]	; (1394 <fflush+0x20>)
    1386:	4904      	ldr	r1, [pc, #16]	; (1398 <fflush+0x24>)
    1388:	6818      	ldr	r0, [r3, #0]
    138a:	f000 fc1d 	bl	1bc8 <_fwalk_reent>
    138e:	e7f8      	b.n	1382 <fflush+0xe>
    1390:	100000c8 	.word	0x100000c8
    1394:	00002c08 	.word	0x00002c08
    1398:	00001349 	.word	0x00001349

0000139c <__fp_lock>:
    139c:	2000      	movs	r0, #0
    139e:	4770      	bx	lr

000013a0 <__fp_unlock>:
    13a0:	2000      	movs	r0, #0
    13a2:	4770      	bx	lr

000013a4 <_cleanup_r>:
    13a4:	b508      	push	{r3, lr}
    13a6:	4902      	ldr	r1, [pc, #8]	; (13b0 <_cleanup_r+0xc>)
    13a8:	f000 fbe8 	bl	1b7c <_fwalk>
    13ac:	bd08      	pop	{r3, pc}
    13ae:	46c0      	nop			; (mov r8, r8)
    13b0:	00002b89 	.word	0x00002b89

000013b4 <std.isra.0>:
    13b4:	2300      	movs	r3, #0
    13b6:	b510      	push	{r4, lr}
    13b8:	1c04      	adds	r4, r0, #0
    13ba:	6003      	str	r3, [r0, #0]
    13bc:	6043      	str	r3, [r0, #4]
    13be:	6083      	str	r3, [r0, #8]
    13c0:	8181      	strh	r1, [r0, #12]
    13c2:	6643      	str	r3, [r0, #100]	; 0x64
    13c4:	81c2      	strh	r2, [r0, #14]
    13c6:	6103      	str	r3, [r0, #16]
    13c8:	6143      	str	r3, [r0, #20]
    13ca:	6183      	str	r3, [r0, #24]
    13cc:	2100      	movs	r1, #0
    13ce:	2208      	movs	r2, #8
    13d0:	305c      	adds	r0, #92	; 0x5c
    13d2:	f7ff f937 	bl	644 <memset>
    13d6:	4b05      	ldr	r3, [pc, #20]	; (13ec <std.isra.0+0x38>)
    13d8:	61e4      	str	r4, [r4, #28]
    13da:	6223      	str	r3, [r4, #32]
    13dc:	4b04      	ldr	r3, [pc, #16]	; (13f0 <std.isra.0+0x3c>)
    13de:	6263      	str	r3, [r4, #36]	; 0x24
    13e0:	4b04      	ldr	r3, [pc, #16]	; (13f4 <std.isra.0+0x40>)
    13e2:	62a3      	str	r3, [r4, #40]	; 0x28
    13e4:	4b04      	ldr	r3, [pc, #16]	; (13f8 <std.isra.0+0x44>)
    13e6:	62e3      	str	r3, [r4, #44]	; 0x2c
    13e8:	bd10      	pop	{r4, pc}
    13ea:	46c0      	nop			; (mov r8, r8)
    13ec:	00002861 	.word	0x00002861
    13f0:	0000288d 	.word	0x0000288d
    13f4:	000028c5 	.word	0x000028c5
    13f8:	000028f1 	.word	0x000028f1

000013fc <__sfmoreglue>:
    13fc:	b570      	push	{r4, r5, r6, lr}
    13fe:	2568      	movs	r5, #104	; 0x68
    1400:	434d      	muls	r5, r1
    1402:	1c0e      	adds	r6, r1, #0
    1404:	1c29      	adds	r1, r5, #0
    1406:	310c      	adds	r1, #12
    1408:	f000 fcc4 	bl	1d94 <_malloc_r>
    140c:	1e04      	subs	r4, r0, #0
    140e:	d008      	beq.n	1422 <__sfmoreglue+0x26>
    1410:	300c      	adds	r0, #12
    1412:	2300      	movs	r3, #0
    1414:	6023      	str	r3, [r4, #0]
    1416:	6066      	str	r6, [r4, #4]
    1418:	60a0      	str	r0, [r4, #8]
    141a:	2100      	movs	r1, #0
    141c:	1c2a      	adds	r2, r5, #0
    141e:	f7ff f911 	bl	644 <memset>
    1422:	1c20      	adds	r0, r4, #0
    1424:	bd70      	pop	{r4, r5, r6, pc}
    1426:	46c0      	nop			; (mov r8, r8)

00001428 <_cleanup>:
    1428:	b508      	push	{r3, lr}
    142a:	4b02      	ldr	r3, [pc, #8]	; (1434 <_cleanup+0xc>)
    142c:	6818      	ldr	r0, [r3, #0]
    142e:	f7ff ffb9 	bl	13a4 <_cleanup_r>
    1432:	bd08      	pop	{r3, pc}
    1434:	00002c08 	.word	0x00002c08

00001438 <__sinit>:
    1438:	6b83      	ldr	r3, [r0, #56]	; 0x38
    143a:	b510      	push	{r4, lr}
    143c:	1c04      	adds	r4, r0, #0
    143e:	2b00      	cmp	r3, #0
    1440:	d11f      	bne.n	1482 <__sinit+0x4a>
    1442:	4a10      	ldr	r2, [pc, #64]	; (1484 <__sinit+0x4c>)
    1444:	2104      	movs	r1, #4
    1446:	63c2      	str	r2, [r0, #60]	; 0x3c
    1448:	2201      	movs	r2, #1
    144a:	6382      	str	r2, [r0, #56]	; 0x38
    144c:	22b8      	movs	r2, #184	; 0xb8
    144e:	0092      	lsls	r2, r2, #2
    1450:	5083      	str	r3, [r0, r2]
    1452:	23b9      	movs	r3, #185	; 0xb9
    1454:	2203      	movs	r2, #3
    1456:	009b      	lsls	r3, r3, #2
    1458:	50c2      	str	r2, [r0, r3]
    145a:	23bb      	movs	r3, #187	; 0xbb
    145c:	009b      	lsls	r3, r3, #2
    145e:	18c2      	adds	r2, r0, r3
    1460:	23ba      	movs	r3, #186	; 0xba
    1462:	009b      	lsls	r3, r3, #2
    1464:	50c2      	str	r2, [r0, r3]
    1466:	6840      	ldr	r0, [r0, #4]
    1468:	2200      	movs	r2, #0
    146a:	f7ff ffa3 	bl	13b4 <std.isra.0>
    146e:	68a0      	ldr	r0, [r4, #8]
    1470:	2109      	movs	r1, #9
    1472:	2201      	movs	r2, #1
    1474:	f7ff ff9e 	bl	13b4 <std.isra.0>
    1478:	68e0      	ldr	r0, [r4, #12]
    147a:	2112      	movs	r1, #18
    147c:	2202      	movs	r2, #2
    147e:	f7ff ff99 	bl	13b4 <std.isra.0>
    1482:	bd10      	pop	{r4, pc}
    1484:	000013a5 	.word	0x000013a5

00001488 <__sfp>:
    1488:	4b21      	ldr	r3, [pc, #132]	; (1510 <__sfp+0x88>)
    148a:	b570      	push	{r4, r5, r6, lr}
    148c:	681d      	ldr	r5, [r3, #0]
    148e:	1c06      	adds	r6, r0, #0
    1490:	6ba9      	ldr	r1, [r5, #56]	; 0x38
    1492:	2900      	cmp	r1, #0
    1494:	d02c      	beq.n	14f0 <__sfp+0x68>
    1496:	23b8      	movs	r3, #184	; 0xb8
    1498:	009b      	lsls	r3, r3, #2
    149a:	18ed      	adds	r5, r5, r3
    149c:	686b      	ldr	r3, [r5, #4]
    149e:	68ac      	ldr	r4, [r5, #8]
    14a0:	3b01      	subs	r3, #1
    14a2:	d503      	bpl.n	14ac <__sfp+0x24>
    14a4:	e01f      	b.n	14e6 <__sfp+0x5e>
    14a6:	3468      	adds	r4, #104	; 0x68
    14a8:	3b01      	subs	r3, #1
    14aa:	d31c      	bcc.n	14e6 <__sfp+0x5e>
    14ac:	210c      	movs	r1, #12
    14ae:	5e62      	ldrsh	r2, [r4, r1]
    14b0:	2a00      	cmp	r2, #0
    14b2:	d1f8      	bne.n	14a6 <__sfp+0x1e>
    14b4:	2301      	movs	r3, #1
    14b6:	425b      	negs	r3, r3
    14b8:	2500      	movs	r5, #0
    14ba:	81e3      	strh	r3, [r4, #14]
    14bc:	1c20      	adds	r0, r4, #0
    14be:	2301      	movs	r3, #1
    14c0:	81a3      	strh	r3, [r4, #12]
    14c2:	6665      	str	r5, [r4, #100]	; 0x64
    14c4:	6025      	str	r5, [r4, #0]
    14c6:	60a5      	str	r5, [r4, #8]
    14c8:	6065      	str	r5, [r4, #4]
    14ca:	6125      	str	r5, [r4, #16]
    14cc:	6165      	str	r5, [r4, #20]
    14ce:	61a5      	str	r5, [r4, #24]
    14d0:	305c      	adds	r0, #92	; 0x5c
    14d2:	2100      	movs	r1, #0
    14d4:	2208      	movs	r2, #8
    14d6:	f7ff f8b5 	bl	644 <memset>
    14da:	6325      	str	r5, [r4, #48]	; 0x30
    14dc:	6365      	str	r5, [r4, #52]	; 0x34
    14de:	6465      	str	r5, [r4, #68]	; 0x44
    14e0:	64a5      	str	r5, [r4, #72]	; 0x48
    14e2:	1c20      	adds	r0, r4, #0
    14e4:	bd70      	pop	{r4, r5, r6, pc}
    14e6:	6828      	ldr	r0, [r5, #0]
    14e8:	2800      	cmp	r0, #0
    14ea:	d005      	beq.n	14f8 <__sfp+0x70>
    14ec:	1c05      	adds	r5, r0, #0
    14ee:	e7d5      	b.n	149c <__sfp+0x14>
    14f0:	1c28      	adds	r0, r5, #0
    14f2:	f7ff ffa1 	bl	1438 <__sinit>
    14f6:	e7ce      	b.n	1496 <__sfp+0xe>
    14f8:	1c30      	adds	r0, r6, #0
    14fa:	2104      	movs	r1, #4
    14fc:	f7ff ff7e 	bl	13fc <__sfmoreglue>
    1500:	6028      	str	r0, [r5, #0]
    1502:	2800      	cmp	r0, #0
    1504:	d1f2      	bne.n	14ec <__sfp+0x64>
    1506:	230c      	movs	r3, #12
    1508:	6033      	str	r3, [r6, #0]
    150a:	2400      	movs	r4, #0
    150c:	e7e9      	b.n	14e2 <__sfp+0x5a>
    150e:	46c0      	nop			; (mov r8, r8)
    1510:	00002c08 	.word	0x00002c08

00001514 <__sfp_lock_acquire>:
    1514:	4770      	bx	lr
    1516:	46c0      	nop			; (mov r8, r8)

00001518 <__sfp_lock_release>:
    1518:	4770      	bx	lr
    151a:	46c0      	nop			; (mov r8, r8)

0000151c <__sinit_lock_acquire>:
    151c:	4770      	bx	lr
    151e:	46c0      	nop			; (mov r8, r8)

00001520 <__sinit_lock_release>:
    1520:	4770      	bx	lr
    1522:	46c0      	nop			; (mov r8, r8)

00001524 <__fp_lock_all>:
    1524:	b508      	push	{r3, lr}
    1526:	4b03      	ldr	r3, [pc, #12]	; (1534 <__fp_lock_all+0x10>)
    1528:	4903      	ldr	r1, [pc, #12]	; (1538 <__fp_lock_all+0x14>)
    152a:	6818      	ldr	r0, [r3, #0]
    152c:	f000 fb26 	bl	1b7c <_fwalk>
    1530:	bd08      	pop	{r3, pc}
    1532:	46c0      	nop			; (mov r8, r8)
    1534:	100000c8 	.word	0x100000c8
    1538:	0000139d 	.word	0x0000139d

0000153c <__fp_unlock_all>:
    153c:	b508      	push	{r3, lr}
    153e:	4b03      	ldr	r3, [pc, #12]	; (154c <__fp_unlock_all+0x10>)
    1540:	4903      	ldr	r1, [pc, #12]	; (1550 <__fp_unlock_all+0x14>)
    1542:	6818      	ldr	r0, [r3, #0]
    1544:	f000 fb1a 	bl	1b7c <_fwalk>
    1548:	bd08      	pop	{r3, pc}
    154a:	46c0      	nop			; (mov r8, r8)
    154c:	100000c8 	.word	0x100000c8
    1550:	000013a1 	.word	0x000013a1

00001554 <_fputwc_r>:
    1554:	b5f0      	push	{r4, r5, r6, r7, lr}
    1556:	464f      	mov	r7, r9
    1558:	4646      	mov	r6, r8
    155a:	b4c0      	push	{r6, r7}
    155c:	1c14      	adds	r4, r2, #0
    155e:	2380      	movs	r3, #128	; 0x80
    1560:	8992      	ldrh	r2, [r2, #12]
    1562:	019b      	lsls	r3, r3, #6
    1564:	b083      	sub	sp, #12
    1566:	4681      	mov	r9, r0
    1568:	4688      	mov	r8, r1
    156a:	421a      	tst	r2, r3
    156c:	d104      	bne.n	1578 <_fputwc_r+0x24>
    156e:	431a      	orrs	r2, r3
    1570:	81a2      	strh	r2, [r4, #12]
    1572:	6e62      	ldr	r2, [r4, #100]	; 0x64
    1574:	4313      	orrs	r3, r2
    1576:	6663      	str	r3, [r4, #100]	; 0x64
    1578:	f000 fb78 	bl	1c6c <__locale_mb_cur_max>
    157c:	af01      	add	r7, sp, #4
    157e:	2801      	cmp	r0, #1
    1580:	d041      	beq.n	1606 <_fputwc_r+0xb2>
    1582:	1c23      	adds	r3, r4, #0
    1584:	335c      	adds	r3, #92	; 0x5c
    1586:	4648      	mov	r0, r9
    1588:	1c39      	adds	r1, r7, #0
    158a:	4642      	mov	r2, r8
    158c:	f001 fa2c 	bl	29e8 <_wcrtomb_r>
    1590:	1c06      	adds	r6, r0, #0
    1592:	1c42      	adds	r2, r0, #1
    1594:	d023      	beq.n	15de <_fputwc_r+0x8a>
    1596:	2800      	cmp	r0, #0
    1598:	d02a      	beq.n	15f0 <_fputwc_r+0x9c>
    159a:	2500      	movs	r5, #0
    159c:	e008      	b.n	15b0 <_fputwc_r+0x5c>
    159e:	5d7b      	ldrb	r3, [r7, r5]
    15a0:	6822      	ldr	r2, [r4, #0]
    15a2:	7013      	strb	r3, [r2, #0]
    15a4:	6823      	ldr	r3, [r4, #0]
    15a6:	3301      	adds	r3, #1
    15a8:	6023      	str	r3, [r4, #0]
    15aa:	3501      	adds	r5, #1
    15ac:	42b5      	cmp	r5, r6
    15ae:	d21f      	bcs.n	15f0 <_fputwc_r+0x9c>
    15b0:	68a3      	ldr	r3, [r4, #8]
    15b2:	3b01      	subs	r3, #1
    15b4:	60a3      	str	r3, [r4, #8]
    15b6:	2b00      	cmp	r3, #0
    15b8:	daf1      	bge.n	159e <_fputwc_r+0x4a>
    15ba:	69a2      	ldr	r2, [r4, #24]
    15bc:	4293      	cmp	r3, r2
    15be:	db19      	blt.n	15f4 <_fputwc_r+0xa0>
    15c0:	5d7b      	ldrb	r3, [r7, r5]
    15c2:	6822      	ldr	r2, [r4, #0]
    15c4:	7013      	strb	r3, [r2, #0]
    15c6:	6823      	ldr	r3, [r4, #0]
    15c8:	781a      	ldrb	r2, [r3, #0]
    15ca:	2a0a      	cmp	r2, #10
    15cc:	d023      	beq.n	1616 <_fputwc_r+0xc2>
    15ce:	3301      	adds	r3, #1
    15d0:	2200      	movs	r2, #0
    15d2:	6023      	str	r3, [r4, #0]
    15d4:	2a00      	cmp	r2, #0
    15d6:	d0e8      	beq.n	15aa <_fputwc_r+0x56>
    15d8:	2001      	movs	r0, #1
    15da:	4240      	negs	r0, r0
    15dc:	e003      	b.n	15e6 <_fputwc_r+0x92>
    15de:	89a2      	ldrh	r2, [r4, #12]
    15e0:	2340      	movs	r3, #64	; 0x40
    15e2:	4313      	orrs	r3, r2
    15e4:	81a3      	strh	r3, [r4, #12]
    15e6:	b003      	add	sp, #12
    15e8:	bc0c      	pop	{r2, r3}
    15ea:	4690      	mov	r8, r2
    15ec:	4699      	mov	r9, r3
    15ee:	bdf0      	pop	{r4, r5, r6, r7, pc}
    15f0:	4640      	mov	r0, r8
    15f2:	e7f8      	b.n	15e6 <_fputwc_r+0x92>
    15f4:	1c22      	adds	r2, r4, #0
    15f6:	5d79      	ldrb	r1, [r7, r5]
    15f8:	4648      	mov	r0, r9
    15fa:	f001 f991 	bl	2920 <__swbuf_r>
    15fe:	1c42      	adds	r2, r0, #1
    1600:	4253      	negs	r3, r2
    1602:	415a      	adcs	r2, r3
    1604:	e7e6      	b.n	15d4 <_fputwc_r+0x80>
    1606:	4643      	mov	r3, r8
    1608:	3b01      	subs	r3, #1
    160a:	2bfe      	cmp	r3, #254	; 0xfe
    160c:	d8b9      	bhi.n	1582 <_fputwc_r+0x2e>
    160e:	4643      	mov	r3, r8
    1610:	703b      	strb	r3, [r7, #0]
    1612:	2601      	movs	r6, #1
    1614:	e7c1      	b.n	159a <_fputwc_r+0x46>
    1616:	1c22      	adds	r2, r4, #0
    1618:	4648      	mov	r0, r9
    161a:	210a      	movs	r1, #10
    161c:	f001 f980 	bl	2920 <__swbuf_r>
    1620:	1c42      	adds	r2, r0, #1
    1622:	4253      	negs	r3, r2
    1624:	415a      	adcs	r2, r3
    1626:	e7d5      	b.n	15d4 <_fputwc_r+0x80>

00001628 <fputwc>:
    1628:	b570      	push	{r4, r5, r6, lr}
    162a:	4c08      	ldr	r4, [pc, #32]	; (164c <fputwc+0x24>)
    162c:	1c06      	adds	r6, r0, #0
    162e:	6820      	ldr	r0, [r4, #0]
    1630:	1c0d      	adds	r5, r1, #0
    1632:	2800      	cmp	r0, #0
    1634:	d005      	beq.n	1642 <fputwc+0x1a>
    1636:	6b83      	ldr	r3, [r0, #56]	; 0x38
    1638:	2b00      	cmp	r3, #0
    163a:	d102      	bne.n	1642 <fputwc+0x1a>
    163c:	f7ff fefc 	bl	1438 <__sinit>
    1640:	6820      	ldr	r0, [r4, #0]
    1642:	1c31      	adds	r1, r6, #0
    1644:	1c2a      	adds	r2, r5, #0
    1646:	f7ff ff85 	bl	1554 <_fputwc_r>
    164a:	bd70      	pop	{r4, r5, r6, pc}
    164c:	100000c8 	.word	0x100000c8

00001650 <_malloc_trim_r>:
    1650:	b5f8      	push	{r3, r4, r5, r6, r7, lr}
    1652:	1c0f      	adds	r7, r1, #0
    1654:	1c04      	adds	r4, r0, #0
    1656:	f000 ff0d 	bl	2474 <__malloc_lock>
    165a:	4d20      	ldr	r5, [pc, #128]	; (16dc <_malloc_trim_r+0x8c>)
    165c:	4a20      	ldr	r2, [pc, #128]	; (16e0 <_malloc_trim_r+0x90>)
    165e:	68ab      	ldr	r3, [r5, #8]
    1660:	685e      	ldr	r6, [r3, #4]
    1662:	2303      	movs	r3, #3
    1664:	439e      	bics	r6, r3
    1666:	18b3      	adds	r3, r6, r2
    1668:	1bdf      	subs	r7, r3, r7
    166a:	0b3f      	lsrs	r7, r7, #12
    166c:	4b1d      	ldr	r3, [pc, #116]	; (16e4 <_malloc_trim_r+0x94>)
    166e:	3f01      	subs	r7, #1
    1670:	033f      	lsls	r7, r7, #12
    1672:	429f      	cmp	r7, r3
    1674:	dd07      	ble.n	1686 <_malloc_trim_r+0x36>
    1676:	1c20      	adds	r0, r4, #0
    1678:	2100      	movs	r1, #0
    167a:	f7fe ff45 	bl	508 <_sbrk_r>
    167e:	68aa      	ldr	r2, [r5, #8]
    1680:	1993      	adds	r3, r2, r6
    1682:	4298      	cmp	r0, r3
    1684:	d004      	beq.n	1690 <_malloc_trim_r+0x40>
    1686:	1c20      	adds	r0, r4, #0
    1688:	f000 fef6 	bl	2478 <__malloc_unlock>
    168c:	2000      	movs	r0, #0
    168e:	bdf8      	pop	{r3, r4, r5, r6, r7, pc}
    1690:	4279      	negs	r1, r7
    1692:	1c20      	adds	r0, r4, #0
    1694:	f7fe ff38 	bl	508 <_sbrk_r>
    1698:	3001      	adds	r0, #1
    169a:	d00d      	beq.n	16b8 <_malloc_trim_r+0x68>
    169c:	68ab      	ldr	r3, [r5, #8]
    169e:	1bf6      	subs	r6, r6, r7
    16a0:	2201      	movs	r2, #1
    16a2:	4316      	orrs	r6, r2
    16a4:	605e      	str	r6, [r3, #4]
    16a6:	4b10      	ldr	r3, [pc, #64]	; (16e8 <_malloc_trim_r+0x98>)
    16a8:	1c20      	adds	r0, r4, #0
    16aa:	681a      	ldr	r2, [r3, #0]
    16ac:	1bd7      	subs	r7, r2, r7
    16ae:	601f      	str	r7, [r3, #0]
    16b0:	f000 fee2 	bl	2478 <__malloc_unlock>
    16b4:	2001      	movs	r0, #1
    16b6:	e7ea      	b.n	168e <_malloc_trim_r+0x3e>
    16b8:	1c20      	adds	r0, r4, #0
    16ba:	2100      	movs	r1, #0
    16bc:	f7fe ff24 	bl	508 <_sbrk_r>
    16c0:	68ab      	ldr	r3, [r5, #8]
    16c2:	1ac2      	subs	r2, r0, r3
    16c4:	2a0f      	cmp	r2, #15
    16c6:	ddde      	ble.n	1686 <_malloc_trim_r+0x36>
    16c8:	4908      	ldr	r1, [pc, #32]	; (16ec <_malloc_trim_r+0x9c>)
    16ca:	6809      	ldr	r1, [r1, #0]
    16cc:	1a40      	subs	r0, r0, r1
    16ce:	4906      	ldr	r1, [pc, #24]	; (16e8 <_malloc_trim_r+0x98>)
    16d0:	6008      	str	r0, [r1, #0]
    16d2:	2101      	movs	r1, #1
    16d4:	430a      	orrs	r2, r1
    16d6:	605a      	str	r2, [r3, #4]
    16d8:	e7d5      	b.n	1686 <_malloc_trim_r+0x36>
    16da:	46c0      	nop			; (mov r8, r8)
    16dc:	10000574 	.word	0x10000574
    16e0:	00000fef 	.word	0x00000fef
    16e4:	00000fff 	.word	0x00000fff
    16e8:	100009a4 	.word	0x100009a4
    16ec:	1000097c 	.word	0x1000097c

000016f0 <_free_r>:
    16f0:	b5f0      	push	{r4, r5, r6, r7, lr}
    16f2:	4647      	mov	r7, r8
    16f4:	b480      	push	{r7}
    16f6:	1c05      	adds	r5, r0, #0
    16f8:	1e0c      	subs	r4, r1, #0
    16fa:	d055      	beq.n	17a8 <_free_r+0xb8>
    16fc:	f000 feba 	bl	2474 <__malloc_lock>
    1700:	1c21      	adds	r1, r4, #0
    1702:	3908      	subs	r1, #8
    1704:	6848      	ldr	r0, [r1, #4]
    1706:	2701      	movs	r7, #1
    1708:	1c03      	adds	r3, r0, #0
    170a:	43bb      	bics	r3, r7
    170c:	18ca      	adds	r2, r1, r3
    170e:	6854      	ldr	r4, [r2, #4]
    1710:	4680      	mov	r8, r0
    1712:	2003      	movs	r0, #3
    1714:	4384      	bics	r4, r0
    1716:	1c20      	adds	r0, r4, #0
    1718:	4c53      	ldr	r4, [pc, #332]	; (1868 <_free_r+0x178>)
    171a:	68a6      	ldr	r6, [r4, #8]
    171c:	4296      	cmp	r6, r2
    171e:	d060      	beq.n	17e2 <_free_r+0xf2>
    1720:	2600      	movs	r6, #0
    1722:	46b4      	mov	ip, r6
    1724:	4646      	mov	r6, r8
    1726:	6050      	str	r0, [r2, #4]
    1728:	4237      	tst	r7, r6
    172a:	d10a      	bne.n	1742 <_free_r+0x52>
    172c:	680e      	ldr	r6, [r1, #0]
    172e:	1c27      	adds	r7, r4, #0
    1730:	1b89      	subs	r1, r1, r6
    1732:	199b      	adds	r3, r3, r6
    1734:	688e      	ldr	r6, [r1, #8]
    1736:	3708      	adds	r7, #8
    1738:	42be      	cmp	r6, r7
    173a:	d06b      	beq.n	1814 <_free_r+0x124>
    173c:	68cf      	ldr	r7, [r1, #12]
    173e:	60f7      	str	r7, [r6, #12]
    1740:	60be      	str	r6, [r7, #8]
    1742:	1817      	adds	r7, r2, r0
    1744:	687f      	ldr	r7, [r7, #4]
    1746:	2601      	movs	r6, #1
    1748:	4237      	tst	r7, r6
    174a:	d107      	bne.n	175c <_free_r+0x6c>
    174c:	181b      	adds	r3, r3, r0
    174e:	4660      	mov	r0, ip
    1750:	2800      	cmp	r0, #0
    1752:	d02c      	beq.n	17ae <_free_r+0xbe>
    1754:	6890      	ldr	r0, [r2, #8]
    1756:	68d2      	ldr	r2, [r2, #12]
    1758:	60c2      	str	r2, [r0, #12]
    175a:	6090      	str	r0, [r2, #8]
    175c:	2201      	movs	r2, #1
    175e:	1c18      	adds	r0, r3, #0
    1760:	4310      	orrs	r0, r2
    1762:	4666      	mov	r6, ip
    1764:	6048      	str	r0, [r1, #4]
    1766:	50cb      	str	r3, [r1, r3]
    1768:	2e00      	cmp	r6, #0
    176a:	d11a      	bne.n	17a2 <_free_r+0xb2>
    176c:	483f      	ldr	r0, [pc, #252]	; (186c <_free_r+0x17c>)
    176e:	4283      	cmp	r3, r0
    1770:	d929      	bls.n	17c6 <_free_r+0xd6>
    1772:	0a5a      	lsrs	r2, r3, #9
    1774:	2a04      	cmp	r2, #4
    1776:	d850      	bhi.n	181a <_free_r+0x12a>
    1778:	099f      	lsrs	r7, r3, #6
    177a:	3738      	adds	r7, #56	; 0x38
    177c:	0078      	lsls	r0, r7, #1
    177e:	0080      	lsls	r0, r0, #2
    1780:	1820      	adds	r0, r4, r0
    1782:	6882      	ldr	r2, [r0, #8]
    1784:	2603      	movs	r6, #3
    1786:	4282      	cmp	r2, r0
    1788:	d04d      	beq.n	1826 <_free_r+0x136>
    178a:	6854      	ldr	r4, [r2, #4]
    178c:	43b4      	bics	r4, r6
    178e:	42a3      	cmp	r3, r4
    1790:	d202      	bcs.n	1798 <_free_r+0xa8>
    1792:	6892      	ldr	r2, [r2, #8]
    1794:	4290      	cmp	r0, r2
    1796:	d1f8      	bne.n	178a <_free_r+0x9a>
    1798:	68d3      	ldr	r3, [r2, #12]
    179a:	60cb      	str	r3, [r1, #12]
    179c:	608a      	str	r2, [r1, #8]
    179e:	60d1      	str	r1, [r2, #12]
    17a0:	6099      	str	r1, [r3, #8]
    17a2:	1c28      	adds	r0, r5, #0
    17a4:	f000 fe68 	bl	2478 <__malloc_unlock>
    17a8:	bc04      	pop	{r2}
    17aa:	4690      	mov	r8, r2
    17ac:	bdf0      	pop	{r4, r5, r6, r7, pc}
    17ae:	6890      	ldr	r0, [r2, #8]
    17b0:	4f2f      	ldr	r7, [pc, #188]	; (1870 <_free_r+0x180>)
    17b2:	42b8      	cmp	r0, r7
    17b4:	d1cf      	bne.n	1756 <_free_r+0x66>
    17b6:	431e      	orrs	r6, r3
    17b8:	60c1      	str	r1, [r0, #12]
    17ba:	6081      	str	r1, [r0, #8]
    17bc:	60c8      	str	r0, [r1, #12]
    17be:	6088      	str	r0, [r1, #8]
    17c0:	604e      	str	r6, [r1, #4]
    17c2:	50cb      	str	r3, [r1, r3]
    17c4:	e7ed      	b.n	17a2 <_free_r+0xb2>
    17c6:	08db      	lsrs	r3, r3, #3
    17c8:	1098      	asrs	r0, r3, #2
    17ca:	4082      	lsls	r2, r0
    17cc:	6860      	ldr	r0, [r4, #4]
    17ce:	00db      	lsls	r3, r3, #3
    17d0:	4302      	orrs	r2, r0
    17d2:	6062      	str	r2, [r4, #4]
    17d4:	18e4      	adds	r4, r4, r3
    17d6:	68a3      	ldr	r3, [r4, #8]
    17d8:	60cc      	str	r4, [r1, #12]
    17da:	608b      	str	r3, [r1, #8]
    17dc:	60d9      	str	r1, [r3, #12]
    17de:	60a1      	str	r1, [r4, #8]
    17e0:	e7df      	b.n	17a2 <_free_r+0xb2>
    17e2:	18c3      	adds	r3, r0, r3
    17e4:	4640      	mov	r0, r8
    17e6:	4207      	tst	r7, r0
    17e8:	d106      	bne.n	17f8 <_free_r+0x108>
    17ea:	680a      	ldr	r2, [r1, #0]
    17ec:	1a89      	subs	r1, r1, r2
    17ee:	68c8      	ldr	r0, [r1, #12]
    17f0:	189b      	adds	r3, r3, r2
    17f2:	688a      	ldr	r2, [r1, #8]
    17f4:	60d0      	str	r0, [r2, #12]
    17f6:	6082      	str	r2, [r0, #8]
    17f8:	2201      	movs	r2, #1
    17fa:	431a      	orrs	r2, r3
    17fc:	604a      	str	r2, [r1, #4]
    17fe:	4a1d      	ldr	r2, [pc, #116]	; (1874 <_free_r+0x184>)
    1800:	60a1      	str	r1, [r4, #8]
    1802:	6812      	ldr	r2, [r2, #0]
    1804:	4293      	cmp	r3, r2
    1806:	d3cc      	bcc.n	17a2 <_free_r+0xb2>
    1808:	4b1b      	ldr	r3, [pc, #108]	; (1878 <_free_r+0x188>)
    180a:	1c28      	adds	r0, r5, #0
    180c:	6819      	ldr	r1, [r3, #0]
    180e:	f7ff ff1f 	bl	1650 <_malloc_trim_r>
    1812:	e7c6      	b.n	17a2 <_free_r+0xb2>
    1814:	2601      	movs	r6, #1
    1816:	46b4      	mov	ip, r6
    1818:	e793      	b.n	1742 <_free_r+0x52>
    181a:	2a14      	cmp	r2, #20
    181c:	d80c      	bhi.n	1838 <_free_r+0x148>
    181e:	1c17      	adds	r7, r2, #0
    1820:	375b      	adds	r7, #91	; 0x5b
    1822:	0078      	lsls	r0, r7, #1
    1824:	e7ab      	b.n	177e <_free_r+0x8e>
    1826:	10bf      	asrs	r7, r7, #2
    1828:	2301      	movs	r3, #1
    182a:	40bb      	lsls	r3, r7
    182c:	1c1f      	adds	r7, r3, #0
    182e:	6863      	ldr	r3, [r4, #4]
    1830:	431f      	orrs	r7, r3
    1832:	6067      	str	r7, [r4, #4]
    1834:	1c13      	adds	r3, r2, #0
    1836:	e7b0      	b.n	179a <_free_r+0xaa>
    1838:	2a54      	cmp	r2, #84	; 0x54
    183a:	d803      	bhi.n	1844 <_free_r+0x154>
    183c:	0b1f      	lsrs	r7, r3, #12
    183e:	376e      	adds	r7, #110	; 0x6e
    1840:	0078      	lsls	r0, r7, #1
    1842:	e79c      	b.n	177e <_free_r+0x8e>
    1844:	20aa      	movs	r0, #170	; 0xaa
    1846:	0040      	lsls	r0, r0, #1
    1848:	4282      	cmp	r2, r0
    184a:	d803      	bhi.n	1854 <_free_r+0x164>
    184c:	0bdf      	lsrs	r7, r3, #15
    184e:	3777      	adds	r7, #119	; 0x77
    1850:	0078      	lsls	r0, r7, #1
    1852:	e794      	b.n	177e <_free_r+0x8e>
    1854:	4809      	ldr	r0, [pc, #36]	; (187c <_free_r+0x18c>)
    1856:	4282      	cmp	r2, r0
    1858:	d803      	bhi.n	1862 <_free_r+0x172>
    185a:	0c9f      	lsrs	r7, r3, #18
    185c:	377c      	adds	r7, #124	; 0x7c
    185e:	0078      	lsls	r0, r7, #1
    1860:	e78d      	b.n	177e <_free_r+0x8e>
    1862:	20fc      	movs	r0, #252	; 0xfc
    1864:	277e      	movs	r7, #126	; 0x7e
    1866:	e78a      	b.n	177e <_free_r+0x8e>
    1868:	10000574 	.word	0x10000574
    186c:	000001ff 	.word	0x000001ff
    1870:	1000057c 	.word	0x1000057c
    1874:	10000980 	.word	0x10000980
    1878:	100009a0 	.word	0x100009a0
    187c:	00000554 	.word	0x00000554

00001880 <__sfvwrite_r>:
    1880:	b5f0      	push	{r4, r5, r6, r7, lr}
    1882:	464d      	mov	r5, r9
    1884:	4644      	mov	r4, r8
    1886:	465f      	mov	r7, fp
    1888:	4656      	mov	r6, sl
    188a:	b4f0      	push	{r4, r5, r6, r7}
    188c:	b085      	sub	sp, #20
    188e:	9003      	str	r0, [sp, #12]
    1890:	6890      	ldr	r0, [r2, #8]
    1892:	1c0c      	adds	r4, r1, #0
    1894:	1c15      	adds	r5, r2, #0
    1896:	2800      	cmp	r0, #0
    1898:	d023      	beq.n	18e2 <__sfvwrite_r+0x62>
    189a:	898b      	ldrh	r3, [r1, #12]
    189c:	0719      	lsls	r1, r3, #28
    189e:	d528      	bpl.n	18f2 <__sfvwrite_r+0x72>
    18a0:	6922      	ldr	r2, [r4, #16]
    18a2:	2a00      	cmp	r2, #0
    18a4:	d025      	beq.n	18f2 <__sfvwrite_r+0x72>
    18a6:	682f      	ldr	r7, [r5, #0]
    18a8:	46ba      	mov	sl, r7
    18aa:	0798      	lsls	r0, r3, #30
    18ac:	d52d      	bpl.n	190a <__sfvwrite_r+0x8a>
    18ae:	2380      	movs	r3, #128	; 0x80
    18b0:	2700      	movs	r7, #0
    18b2:	00db      	lsls	r3, r3, #3
    18b4:	2600      	movs	r6, #0
    18b6:	4698      	mov	r8, r3
    18b8:	46b9      	mov	r9, r7
    18ba:	2e00      	cmp	r6, #0
    18bc:	d061      	beq.n	1982 <__sfvwrite_r+0x102>
    18be:	69e1      	ldr	r1, [r4, #28]
    18c0:	1c33      	adds	r3, r6, #0
    18c2:	4546      	cmp	r6, r8
    18c4:	d901      	bls.n	18ca <__sfvwrite_r+0x4a>
    18c6:	2380      	movs	r3, #128	; 0x80
    18c8:	00db      	lsls	r3, r3, #3
    18ca:	9803      	ldr	r0, [sp, #12]
    18cc:	464a      	mov	r2, r9
    18ce:	6a67      	ldr	r7, [r4, #36]	; 0x24
    18d0:	47b8      	blx	r7
    18d2:	2800      	cmp	r0, #0
    18d4:	dd5f      	ble.n	1996 <__sfvwrite_r+0x116>
    18d6:	68a9      	ldr	r1, [r5, #8]
    18d8:	4481      	add	r9, r0
    18da:	1a36      	subs	r6, r6, r0
    18dc:	1a08      	subs	r0, r1, r0
    18de:	60a8      	str	r0, [r5, #8]
    18e0:	d1eb      	bne.n	18ba <__sfvwrite_r+0x3a>
    18e2:	2000      	movs	r0, #0
    18e4:	b005      	add	sp, #20
    18e6:	bc3c      	pop	{r2, r3, r4, r5}
    18e8:	4690      	mov	r8, r2
    18ea:	4699      	mov	r9, r3
    18ec:	46a2      	mov	sl, r4
    18ee:	46ab      	mov	fp, r5
    18f0:	bdf0      	pop	{r4, r5, r6, r7, pc}
    18f2:	9803      	ldr	r0, [sp, #12]
    18f4:	1c21      	adds	r1, r4, #0
    18f6:	f7ff fc19 	bl	112c <__swsetup_r>
    18fa:	2800      	cmp	r0, #0
    18fc:	d000      	beq.n	1900 <__sfvwrite_r+0x80>
    18fe:	e137      	b.n	1b70 <__sfvwrite_r+0x2f0>
    1900:	682f      	ldr	r7, [r5, #0]
    1902:	89a3      	ldrh	r3, [r4, #12]
    1904:	46ba      	mov	sl, r7
    1906:	0798      	lsls	r0, r3, #30
    1908:	d4d1      	bmi.n	18ae <__sfvwrite_r+0x2e>
    190a:	07da      	lsls	r2, r3, #31
    190c:	d54a      	bpl.n	19a4 <__sfvwrite_r+0x124>
    190e:	2700      	movs	r7, #0
    1910:	2300      	movs	r3, #0
    1912:	46a9      	mov	r9, r5
    1914:	9701      	str	r7, [sp, #4]
    1916:	46bb      	mov	fp, r7
    1918:	2600      	movs	r6, #0
    191a:	1c1d      	adds	r5, r3, #0
    191c:	2e00      	cmp	r6, #0
    191e:	d027      	beq.n	1970 <__sfvwrite_r+0xf0>
    1920:	9f01      	ldr	r7, [sp, #4]
    1922:	2f00      	cmp	r7, #0
    1924:	d100      	bne.n	1928 <__sfvwrite_r+0xa8>
    1926:	e0b4      	b.n	1a92 <__sfvwrite_r+0x212>
    1928:	46a8      	mov	r8, r5
    192a:	42b5      	cmp	r5, r6
    192c:	d900      	bls.n	1930 <__sfvwrite_r+0xb0>
    192e:	46b0      	mov	r8, r6
    1930:	6820      	ldr	r0, [r4, #0]
    1932:	6921      	ldr	r1, [r4, #16]
    1934:	68a7      	ldr	r7, [r4, #8]
    1936:	6963      	ldr	r3, [r4, #20]
    1938:	4288      	cmp	r0, r1
    193a:	d903      	bls.n	1944 <__sfvwrite_r+0xc4>
    193c:	18ff      	adds	r7, r7, r3
    193e:	45b8      	cmp	r8, r7
    1940:	dd00      	ble.n	1944 <__sfvwrite_r+0xc4>
    1942:	e0e5      	b.n	1b10 <__sfvwrite_r+0x290>
    1944:	4598      	cmp	r8, r3
    1946:	db78      	blt.n	1a3a <__sfvwrite_r+0x1ba>
    1948:	6a67      	ldr	r7, [r4, #36]	; 0x24
    194a:	9803      	ldr	r0, [sp, #12]
    194c:	69e1      	ldr	r1, [r4, #28]
    194e:	465a      	mov	r2, fp
    1950:	47b8      	blx	r7
    1952:	1e07      	subs	r7, r0, #0
    1954:	dd1f      	ble.n	1996 <__sfvwrite_r+0x116>
    1956:	1bed      	subs	r5, r5, r7
    1958:	d100      	bne.n	195c <__sfvwrite_r+0xdc>
    195a:	e07e      	b.n	1a5a <__sfvwrite_r+0x1da>
    195c:	4648      	mov	r0, r9
    195e:	6880      	ldr	r0, [r0, #8]
    1960:	44bb      	add	fp, r7
    1962:	1bf6      	subs	r6, r6, r7
    1964:	4649      	mov	r1, r9
    1966:	1bc7      	subs	r7, r0, r7
    1968:	608f      	str	r7, [r1, #8]
    196a:	d0ba      	beq.n	18e2 <__sfvwrite_r+0x62>
    196c:	2e00      	cmp	r6, #0
    196e:	d1d7      	bne.n	1920 <__sfvwrite_r+0xa0>
    1970:	4650      	mov	r0, sl
    1972:	6807      	ldr	r7, [r0, #0]
    1974:	2108      	movs	r1, #8
    1976:	46bb      	mov	fp, r7
    1978:	2700      	movs	r7, #0
    197a:	6846      	ldr	r6, [r0, #4]
    197c:	448a      	add	sl, r1
    197e:	9701      	str	r7, [sp, #4]
    1980:	e7cc      	b.n	191c <__sfvwrite_r+0x9c>
    1982:	4652      	mov	r2, sl
    1984:	6811      	ldr	r1, [r2, #0]
    1986:	2308      	movs	r3, #8
    1988:	4689      	mov	r9, r1
    198a:	6856      	ldr	r6, [r2, #4]
    198c:	449a      	add	sl, r3
    198e:	e794      	b.n	18ba <__sfvwrite_r+0x3a>
    1990:	9d03      	ldr	r5, [sp, #12]
    1992:	230c      	movs	r3, #12
    1994:	602b      	str	r3, [r5, #0]
    1996:	89a2      	ldrh	r2, [r4, #12]
    1998:	2340      	movs	r3, #64	; 0x40
    199a:	4313      	orrs	r3, r2
    199c:	2001      	movs	r0, #1
    199e:	81a3      	strh	r3, [r4, #12]
    19a0:	4240      	negs	r0, r0
    19a2:	e79f      	b.n	18e4 <__sfvwrite_r+0x64>
    19a4:	2700      	movs	r7, #0
    19a6:	46bb      	mov	fp, r7
    19a8:	2600      	movs	r6, #0
    19aa:	46a8      	mov	r8, r5
    19ac:	2e00      	cmp	r6, #0
    19ae:	d029      	beq.n	1a04 <__sfvwrite_r+0x184>
    19b0:	2080      	movs	r0, #128	; 0x80
    19b2:	0080      	lsls	r0, r0, #2
    19b4:	68a7      	ldr	r7, [r4, #8]
    19b6:	1c1a      	adds	r2, r3, #0
    19b8:	4203      	tst	r3, r0
    19ba:	d02a      	beq.n	1a12 <__sfvwrite_r+0x192>
    19bc:	46b9      	mov	r9, r7
    19be:	42be      	cmp	r6, r7
    19c0:	d354      	bcc.n	1a6c <__sfvwrite_r+0x1ec>
    19c2:	2190      	movs	r1, #144	; 0x90
    19c4:	00c9      	lsls	r1, r1, #3
    19c6:	4211      	tst	r1, r2
    19c8:	d170      	bne.n	1aac <__sfvwrite_r+0x22c>
    19ca:	6820      	ldr	r0, [r4, #0]
    19cc:	9702      	str	r7, [sp, #8]
    19ce:	1c35      	adds	r5, r6, #0
    19d0:	1c37      	adds	r7, r6, #0
    19d2:	4659      	mov	r1, fp
    19d4:	464a      	mov	r2, r9
    19d6:	f000 fcf7 	bl	23c8 <memmove>
    19da:	68a1      	ldr	r1, [r4, #8]
    19dc:	9a02      	ldr	r2, [sp, #8]
    19de:	6820      	ldr	r0, [r4, #0]
    19e0:	1a8b      	subs	r3, r1, r2
    19e2:	60a3      	str	r3, [r4, #8]
    19e4:	1c03      	adds	r3, r0, #0
    19e6:	444b      	add	r3, r9
    19e8:	6023      	str	r3, [r4, #0]
    19ea:	4642      	mov	r2, r8
    19ec:	6892      	ldr	r2, [r2, #8]
    19ee:	4643      	mov	r3, r8
    19f0:	1bd7      	subs	r7, r2, r7
    19f2:	44ab      	add	fp, r5
    19f4:	1b76      	subs	r6, r6, r5
    19f6:	609f      	str	r7, [r3, #8]
    19f8:	2f00      	cmp	r7, #0
    19fa:	d100      	bne.n	19fe <__sfvwrite_r+0x17e>
    19fc:	e771      	b.n	18e2 <__sfvwrite_r+0x62>
    19fe:	89a3      	ldrh	r3, [r4, #12]
    1a00:	2e00      	cmp	r6, #0
    1a02:	d1d5      	bne.n	19b0 <__sfvwrite_r+0x130>
    1a04:	4652      	mov	r2, sl
    1a06:	6811      	ldr	r1, [r2, #0]
    1a08:	2508      	movs	r5, #8
    1a0a:	468b      	mov	fp, r1
    1a0c:	6856      	ldr	r6, [r2, #4]
    1a0e:	44aa      	add	sl, r5
    1a10:	e7cc      	b.n	19ac <__sfvwrite_r+0x12c>
    1a12:	6820      	ldr	r0, [r4, #0]
    1a14:	6921      	ldr	r1, [r4, #16]
    1a16:	4288      	cmp	r0, r1
    1a18:	d903      	bls.n	1a22 <__sfvwrite_r+0x1a2>
    1a1a:	1c3d      	adds	r5, r7, #0
    1a1c:	42be      	cmp	r6, r7
    1a1e:	d900      	bls.n	1a22 <__sfvwrite_r+0x1a2>
    1a20:	e085      	b.n	1b2e <__sfvwrite_r+0x2ae>
    1a22:	6963      	ldr	r3, [r4, #20]
    1a24:	429e      	cmp	r6, r3
    1a26:	d327      	bcc.n	1a78 <__sfvwrite_r+0x1f8>
    1a28:	9803      	ldr	r0, [sp, #12]
    1a2a:	69e1      	ldr	r1, [r4, #28]
    1a2c:	465a      	mov	r2, fp
    1a2e:	6a65      	ldr	r5, [r4, #36]	; 0x24
    1a30:	47a8      	blx	r5
    1a32:	1e07      	subs	r7, r0, #0
    1a34:	ddaf      	ble.n	1996 <__sfvwrite_r+0x116>
    1a36:	1c3d      	adds	r5, r7, #0
    1a38:	e7d7      	b.n	19ea <__sfvwrite_r+0x16a>
    1a3a:	4659      	mov	r1, fp
    1a3c:	4642      	mov	r2, r8
    1a3e:	f000 fcc3 	bl	23c8 <memmove>
    1a42:	68a0      	ldr	r0, [r4, #8]
    1a44:	6822      	ldr	r2, [r4, #0]
    1a46:	4641      	mov	r1, r8
    1a48:	1a43      	subs	r3, r0, r1
    1a4a:	60a3      	str	r3, [r4, #8]
    1a4c:	1c13      	adds	r3, r2, #0
    1a4e:	4443      	add	r3, r8
    1a50:	4647      	mov	r7, r8
    1a52:	6023      	str	r3, [r4, #0]
    1a54:	1bed      	subs	r5, r5, r7
    1a56:	d000      	beq.n	1a5a <__sfvwrite_r+0x1da>
    1a58:	e780      	b.n	195c <__sfvwrite_r+0xdc>
    1a5a:	9803      	ldr	r0, [sp, #12]
    1a5c:	1c21      	adds	r1, r4, #0
    1a5e:	f7ff fc73 	bl	1348 <_fflush_r>
    1a62:	2800      	cmp	r0, #0
    1a64:	d197      	bne.n	1996 <__sfvwrite_r+0x116>
    1a66:	2300      	movs	r3, #0
    1a68:	9301      	str	r3, [sp, #4]
    1a6a:	e777      	b.n	195c <__sfvwrite_r+0xdc>
    1a6c:	9602      	str	r6, [sp, #8]
    1a6e:	6820      	ldr	r0, [r4, #0]
    1a70:	1c35      	adds	r5, r6, #0
    1a72:	1c37      	adds	r7, r6, #0
    1a74:	46b1      	mov	r9, r6
    1a76:	e7ac      	b.n	19d2 <__sfvwrite_r+0x152>
    1a78:	4659      	mov	r1, fp
    1a7a:	1c32      	adds	r2, r6, #0
    1a7c:	f000 fca4 	bl	23c8 <memmove>
    1a80:	68a0      	ldr	r0, [r4, #8]
    1a82:	6821      	ldr	r1, [r4, #0]
    1a84:	1b83      	subs	r3, r0, r6
    1a86:	60a3      	str	r3, [r4, #8]
    1a88:	198b      	adds	r3, r1, r6
    1a8a:	1c37      	adds	r7, r6, #0
    1a8c:	6023      	str	r3, [r4, #0]
    1a8e:	1c35      	adds	r5, r6, #0
    1a90:	e7ab      	b.n	19ea <__sfvwrite_r+0x16a>
    1a92:	4658      	mov	r0, fp
    1a94:	210a      	movs	r1, #10
    1a96:	1c32      	adds	r2, r6, #0
    1a98:	f000 fc08 	bl	22ac <memchr>
    1a9c:	2800      	cmp	r0, #0
    1a9e:	d063      	beq.n	1b68 <__sfvwrite_r+0x2e8>
    1aa0:	1c45      	adds	r5, r0, #1
    1aa2:	2701      	movs	r7, #1
    1aa4:	4658      	mov	r0, fp
    1aa6:	1a2d      	subs	r5, r5, r0
    1aa8:	9701      	str	r7, [sp, #4]
    1aaa:	e73d      	b.n	1928 <__sfvwrite_r+0xa8>
    1aac:	6822      	ldr	r2, [r4, #0]
    1aae:	6921      	ldr	r1, [r4, #16]
    1ab0:	1a57      	subs	r7, r2, r1
    1ab2:	6962      	ldr	r2, [r4, #20]
    1ab4:	1c78      	adds	r0, r7, #1
    1ab6:	0055      	lsls	r5, r2, #1
    1ab8:	18aa      	adds	r2, r5, r2
    1aba:	0fd5      	lsrs	r5, r2, #31
    1abc:	18aa      	adds	r2, r5, r2
    1abe:	1055      	asrs	r5, r2, #1
    1ac0:	1980      	adds	r0, r0, r6
    1ac2:	1c2a      	adds	r2, r5, #0
    1ac4:	4285      	cmp	r5, r0
    1ac6:	d201      	bcs.n	1acc <__sfvwrite_r+0x24c>
    1ac8:	1c05      	adds	r5, r0, #0
    1aca:	1c02      	adds	r2, r0, #0
    1acc:	2080      	movs	r0, #128	; 0x80
    1ace:	00c0      	lsls	r0, r0, #3
    1ad0:	4203      	tst	r3, r0
    1ad2:	d03b      	beq.n	1b4c <__sfvwrite_r+0x2cc>
    1ad4:	9803      	ldr	r0, [sp, #12]
    1ad6:	1c11      	adds	r1, r2, #0
    1ad8:	f000 f95c 	bl	1d94 <_malloc_r>
    1adc:	4681      	mov	r9, r0
    1ade:	2800      	cmp	r0, #0
    1ae0:	d100      	bne.n	1ae4 <__sfvwrite_r+0x264>
    1ae2:	e755      	b.n	1990 <__sfvwrite_r+0x110>
    1ae4:	1c3a      	adds	r2, r7, #0
    1ae6:	6921      	ldr	r1, [r4, #16]
    1ae8:	f000 fc28 	bl	233c <memcpy>
    1aec:	89a2      	ldrh	r2, [r4, #12]
    1aee:	4b22      	ldr	r3, [pc, #136]	; (1b78 <__sfvwrite_r+0x2f8>)
    1af0:	4013      	ands	r3, r2
    1af2:	2280      	movs	r2, #128	; 0x80
    1af4:	4313      	orrs	r3, r2
    1af6:	81a3      	strh	r3, [r4, #12]
    1af8:	4648      	mov	r0, r9
    1afa:	6120      	str	r0, [r4, #16]
    1afc:	6165      	str	r5, [r4, #20]
    1afe:	19c0      	adds	r0, r0, r7
    1b00:	1bed      	subs	r5, r5, r7
    1b02:	60a5      	str	r5, [r4, #8]
    1b04:	6020      	str	r0, [r4, #0]
    1b06:	9602      	str	r6, [sp, #8]
    1b08:	1c35      	adds	r5, r6, #0
    1b0a:	1c37      	adds	r7, r6, #0
    1b0c:	46b1      	mov	r9, r6
    1b0e:	e760      	b.n	19d2 <__sfvwrite_r+0x152>
    1b10:	4659      	mov	r1, fp
    1b12:	1c3a      	adds	r2, r7, #0
    1b14:	f000 fc58 	bl	23c8 <memmove>
    1b18:	6822      	ldr	r2, [r4, #0]
    1b1a:	9803      	ldr	r0, [sp, #12]
    1b1c:	19d3      	adds	r3, r2, r7
    1b1e:	6023      	str	r3, [r4, #0]
    1b20:	1c21      	adds	r1, r4, #0
    1b22:	f7ff fc11 	bl	1348 <_fflush_r>
    1b26:	2800      	cmp	r0, #0
    1b28:	d100      	bne.n	1b2c <__sfvwrite_r+0x2ac>
    1b2a:	e714      	b.n	1956 <__sfvwrite_r+0xd6>
    1b2c:	e733      	b.n	1996 <__sfvwrite_r+0x116>
    1b2e:	4659      	mov	r1, fp
    1b30:	1c3a      	adds	r2, r7, #0
    1b32:	f000 fc49 	bl	23c8 <memmove>
    1b36:	6822      	ldr	r2, [r4, #0]
    1b38:	9803      	ldr	r0, [sp, #12]
    1b3a:	19d3      	adds	r3, r2, r7
    1b3c:	6023      	str	r3, [r4, #0]
    1b3e:	1c21      	adds	r1, r4, #0
    1b40:	f7ff fc02 	bl	1348 <_fflush_r>
    1b44:	2800      	cmp	r0, #0
    1b46:	d100      	bne.n	1b4a <__sfvwrite_r+0x2ca>
    1b48:	e74f      	b.n	19ea <__sfvwrite_r+0x16a>
    1b4a:	e724      	b.n	1996 <__sfvwrite_r+0x116>
    1b4c:	9803      	ldr	r0, [sp, #12]
    1b4e:	f000 fc95 	bl	247c <_realloc_r>
    1b52:	4681      	mov	r9, r0
    1b54:	2800      	cmp	r0, #0
    1b56:	d1cf      	bne.n	1af8 <__sfvwrite_r+0x278>
    1b58:	9803      	ldr	r0, [sp, #12]
    1b5a:	6921      	ldr	r1, [r4, #16]
    1b5c:	f7ff fdc8 	bl	16f0 <_free_r>
    1b60:	9f03      	ldr	r7, [sp, #12]
    1b62:	230c      	movs	r3, #12
    1b64:	603b      	str	r3, [r7, #0]
    1b66:	e716      	b.n	1996 <__sfvwrite_r+0x116>
    1b68:	2701      	movs	r7, #1
    1b6a:	1c75      	adds	r5, r6, #1
    1b6c:	9701      	str	r7, [sp, #4]
    1b6e:	e6db      	b.n	1928 <__sfvwrite_r+0xa8>
    1b70:	2001      	movs	r0, #1
    1b72:	4240      	negs	r0, r0
    1b74:	e6b6      	b.n	18e4 <__sfvwrite_r+0x64>
    1b76:	46c0      	nop			; (mov r8, r8)
    1b78:	fffffb7f 	.word	0xfffffb7f

00001b7c <_fwalk>:
    1b7c:	b5f0      	push	{r4, r5, r6, r7, lr}
    1b7e:	22b8      	movs	r2, #184	; 0xb8
    1b80:	0092      	lsls	r2, r2, #2
    1b82:	4647      	mov	r7, r8
    1b84:	1886      	adds	r6, r0, r2
    1b86:	b480      	push	{r7}
    1b88:	4688      	mov	r8, r1
    1b8a:	2700      	movs	r7, #0
    1b8c:	2e00      	cmp	r6, #0
    1b8e:	d017      	beq.n	1bc0 <_fwalk+0x44>
    1b90:	6875      	ldr	r5, [r6, #4]
    1b92:	68b4      	ldr	r4, [r6, #8]
    1b94:	3d01      	subs	r5, #1
    1b96:	d410      	bmi.n	1bba <_fwalk+0x3e>
    1b98:	340c      	adds	r4, #12
    1b9a:	8823      	ldrh	r3, [r4, #0]
    1b9c:	1c20      	adds	r0, r4, #0
    1b9e:	380c      	subs	r0, #12
    1ba0:	2b00      	cmp	r3, #0
    1ba2:	d007      	beq.n	1bb4 <_fwalk+0x38>
    1ba4:	2b01      	cmp	r3, #1
    1ba6:	d905      	bls.n	1bb4 <_fwalk+0x38>
    1ba8:	2202      	movs	r2, #2
    1baa:	5ea3      	ldrsh	r3, [r4, r2]
    1bac:	3301      	adds	r3, #1
    1bae:	d001      	beq.n	1bb4 <_fwalk+0x38>
    1bb0:	47c0      	blx	r8
    1bb2:	4307      	orrs	r7, r0
    1bb4:	3468      	adds	r4, #104	; 0x68
    1bb6:	3d01      	subs	r5, #1
    1bb8:	d2ef      	bcs.n	1b9a <_fwalk+0x1e>
    1bba:	6836      	ldr	r6, [r6, #0]
    1bbc:	2e00      	cmp	r6, #0
    1bbe:	d1e7      	bne.n	1b90 <_fwalk+0x14>
    1bc0:	1c38      	adds	r0, r7, #0
    1bc2:	bc04      	pop	{r2}
    1bc4:	4690      	mov	r8, r2
    1bc6:	bdf0      	pop	{r4, r5, r6, r7, pc}

00001bc8 <_fwalk_reent>:
    1bc8:	b5f8      	push	{r3, r4, r5, r6, r7, lr}
    1bca:	22b8      	movs	r2, #184	; 0xb8
    1bcc:	464f      	mov	r7, r9
    1bce:	4646      	mov	r6, r8
    1bd0:	0092      	lsls	r2, r2, #2
    1bd2:	b4c0      	push	{r6, r7}
    1bd4:	4680      	mov	r8, r0
    1bd6:	1c16      	adds	r6, r2, #0
    1bd8:	4446      	add	r6, r8
    1bda:	4689      	mov	r9, r1
    1bdc:	2700      	movs	r7, #0
    1bde:	2e00      	cmp	r6, #0
    1be0:	d018      	beq.n	1c14 <_fwalk_reent+0x4c>
    1be2:	6875      	ldr	r5, [r6, #4]
    1be4:	68b4      	ldr	r4, [r6, #8]
    1be6:	3d01      	subs	r5, #1
    1be8:	d411      	bmi.n	1c0e <_fwalk_reent+0x46>
    1bea:	340c      	adds	r4, #12
    1bec:	8823      	ldrh	r3, [r4, #0]
    1bee:	1c21      	adds	r1, r4, #0
    1bf0:	390c      	subs	r1, #12
    1bf2:	2b00      	cmp	r3, #0
    1bf4:	d008      	beq.n	1c08 <_fwalk_reent+0x40>
    1bf6:	2b01      	cmp	r3, #1
    1bf8:	d906      	bls.n	1c08 <_fwalk_reent+0x40>
    1bfa:	2202      	movs	r2, #2
    1bfc:	5ea3      	ldrsh	r3, [r4, r2]
    1bfe:	3301      	adds	r3, #1
    1c00:	d002      	beq.n	1c08 <_fwalk_reent+0x40>
    1c02:	4640      	mov	r0, r8
    1c04:	47c8      	blx	r9
    1c06:	4307      	orrs	r7, r0
    1c08:	3468      	adds	r4, #104	; 0x68
    1c0a:	3d01      	subs	r5, #1
    1c0c:	d2ee      	bcs.n	1bec <_fwalk_reent+0x24>
    1c0e:	6836      	ldr	r6, [r6, #0]
    1c10:	2e00      	cmp	r6, #0
    1c12:	d1e6      	bne.n	1be2 <_fwalk_reent+0x1a>
    1c14:	1c38      	adds	r0, r7, #0
    1c16:	bc0c      	pop	{r2, r3}
    1c18:	4690      	mov	r8, r2
    1c1a:	4699      	mov	r9, r3
    1c1c:	bdf8      	pop	{r3, r4, r5, r6, r7, pc}
    1c1e:	46c0      	nop			; (mov r8, r8)

00001c20 <_setlocale_r>:
    1c20:	b538      	push	{r3, r4, r5, lr}
    1c22:	1e14      	subs	r4, r2, #0
    1c24:	d005      	beq.n	1c32 <_setlocale_r+0x12>
    1c26:	1c20      	adds	r0, r4, #0
    1c28:	490b      	ldr	r1, [pc, #44]	; (1c58 <_setlocale_r+0x38>)
    1c2a:	f000 fe67 	bl	28fc <strcmp>
    1c2e:	2800      	cmp	r0, #0
    1c30:	d102      	bne.n	1c38 <_setlocale_r+0x18>
    1c32:	4d0a      	ldr	r5, [pc, #40]	; (1c5c <_setlocale_r+0x3c>)
    1c34:	1c28      	adds	r0, r5, #0
    1c36:	bd38      	pop	{r3, r4, r5, pc}
    1c38:	4d08      	ldr	r5, [pc, #32]	; (1c5c <_setlocale_r+0x3c>)
    1c3a:	1c20      	adds	r0, r4, #0
    1c3c:	1c29      	adds	r1, r5, #0
    1c3e:	f000 fe5d 	bl	28fc <strcmp>
    1c42:	2800      	cmp	r0, #0
    1c44:	d0f6      	beq.n	1c34 <_setlocale_r+0x14>
    1c46:	1c20      	adds	r0, r4, #0
    1c48:	4905      	ldr	r1, [pc, #20]	; (1c60 <_setlocale_r+0x40>)
    1c4a:	f000 fe57 	bl	28fc <strcmp>
    1c4e:	4243      	negs	r3, r0
    1c50:	4158      	adcs	r0, r3
    1c52:	4240      	negs	r0, r0
    1c54:	4028      	ands	r0, r5
    1c56:	e7ee      	b.n	1c36 <_setlocale_r+0x16>
    1c58:	00002dc4 	.word	0x00002dc4
    1c5c:	00002c0c 	.word	0x00002c0c
    1c60:	00002da4 	.word	0x00002da4

00001c64 <__locale_charset>:
    1c64:	4800      	ldr	r0, [pc, #0]	; (1c68 <__locale_charset+0x4>)
    1c66:	4770      	bx	lr
    1c68:	100004f8 	.word	0x100004f8

00001c6c <__locale_mb_cur_max>:
    1c6c:	4b01      	ldr	r3, [pc, #4]	; (1c74 <__locale_mb_cur_max+0x8>)
    1c6e:	6a18      	ldr	r0, [r3, #32]
    1c70:	4770      	bx	lr
    1c72:	46c0      	nop			; (mov r8, r8)
    1c74:	100004f8 	.word	0x100004f8

00001c78 <__locale_msgcharset>:
    1c78:	4801      	ldr	r0, [pc, #4]	; (1c80 <__locale_msgcharset+0x8>)
    1c7a:	3024      	adds	r0, #36	; 0x24
    1c7c:	4770      	bx	lr
    1c7e:	46c0      	nop			; (mov r8, r8)
    1c80:	100004f8 	.word	0x100004f8

00001c84 <__locale_cjk_lang>:
    1c84:	2000      	movs	r0, #0
    1c86:	4770      	bx	lr

00001c88 <_localeconv_r>:
    1c88:	4801      	ldr	r0, [pc, #4]	; (1c90 <_localeconv_r+0x8>)
    1c8a:	3044      	adds	r0, #68	; 0x44
    1c8c:	4770      	bx	lr
    1c8e:	46c0      	nop			; (mov r8, r8)
    1c90:	100004f8 	.word	0x100004f8

00001c94 <setlocale>:
    1c94:	b508      	push	{r3, lr}
    1c96:	1c0a      	adds	r2, r1, #0
    1c98:	4903      	ldr	r1, [pc, #12]	; (1ca8 <setlocale+0x14>)
    1c9a:	1c03      	adds	r3, r0, #0
    1c9c:	6808      	ldr	r0, [r1, #0]
    1c9e:	1c19      	adds	r1, r3, #0
    1ca0:	f7ff ffbe 	bl	1c20 <_setlocale_r>
    1ca4:	bd08      	pop	{r3, pc}
    1ca6:	46c0      	nop			; (mov r8, r8)
    1ca8:	100000c8 	.word	0x100000c8

00001cac <localeconv>:
    1cac:	4801      	ldr	r0, [pc, #4]	; (1cb4 <localeconv+0x8>)
    1cae:	3044      	adds	r0, #68	; 0x44
    1cb0:	4770      	bx	lr
    1cb2:	46c0      	nop			; (mov r8, r8)
    1cb4:	100004f8 	.word	0x100004f8

00001cb8 <__smakebuf_r>:
    1cb8:	b5f0      	push	{r4, r5, r6, r7, lr}
    1cba:	898b      	ldrh	r3, [r1, #12]
    1cbc:	b091      	sub	sp, #68	; 0x44
    1cbe:	1c05      	adds	r5, r0, #0
    1cc0:	1c0c      	adds	r4, r1, #0
    1cc2:	079a      	lsls	r2, r3, #30
    1cc4:	d43e      	bmi.n	1d44 <__smakebuf_r+0x8c>
    1cc6:	220e      	movs	r2, #14
    1cc8:	5e89      	ldrsh	r1, [r1, r2]
    1cca:	2900      	cmp	r1, #0
    1ccc:	db19      	blt.n	1d02 <__smakebuf_r+0x4a>
    1cce:	aa01      	add	r2, sp, #4
    1cd0:	f7fe fc34 	bl	53c <_fstat_r>
    1cd4:	2800      	cmp	r0, #0
    1cd6:	db13      	blt.n	1d00 <__smakebuf_r+0x48>
    1cd8:	9a02      	ldr	r2, [sp, #8]
    1cda:	23f0      	movs	r3, #240	; 0xf0
    1cdc:	021b      	lsls	r3, r3, #8
    1cde:	4013      	ands	r3, r2
    1ce0:	4a29      	ldr	r2, [pc, #164]	; (1d88 <__smakebuf_r+0xd0>)
    1ce2:	189f      	adds	r7, r3, r2
    1ce4:	427a      	negs	r2, r7
    1ce6:	4157      	adcs	r7, r2
    1ce8:	2280      	movs	r2, #128	; 0x80
    1cea:	0212      	lsls	r2, r2, #8
    1cec:	4293      	cmp	r3, r2
    1cee:	d033      	beq.n	1d58 <__smakebuf_r+0xa0>
    1cf0:	89a2      	ldrh	r2, [r4, #12]
    1cf2:	2380      	movs	r3, #128	; 0x80
    1cf4:	011b      	lsls	r3, r3, #4
    1cf6:	4313      	orrs	r3, r2
    1cf8:	2680      	movs	r6, #128	; 0x80
    1cfa:	81a3      	strh	r3, [r4, #12]
    1cfc:	00f6      	lsls	r6, r6, #3
    1cfe:	e008      	b.n	1d12 <__smakebuf_r+0x5a>
    1d00:	89a3      	ldrh	r3, [r4, #12]
    1d02:	2640      	movs	r6, #64	; 0x40
    1d04:	061a      	lsls	r2, r3, #24
    1d06:	d524      	bpl.n	1d52 <__smakebuf_r+0x9a>
    1d08:	2280      	movs	r2, #128	; 0x80
    1d0a:	0112      	lsls	r2, r2, #4
    1d0c:	4313      	orrs	r3, r2
    1d0e:	81a3      	strh	r3, [r4, #12]
    1d10:	2700      	movs	r7, #0
    1d12:	1c28      	adds	r0, r5, #0
    1d14:	1c31      	adds	r1, r6, #0
    1d16:	f000 f83d 	bl	1d94 <_malloc_r>
    1d1a:	2800      	cmp	r0, #0
    1d1c:	d00c      	beq.n	1d38 <__smakebuf_r+0x80>
    1d1e:	4b1b      	ldr	r3, [pc, #108]	; (1d8c <__smakebuf_r+0xd4>)
    1d20:	63eb      	str	r3, [r5, #60]	; 0x3c
    1d22:	89a2      	ldrh	r2, [r4, #12]
    1d24:	2380      	movs	r3, #128	; 0x80
    1d26:	4313      	orrs	r3, r2
    1d28:	81a3      	strh	r3, [r4, #12]
    1d2a:	6020      	str	r0, [r4, #0]
    1d2c:	6120      	str	r0, [r4, #16]
    1d2e:	6166      	str	r6, [r4, #20]
    1d30:	2f00      	cmp	r7, #0
    1d32:	d11c      	bne.n	1d6e <__smakebuf_r+0xb6>
    1d34:	b011      	add	sp, #68	; 0x44
    1d36:	bdf0      	pop	{r4, r5, r6, r7, pc}
    1d38:	89a3      	ldrh	r3, [r4, #12]
    1d3a:	059a      	lsls	r2, r3, #22
    1d3c:	d4fa      	bmi.n	1d34 <__smakebuf_r+0x7c>
    1d3e:	2202      	movs	r2, #2
    1d40:	4313      	orrs	r3, r2
    1d42:	81a3      	strh	r3, [r4, #12]
    1d44:	1c23      	adds	r3, r4, #0
    1d46:	3343      	adds	r3, #67	; 0x43
    1d48:	6023      	str	r3, [r4, #0]
    1d4a:	6123      	str	r3, [r4, #16]
    1d4c:	2301      	movs	r3, #1
    1d4e:	6163      	str	r3, [r4, #20]
    1d50:	e7f0      	b.n	1d34 <__smakebuf_r+0x7c>
    1d52:	2680      	movs	r6, #128	; 0x80
    1d54:	00f6      	lsls	r6, r6, #3
    1d56:	e7d7      	b.n	1d08 <__smakebuf_r+0x50>
    1d58:	4b0d      	ldr	r3, [pc, #52]	; (1d90 <__smakebuf_r+0xd8>)
    1d5a:	6aa2      	ldr	r2, [r4, #40]	; 0x28
    1d5c:	429a      	cmp	r2, r3
    1d5e:	d1c7      	bne.n	1cf0 <__smakebuf_r+0x38>
    1d60:	89a3      	ldrh	r3, [r4, #12]
    1d62:	2680      	movs	r6, #128	; 0x80
    1d64:	00f6      	lsls	r6, r6, #3
    1d66:	4333      	orrs	r3, r6
    1d68:	81a3      	strh	r3, [r4, #12]
    1d6a:	64e6      	str	r6, [r4, #76]	; 0x4c
    1d6c:	e7d1      	b.n	1d12 <__smakebuf_r+0x5a>
    1d6e:	230e      	movs	r3, #14
    1d70:	5ee1      	ldrsh	r1, [r4, r3]
    1d72:	1c28      	adds	r0, r5, #0
    1d74:	f7fe fbee 	bl	554 <_isatty_r>
    1d78:	2800      	cmp	r0, #0
    1d7a:	d0db      	beq.n	1d34 <__smakebuf_r+0x7c>
    1d7c:	89a2      	ldrh	r2, [r4, #12]
    1d7e:	2301      	movs	r3, #1
    1d80:	4313      	orrs	r3, r2
    1d82:	81a3      	strh	r3, [r4, #12]
    1d84:	e7d6      	b.n	1d34 <__smakebuf_r+0x7c>
    1d86:	46c0      	nop			; (mov r8, r8)
    1d88:	ffffe000 	.word	0xffffe000
    1d8c:	000013a5 	.word	0x000013a5
    1d90:	000028c5 	.word	0x000028c5

00001d94 <_malloc_r>:
    1d94:	b5f0      	push	{r4, r5, r6, r7, lr}
    1d96:	4656      	mov	r6, sl
    1d98:	4644      	mov	r4, r8
    1d9a:	465f      	mov	r7, fp
    1d9c:	464d      	mov	r5, r9
    1d9e:	b4f0      	push	{r4, r5, r6, r7}
    1da0:	1c0c      	adds	r4, r1, #0
    1da2:	340b      	adds	r4, #11
    1da4:	b083      	sub	sp, #12
    1da6:	1c06      	adds	r6, r0, #0
    1da8:	2c16      	cmp	r4, #22
    1daa:	d92c      	bls.n	1e06 <_malloc_r+0x72>
    1dac:	2307      	movs	r3, #7
    1dae:	439c      	bics	r4, r3
    1db0:	0fe3      	lsrs	r3, r4, #31
    1db2:	428c      	cmp	r4, r1
    1db4:	d32b      	bcc.n	1e0e <_malloc_r+0x7a>
    1db6:	2b00      	cmp	r3, #0
    1db8:	d129      	bne.n	1e0e <_malloc_r+0x7a>
    1dba:	1c30      	adds	r0, r6, #0
    1dbc:	f000 fb5a 	bl	2474 <__malloc_lock>
    1dc0:	4bbf      	ldr	r3, [pc, #764]	; (20c0 <_malloc_r+0x32c>)
    1dc2:	429c      	cmp	r4, r3
    1dc4:	d827      	bhi.n	1e16 <_malloc_r+0x82>
    1dc6:	08e2      	lsrs	r2, r4, #3
    1dc8:	4dbe      	ldr	r5, [pc, #760]	; (20c4 <_malloc_r+0x330>)
    1dca:	00d3      	lsls	r3, r2, #3
    1dcc:	18eb      	adds	r3, r5, r3
    1dce:	68df      	ldr	r7, [r3, #12]
    1dd0:	429f      	cmp	r7, r3
    1dd2:	d100      	bne.n	1dd6 <_malloc_r+0x42>
    1dd4:	e1d6      	b.n	2184 <_malloc_r+0x3f0>
    1dd6:	6879      	ldr	r1, [r7, #4]
    1dd8:	2303      	movs	r3, #3
    1dda:	68fa      	ldr	r2, [r7, #12]
    1ddc:	4399      	bics	r1, r3
    1dde:	68bb      	ldr	r3, [r7, #8]
    1de0:	60da      	str	r2, [r3, #12]
    1de2:	6093      	str	r3, [r2, #8]
    1de4:	187b      	adds	r3, r7, r1
    1de6:	6858      	ldr	r0, [r3, #4]
    1de8:	2201      	movs	r2, #1
    1dea:	4302      	orrs	r2, r0
    1dec:	605a      	str	r2, [r3, #4]
    1dee:	1c30      	adds	r0, r6, #0
    1df0:	f000 fb42 	bl	2478 <__malloc_unlock>
    1df4:	1c38      	adds	r0, r7, #0
    1df6:	3008      	adds	r0, #8
    1df8:	b003      	add	sp, #12
    1dfa:	bc3c      	pop	{r2, r3, r4, r5}
    1dfc:	4690      	mov	r8, r2
    1dfe:	4699      	mov	r9, r3
    1e00:	46a2      	mov	sl, r4
    1e02:	46ab      	mov	fp, r5
    1e04:	bdf0      	pop	{r4, r5, r6, r7, pc}
    1e06:	2410      	movs	r4, #16
    1e08:	2300      	movs	r3, #0
    1e0a:	428c      	cmp	r4, r1
    1e0c:	d2d3      	bcs.n	1db6 <_malloc_r+0x22>
    1e0e:	230c      	movs	r3, #12
    1e10:	6033      	str	r3, [r6, #0]
    1e12:	2000      	movs	r0, #0
    1e14:	e7f0      	b.n	1df8 <_malloc_r+0x64>
    1e16:	0a63      	lsrs	r3, r4, #9
    1e18:	d100      	bne.n	1e1c <_malloc_r+0x88>
    1e1a:	e08b      	b.n	1f34 <_malloc_r+0x1a0>
    1e1c:	2b04      	cmp	r3, #4
    1e1e:	d900      	bls.n	1e22 <_malloc_r+0x8e>
    1e20:	e142      	b.n	20a8 <_malloc_r+0x314>
    1e22:	09a3      	lsrs	r3, r4, #6
    1e24:	3338      	adds	r3, #56	; 0x38
    1e26:	4698      	mov	r8, r3
    1e28:	0059      	lsls	r1, r3, #1
    1e2a:	4da6      	ldr	r5, [pc, #664]	; (20c4 <_malloc_r+0x330>)
    1e2c:	0089      	lsls	r1, r1, #2
    1e2e:	1869      	adds	r1, r5, r1
    1e30:	68cf      	ldr	r7, [r1, #12]
    1e32:	42b9      	cmp	r1, r7
    1e34:	d013      	beq.n	1e5e <_malloc_r+0xca>
    1e36:	687a      	ldr	r2, [r7, #4]
    1e38:	2303      	movs	r3, #3
    1e3a:	439a      	bics	r2, r3
    1e3c:	1b13      	subs	r3, r2, r4
    1e3e:	2b0f      	cmp	r3, #15
    1e40:	dc7c      	bgt.n	1f3c <_malloc_r+0x1a8>
    1e42:	2003      	movs	r0, #3
    1e44:	2b00      	cmp	r3, #0
    1e46:	db07      	blt.n	1e58 <_malloc_r+0xc4>
    1e48:	e07c      	b.n	1f44 <_malloc_r+0x1b0>
    1e4a:	687a      	ldr	r2, [r7, #4]
    1e4c:	4382      	bics	r2, r0
    1e4e:	1b13      	subs	r3, r2, r4
    1e50:	2b0f      	cmp	r3, #15
    1e52:	dc73      	bgt.n	1f3c <_malloc_r+0x1a8>
    1e54:	2b00      	cmp	r3, #0
    1e56:	da75      	bge.n	1f44 <_malloc_r+0x1b0>
    1e58:	68ff      	ldr	r7, [r7, #12]
    1e5a:	42b9      	cmp	r1, r7
    1e5c:	d1f5      	bne.n	1e4a <_malloc_r+0xb6>
    1e5e:	2101      	movs	r1, #1
    1e60:	4488      	add	r8, r1
    1e62:	1c2b      	adds	r3, r5, #0
    1e64:	692f      	ldr	r7, [r5, #16]
    1e66:	3308      	adds	r3, #8
    1e68:	429f      	cmp	r7, r3
    1e6a:	d100      	bne.n	1e6e <_malloc_r+0xda>
    1e6c:	e167      	b.n	213e <_malloc_r+0x3aa>
    1e6e:	6878      	ldr	r0, [r7, #4]
    1e70:	2203      	movs	r2, #3
    1e72:	4390      	bics	r0, r2
    1e74:	1c02      	adds	r2, r0, #0
    1e76:	1b01      	subs	r1, r0, r4
    1e78:	290f      	cmp	r1, #15
    1e7a:	dd00      	ble.n	1e7e <_malloc_r+0xea>
    1e7c:	e14e      	b.n	211c <_malloc_r+0x388>
    1e7e:	616b      	str	r3, [r5, #20]
    1e80:	612b      	str	r3, [r5, #16]
    1e82:	2900      	cmp	r1, #0
    1e84:	da6d      	bge.n	1f62 <_malloc_r+0x1ce>
    1e86:	4b90      	ldr	r3, [pc, #576]	; (20c8 <_malloc_r+0x334>)
    1e88:	4298      	cmp	r0, r3
    1e8a:	d900      	bls.n	1e8e <_malloc_r+0xfa>
    1e8c:	e126      	b.n	20dc <_malloc_r+0x348>
    1e8e:	08c2      	lsrs	r2, r0, #3
    1e90:	1093      	asrs	r3, r2, #2
    1e92:	2001      	movs	r0, #1
    1e94:	4098      	lsls	r0, r3
    1e96:	686b      	ldr	r3, [r5, #4]
    1e98:	00d2      	lsls	r2, r2, #3
    1e9a:	4318      	orrs	r0, r3
    1e9c:	18ab      	adds	r3, r5, r2
    1e9e:	689a      	ldr	r2, [r3, #8]
    1ea0:	60fb      	str	r3, [r7, #12]
    1ea2:	60ba      	str	r2, [r7, #8]
    1ea4:	6068      	str	r0, [r5, #4]
    1ea6:	609f      	str	r7, [r3, #8]
    1ea8:	60d7      	str	r7, [r2, #12]
    1eaa:	4641      	mov	r1, r8
    1eac:	108b      	asrs	r3, r1, #2
    1eae:	2101      	movs	r1, #1
    1eb0:	4099      	lsls	r1, r3
    1eb2:	4281      	cmp	r1, r0
    1eb4:	d85a      	bhi.n	1f6c <_malloc_r+0x1d8>
    1eb6:	4201      	tst	r1, r0
    1eb8:	d10d      	bne.n	1ed6 <_malloc_r+0x142>
    1eba:	2303      	movs	r3, #3
    1ebc:	4642      	mov	r2, r8
    1ebe:	439a      	bics	r2, r3
    1ec0:	1c13      	adds	r3, r2, #0
    1ec2:	3304      	adds	r3, #4
    1ec4:	0049      	lsls	r1, r1, #1
    1ec6:	4698      	mov	r8, r3
    1ec8:	4201      	tst	r1, r0
    1eca:	d104      	bne.n	1ed6 <_malloc_r+0x142>
    1ecc:	2304      	movs	r3, #4
    1ece:	0049      	lsls	r1, r1, #1
    1ed0:	4498      	add	r8, r3
    1ed2:	4201      	tst	r1, r0
    1ed4:	d0fa      	beq.n	1ecc <_malloc_r+0x138>
    1ed6:	2003      	movs	r0, #3
    1ed8:	4684      	mov	ip, r0
    1eda:	4642      	mov	r2, r8
    1edc:	00d3      	lsls	r3, r2, #3
    1ede:	195b      	adds	r3, r3, r5
    1ee0:	469a      	mov	sl, r3
    1ee2:	1c18      	adds	r0, r3, #0
    1ee4:	46c1      	mov	r9, r8
    1ee6:	68c7      	ldr	r7, [r0, #12]
    1ee8:	42b8      	cmp	r0, r7
    1eea:	d107      	bne.n	1efc <_malloc_r+0x168>
    1eec:	e129      	b.n	2142 <_malloc_r+0x3ae>
    1eee:	2b00      	cmp	r3, #0
    1ef0:	db00      	blt.n	1ef4 <_malloc_r+0x160>
    1ef2:	e150      	b.n	2196 <_malloc_r+0x402>
    1ef4:	68ff      	ldr	r7, [r7, #12]
    1ef6:	42b8      	cmp	r0, r7
    1ef8:	d100      	bne.n	1efc <_malloc_r+0x168>
    1efa:	e122      	b.n	2142 <_malloc_r+0x3ae>
    1efc:	687a      	ldr	r2, [r7, #4]
    1efe:	4663      	mov	r3, ip
    1f00:	439a      	bics	r2, r3
    1f02:	1b13      	subs	r3, r2, r4
    1f04:	2b0f      	cmp	r3, #15
    1f06:	ddf2      	ble.n	1eee <_malloc_r+0x15a>
    1f08:	2001      	movs	r0, #1
    1f0a:	193a      	adds	r2, r7, r4
    1f0c:	4304      	orrs	r4, r0
    1f0e:	68b9      	ldr	r1, [r7, #8]
    1f10:	607c      	str	r4, [r7, #4]
    1f12:	68fc      	ldr	r4, [r7, #12]
    1f14:	4318      	orrs	r0, r3
    1f16:	60cc      	str	r4, [r1, #12]
    1f18:	60a1      	str	r1, [r4, #8]
    1f1a:	616a      	str	r2, [r5, #20]
    1f1c:	612a      	str	r2, [r5, #16]
    1f1e:	3508      	adds	r5, #8
    1f20:	6050      	str	r0, [r2, #4]
    1f22:	60d5      	str	r5, [r2, #12]
    1f24:	1c30      	adds	r0, r6, #0
    1f26:	6095      	str	r5, [r2, #8]
    1f28:	50d3      	str	r3, [r2, r3]
    1f2a:	f000 faa5 	bl	2478 <__malloc_unlock>
    1f2e:	1c38      	adds	r0, r7, #0
    1f30:	3008      	adds	r0, #8
    1f32:	e761      	b.n	1df8 <_malloc_r+0x64>
    1f34:	08e1      	lsrs	r1, r4, #3
    1f36:	4688      	mov	r8, r1
    1f38:	0049      	lsls	r1, r1, #1
    1f3a:	e776      	b.n	1e2a <_malloc_r+0x96>
    1f3c:	2301      	movs	r3, #1
    1f3e:	425b      	negs	r3, r3
    1f40:	4498      	add	r8, r3
    1f42:	e78c      	b.n	1e5e <_malloc_r+0xca>
    1f44:	68bb      	ldr	r3, [r7, #8]
    1f46:	68f9      	ldr	r1, [r7, #12]
    1f48:	18ba      	adds	r2, r7, r2
    1f4a:	6850      	ldr	r0, [r2, #4]
    1f4c:	60d9      	str	r1, [r3, #12]
    1f4e:	608b      	str	r3, [r1, #8]
    1f50:	2301      	movs	r3, #1
    1f52:	4303      	orrs	r3, r0
    1f54:	1c30      	adds	r0, r6, #0
    1f56:	6053      	str	r3, [r2, #4]
    1f58:	f000 fa8e 	bl	2478 <__malloc_unlock>
    1f5c:	1c38      	adds	r0, r7, #0
    1f5e:	3008      	adds	r0, #8
    1f60:	e74a      	b.n	1df8 <_malloc_r+0x64>
    1f62:	183a      	adds	r2, r7, r0
    1f64:	6851      	ldr	r1, [r2, #4]
    1f66:	2301      	movs	r3, #1
    1f68:	430b      	orrs	r3, r1
    1f6a:	e7f3      	b.n	1f54 <_malloc_r+0x1c0>
    1f6c:	68af      	ldr	r7, [r5, #8]
    1f6e:	2303      	movs	r3, #3
    1f70:	6878      	ldr	r0, [r7, #4]
    1f72:	4398      	bics	r0, r3
    1f74:	4681      	mov	r9, r0
    1f76:	4284      	cmp	r4, r0
    1f78:	d803      	bhi.n	1f82 <_malloc_r+0x1ee>
    1f7a:	1b03      	subs	r3, r0, r4
    1f7c:	2b0f      	cmp	r3, #15
    1f7e:	dd00      	ble.n	1f82 <_malloc_r+0x1ee>
    1f80:	e084      	b.n	208c <_malloc_r+0x2f8>
    1f82:	4649      	mov	r1, r9
    1f84:	1879      	adds	r1, r7, r1
    1f86:	4a51      	ldr	r2, [pc, #324]	; (20cc <_malloc_r+0x338>)
    1f88:	9101      	str	r1, [sp, #4]
    1f8a:	4951      	ldr	r1, [pc, #324]	; (20d0 <_malloc_r+0x33c>)
    1f8c:	6810      	ldr	r0, [r2, #0]
    1f8e:	4692      	mov	sl, r2
    1f90:	688a      	ldr	r2, [r1, #8]
    1f92:	1823      	adds	r3, r4, r0
    1f94:	468b      	mov	fp, r1
    1f96:	3201      	adds	r2, #1
    1f98:	d100      	bne.n	1f9c <_malloc_r+0x208>
    1f9a:	e13f      	b.n	221c <_malloc_r+0x488>
    1f9c:	484d      	ldr	r0, [pc, #308]	; (20d4 <_malloc_r+0x340>)
    1f9e:	181b      	adds	r3, r3, r0
    1fa0:	0b1b      	lsrs	r3, r3, #12
    1fa2:	031b      	lsls	r3, r3, #12
    1fa4:	9300      	str	r3, [sp, #0]
    1fa6:	9900      	ldr	r1, [sp, #0]
    1fa8:	1c30      	adds	r0, r6, #0
    1faa:	f7fe faad 	bl	508 <_sbrk_r>
    1fae:	1c01      	adds	r1, r0, #0
    1fb0:	4680      	mov	r8, r0
    1fb2:	3101      	adds	r1, #1
    1fb4:	d05f      	beq.n	2076 <_malloc_r+0x2e2>
    1fb6:	9a01      	ldr	r2, [sp, #4]
    1fb8:	4282      	cmp	r2, r0
    1fba:	d900      	bls.n	1fbe <_malloc_r+0x22a>
    1fbc:	e103      	b.n	21c6 <_malloc_r+0x432>
    1fbe:	4651      	mov	r1, sl
    1fc0:	9800      	ldr	r0, [sp, #0]
    1fc2:	6849      	ldr	r1, [r1, #4]
    1fc4:	4652      	mov	r2, sl
    1fc6:	1843      	adds	r3, r0, r1
    1fc8:	9801      	ldr	r0, [sp, #4]
    1fca:	6053      	str	r3, [r2, #4]
    1fcc:	4540      	cmp	r0, r8
    1fce:	d100      	bne.n	1fd2 <_malloc_r+0x23e>
    1fd0:	e132      	b.n	2238 <_malloc_r+0x4a4>
    1fd2:	465a      	mov	r2, fp
    1fd4:	6892      	ldr	r2, [r2, #8]
    1fd6:	3201      	adds	r2, #1
    1fd8:	d100      	bne.n	1fdc <_malloc_r+0x248>
    1fda:	e144      	b.n	2266 <_malloc_r+0x4d2>
    1fdc:	9801      	ldr	r0, [sp, #4]
    1fde:	4641      	mov	r1, r8
    1fe0:	1a0a      	subs	r2, r1, r0
    1fe2:	189b      	adds	r3, r3, r2
    1fe4:	4651      	mov	r1, sl
    1fe6:	604b      	str	r3, [r1, #4]
    1fe8:	2307      	movs	r3, #7
    1fea:	4642      	mov	r2, r8
    1fec:	4013      	ands	r3, r2
    1fee:	d100      	bne.n	1ff2 <_malloc_r+0x25e>
    1ff0:	e0fb      	b.n	21ea <_malloc_r+0x456>
    1ff2:	1ad2      	subs	r2, r2, r3
    1ff4:	3208      	adds	r2, #8
    1ff6:	4690      	mov	r8, r2
    1ff8:	4a37      	ldr	r2, [pc, #220]	; (20d8 <_malloc_r+0x344>)
    1ffa:	1ad3      	subs	r3, r2, r3
    1ffc:	9800      	ldr	r0, [sp, #0]
    1ffe:	1c02      	adds	r2, r0, #0
    2000:	4442      	add	r2, r8
    2002:	0512      	lsls	r2, r2, #20
    2004:	0d12      	lsrs	r2, r2, #20
    2006:	1a9a      	subs	r2, r3, r2
    2008:	1c11      	adds	r1, r2, #0
    200a:	1c30      	adds	r0, r6, #0
    200c:	4693      	mov	fp, r2
    200e:	f7fe fa7b 	bl	508 <_sbrk_r>
    2012:	1c41      	adds	r1, r0, #1
    2014:	d100      	bne.n	2018 <_malloc_r+0x284>
    2016:	e11a      	b.n	224e <_malloc_r+0x4ba>
    2018:	4642      	mov	r2, r8
    201a:	1a80      	subs	r0, r0, r2
    201c:	4458      	add	r0, fp
    201e:	2301      	movs	r3, #1
    2020:	4318      	orrs	r0, r3
    2022:	4652      	mov	r2, sl
    2024:	6851      	ldr	r1, [r2, #4]
    2026:	1c0b      	adds	r3, r1, #0
    2028:	445b      	add	r3, fp
    202a:	4641      	mov	r1, r8
    202c:	6053      	str	r3, [r2, #4]
    202e:	60a9      	str	r1, [r5, #8]
    2030:	6048      	str	r0, [r1, #4]
    2032:	42af      	cmp	r7, r5
    2034:	d013      	beq.n	205e <_malloc_r+0x2ca>
    2036:	464a      	mov	r2, r9
    2038:	2a0f      	cmp	r2, #15
    203a:	d800      	bhi.n	203e <_malloc_r+0x2aa>
    203c:	e0e1      	b.n	2202 <_malloc_r+0x46e>
    203e:	464a      	mov	r2, r9
    2040:	6878      	ldr	r0, [r7, #4]
    2042:	2107      	movs	r1, #7
    2044:	3a0c      	subs	r2, #12
    2046:	438a      	bics	r2, r1
    2048:	2101      	movs	r1, #1
    204a:	4001      	ands	r1, r0
    204c:	4311      	orrs	r1, r2
    204e:	6079      	str	r1, [r7, #4]
    2050:	2005      	movs	r0, #5
    2052:	18b9      	adds	r1, r7, r2
    2054:	6048      	str	r0, [r1, #4]
    2056:	6088      	str	r0, [r1, #8]
    2058:	2a0f      	cmp	r2, #15
    205a:	d900      	bls.n	205e <_malloc_r+0x2ca>
    205c:	e0fb      	b.n	2256 <_malloc_r+0x4c2>
    205e:	4652      	mov	r2, sl
    2060:	6ad2      	ldr	r2, [r2, #44]	; 0x2c
    2062:	4293      	cmp	r3, r2
    2064:	d901      	bls.n	206a <_malloc_r+0x2d6>
    2066:	4650      	mov	r0, sl
    2068:	62c3      	str	r3, [r0, #44]	; 0x2c
    206a:	4651      	mov	r1, sl
    206c:	6b09      	ldr	r1, [r1, #48]	; 0x30
    206e:	428b      	cmp	r3, r1
    2070:	d901      	bls.n	2076 <_malloc_r+0x2e2>
    2072:	4652      	mov	r2, sl
    2074:	6313      	str	r3, [r2, #48]	; 0x30
    2076:	68af      	ldr	r7, [r5, #8]
    2078:	2303      	movs	r3, #3
    207a:	687a      	ldr	r2, [r7, #4]
    207c:	439a      	bics	r2, r3
    207e:	1b13      	subs	r3, r2, r4
    2080:	4294      	cmp	r4, r2
    2082:	d900      	bls.n	2086 <_malloc_r+0x2f2>
    2084:	e0a3      	b.n	21ce <_malloc_r+0x43a>
    2086:	2b0f      	cmp	r3, #15
    2088:	dc00      	bgt.n	208c <_malloc_r+0x2f8>
    208a:	e0a0      	b.n	21ce <_malloc_r+0x43a>
    208c:	2201      	movs	r2, #1
    208e:	1c21      	adds	r1, r4, #0
    2090:	4311      	orrs	r1, r2
    2092:	193c      	adds	r4, r7, r4
    2094:	4313      	orrs	r3, r2
    2096:	6079      	str	r1, [r7, #4]
    2098:	1c30      	adds	r0, r6, #0
    209a:	60ac      	str	r4, [r5, #8]
    209c:	6063      	str	r3, [r4, #4]
    209e:	f000 f9eb 	bl	2478 <__malloc_unlock>
    20a2:	1c38      	adds	r0, r7, #0
    20a4:	3008      	adds	r0, #8
    20a6:	e6a7      	b.n	1df8 <_malloc_r+0x64>
    20a8:	2b14      	cmp	r3, #20
    20aa:	d800      	bhi.n	20ae <_malloc_r+0x31a>
    20ac:	e082      	b.n	21b4 <_malloc_r+0x420>
    20ae:	2b54      	cmp	r3, #84	; 0x54
    20b0:	d900      	bls.n	20b4 <_malloc_r+0x320>
    20b2:	e091      	b.n	21d8 <_malloc_r+0x444>
    20b4:	0b23      	lsrs	r3, r4, #12
    20b6:	336e      	adds	r3, #110	; 0x6e
    20b8:	4698      	mov	r8, r3
    20ba:	0059      	lsls	r1, r3, #1
    20bc:	e6b5      	b.n	1e2a <_malloc_r+0x96>
    20be:	46c0      	nop			; (mov r8, r8)
    20c0:	000001f7 	.word	0x000001f7
    20c4:	10000574 	.word	0x10000574
    20c8:	000001ff 	.word	0x000001ff
    20cc:	100009a0 	.word	0x100009a0
    20d0:	10000974 	.word	0x10000974
    20d4:	0000100f 	.word	0x0000100f
    20d8:	00001008 	.word	0x00001008
    20dc:	0a43      	lsrs	r3, r0, #9
    20de:	2b04      	cmp	r3, #4
    20e0:	d96c      	bls.n	21bc <_malloc_r+0x428>
    20e2:	2b14      	cmp	r3, #20
    20e4:	d900      	bls.n	20e8 <_malloc_r+0x354>
    20e6:	e09c      	b.n	2222 <_malloc_r+0x48e>
    20e8:	335b      	adds	r3, #91	; 0x5b
    20ea:	469a      	mov	sl, r3
    20ec:	0058      	lsls	r0, r3, #1
    20ee:	0080      	lsls	r0, r0, #2
    20f0:	1940      	adds	r0, r0, r5
    20f2:	6883      	ldr	r3, [r0, #8]
    20f4:	4681      	mov	r9, r0
    20f6:	2003      	movs	r0, #3
    20f8:	4684      	mov	ip, r0
    20fa:	454b      	cmp	r3, r9
    20fc:	d078      	beq.n	21f0 <_malloc_r+0x45c>
    20fe:	6859      	ldr	r1, [r3, #4]
    2100:	4660      	mov	r0, ip
    2102:	4381      	bics	r1, r0
    2104:	428a      	cmp	r2, r1
    2106:	d202      	bcs.n	210e <_malloc_r+0x37a>
    2108:	689b      	ldr	r3, [r3, #8]
    210a:	4599      	cmp	r9, r3
    210c:	d1f7      	bne.n	20fe <_malloc_r+0x36a>
    210e:	68da      	ldr	r2, [r3, #12]
    2110:	6868      	ldr	r0, [r5, #4]
    2112:	60fa      	str	r2, [r7, #12]
    2114:	60bb      	str	r3, [r7, #8]
    2116:	60df      	str	r7, [r3, #12]
    2118:	6097      	str	r7, [r2, #8]
    211a:	e6c6      	b.n	1eaa <_malloc_r+0x116>
    211c:	2001      	movs	r0, #1
    211e:	193a      	adds	r2, r7, r4
    2120:	4304      	orrs	r4, r0
    2122:	4308      	orrs	r0, r1
    2124:	607c      	str	r4, [r7, #4]
    2126:	616a      	str	r2, [r5, #20]
    2128:	612a      	str	r2, [r5, #16]
    212a:	6050      	str	r0, [r2, #4]
    212c:	60d3      	str	r3, [r2, #12]
    212e:	1c30      	adds	r0, r6, #0
    2130:	6093      	str	r3, [r2, #8]
    2132:	5051      	str	r1, [r2, r1]
    2134:	f000 f9a0 	bl	2478 <__malloc_unlock>
    2138:	1c38      	adds	r0, r7, #0
    213a:	3008      	adds	r0, #8
    213c:	e65c      	b.n	1df8 <_malloc_r+0x64>
    213e:	6868      	ldr	r0, [r5, #4]
    2140:	e6b3      	b.n	1eaa <_malloc_r+0x116>
    2142:	2201      	movs	r2, #1
    2144:	4491      	add	r9, r2
    2146:	4663      	mov	r3, ip
    2148:	464a      	mov	r2, r9
    214a:	3008      	adds	r0, #8
    214c:	4213      	tst	r3, r2
    214e:	d000      	beq.n	2152 <_malloc_r+0x3be>
    2150:	e6c9      	b.n	1ee6 <_malloc_r+0x152>
    2152:	4652      	mov	r2, sl
    2154:	4643      	mov	r3, r8
    2156:	4660      	mov	r0, ip
    2158:	4218      	tst	r0, r3
    215a:	d100      	bne.n	215e <_malloc_r+0x3ca>
    215c:	e098      	b.n	2290 <_malloc_r+0x4fc>
    215e:	1c10      	adds	r0, r2, #0
    2160:	6812      	ldr	r2, [r2, #0]
    2162:	3808      	subs	r0, #8
    2164:	3b01      	subs	r3, #1
    2166:	4282      	cmp	r2, r0
    2168:	d0f5      	beq.n	2156 <_malloc_r+0x3c2>
    216a:	686b      	ldr	r3, [r5, #4]
    216c:	0049      	lsls	r1, r1, #1
    216e:	4299      	cmp	r1, r3
    2170:	d900      	bls.n	2174 <_malloc_r+0x3e0>
    2172:	e6fb      	b.n	1f6c <_malloc_r+0x1d8>
    2174:	2900      	cmp	r1, #0
    2176:	d100      	bne.n	217a <_malloc_r+0x3e6>
    2178:	e6f8      	b.n	1f6c <_malloc_r+0x1d8>
    217a:	4219      	tst	r1, r3
    217c:	d100      	bne.n	2180 <_malloc_r+0x3ec>
    217e:	e08b      	b.n	2298 <_malloc_r+0x504>
    2180:	46c8      	mov	r8, r9
    2182:	e6aa      	b.n	1eda <_malloc_r+0x146>
    2184:	1c3b      	adds	r3, r7, #0
    2186:	697f      	ldr	r7, [r7, #20]
    2188:	3202      	adds	r2, #2
    218a:	3308      	adds	r3, #8
    218c:	4690      	mov	r8, r2
    218e:	42bb      	cmp	r3, r7
    2190:	d100      	bne.n	2194 <_malloc_r+0x400>
    2192:	e666      	b.n	1e62 <_malloc_r+0xce>
    2194:	e61f      	b.n	1dd6 <_malloc_r+0x42>
    2196:	18ba      	adds	r2, r7, r2
    2198:	6850      	ldr	r0, [r2, #4]
    219a:	2301      	movs	r3, #1
    219c:	4303      	orrs	r3, r0
    219e:	6053      	str	r3, [r2, #4]
    21a0:	68fa      	ldr	r2, [r7, #12]
    21a2:	68bb      	ldr	r3, [r7, #8]
    21a4:	1c30      	adds	r0, r6, #0
    21a6:	60da      	str	r2, [r3, #12]
    21a8:	6093      	str	r3, [r2, #8]
    21aa:	f000 f965 	bl	2478 <__malloc_unlock>
    21ae:	1c38      	adds	r0, r7, #0
    21b0:	3008      	adds	r0, #8
    21b2:	e621      	b.n	1df8 <_malloc_r+0x64>
    21b4:	335b      	adds	r3, #91	; 0x5b
    21b6:	4698      	mov	r8, r3
    21b8:	0059      	lsls	r1, r3, #1
    21ba:	e636      	b.n	1e2a <_malloc_r+0x96>
    21bc:	0981      	lsrs	r1, r0, #6
    21be:	3138      	adds	r1, #56	; 0x38
    21c0:	468a      	mov	sl, r1
    21c2:	0048      	lsls	r0, r1, #1
    21c4:	e793      	b.n	20ee <_malloc_r+0x35a>
    21c6:	42af      	cmp	r7, r5
    21c8:	d000      	beq.n	21cc <_malloc_r+0x438>
    21ca:	e754      	b.n	2076 <_malloc_r+0x2e2>
    21cc:	e6f7      	b.n	1fbe <_malloc_r+0x22a>
    21ce:	1c30      	adds	r0, r6, #0
    21d0:	f000 f952 	bl	2478 <__malloc_unlock>
    21d4:	2000      	movs	r0, #0
    21d6:	e60f      	b.n	1df8 <_malloc_r+0x64>
    21d8:	22aa      	movs	r2, #170	; 0xaa
    21da:	0052      	lsls	r2, r2, #1
    21dc:	4293      	cmp	r3, r2
    21de:	d815      	bhi.n	220c <_malloc_r+0x478>
    21e0:	0be3      	lsrs	r3, r4, #15
    21e2:	3377      	adds	r3, #119	; 0x77
    21e4:	4698      	mov	r8, r3
    21e6:	0059      	lsls	r1, r3, #1
    21e8:	e61f      	b.n	1e2a <_malloc_r+0x96>
    21ea:	2380      	movs	r3, #128	; 0x80
    21ec:	015b      	lsls	r3, r3, #5
    21ee:	e705      	b.n	1ffc <_malloc_r+0x268>
    21f0:	4652      	mov	r2, sl
    21f2:	1091      	asrs	r1, r2, #2
    21f4:	2001      	movs	r0, #1
    21f6:	4088      	lsls	r0, r1
    21f8:	6869      	ldr	r1, [r5, #4]
    21fa:	1c1a      	adds	r2, r3, #0
    21fc:	4308      	orrs	r0, r1
    21fe:	6068      	str	r0, [r5, #4]
    2200:	e787      	b.n	2112 <_malloc_r+0x37e>
    2202:	2301      	movs	r3, #1
    2204:	604b      	str	r3, [r1, #4]
    2206:	4647      	mov	r7, r8
    2208:	2200      	movs	r2, #0
    220a:	e738      	b.n	207e <_malloc_r+0x2ea>
    220c:	4a26      	ldr	r2, [pc, #152]	; (22a8 <_malloc_r+0x514>)
    220e:	4293      	cmp	r3, r2
    2210:	d80e      	bhi.n	2230 <_malloc_r+0x49c>
    2212:	0ca3      	lsrs	r3, r4, #18
    2214:	337c      	adds	r3, #124	; 0x7c
    2216:	4698      	mov	r8, r3
    2218:	0059      	lsls	r1, r3, #1
    221a:	e606      	b.n	1e2a <_malloc_r+0x96>
    221c:	3310      	adds	r3, #16
    221e:	9300      	str	r3, [sp, #0]
    2220:	e6c1      	b.n	1fa6 <_malloc_r+0x212>
    2222:	2b54      	cmp	r3, #84	; 0x54
    2224:	d823      	bhi.n	226e <_malloc_r+0x4da>
    2226:	0b01      	lsrs	r1, r0, #12
    2228:	316e      	adds	r1, #110	; 0x6e
    222a:	468a      	mov	sl, r1
    222c:	0048      	lsls	r0, r1, #1
    222e:	e75e      	b.n	20ee <_malloc_r+0x35a>
    2230:	227e      	movs	r2, #126	; 0x7e
    2232:	21fc      	movs	r1, #252	; 0xfc
    2234:	4690      	mov	r8, r2
    2236:	e5f8      	b.n	1e2a <_malloc_r+0x96>
    2238:	0502      	lsls	r2, r0, #20
    223a:	d000      	beq.n	223e <_malloc_r+0x4aa>
    223c:	e6c9      	b.n	1fd2 <_malloc_r+0x23e>
    223e:	9900      	ldr	r1, [sp, #0]
    2240:	68aa      	ldr	r2, [r5, #8]
    2242:	1c08      	adds	r0, r1, #0
    2244:	4448      	add	r0, r9
    2246:	2101      	movs	r1, #1
    2248:	4301      	orrs	r1, r0
    224a:	6051      	str	r1, [r2, #4]
    224c:	e707      	b.n	205e <_malloc_r+0x2ca>
    224e:	2300      	movs	r3, #0
    2250:	2001      	movs	r0, #1
    2252:	469b      	mov	fp, r3
    2254:	e6e5      	b.n	2022 <_malloc_r+0x28e>
    2256:	1c39      	adds	r1, r7, #0
    2258:	3108      	adds	r1, #8
    225a:	1c30      	adds	r0, r6, #0
    225c:	f7ff fa48 	bl	16f0 <_free_r>
    2260:	4651      	mov	r1, sl
    2262:	684b      	ldr	r3, [r1, #4]
    2264:	e6fb      	b.n	205e <_malloc_r+0x2ca>
    2266:	4643      	mov	r3, r8
    2268:	4658      	mov	r0, fp
    226a:	6083      	str	r3, [r0, #8]
    226c:	e6bc      	b.n	1fe8 <_malloc_r+0x254>
    226e:	21aa      	movs	r1, #170	; 0xaa
    2270:	0049      	lsls	r1, r1, #1
    2272:	428b      	cmp	r3, r1
    2274:	d804      	bhi.n	2280 <_malloc_r+0x4ec>
    2276:	0bc1      	lsrs	r1, r0, #15
    2278:	3177      	adds	r1, #119	; 0x77
    227a:	468a      	mov	sl, r1
    227c:	0048      	lsls	r0, r1, #1
    227e:	e736      	b.n	20ee <_malloc_r+0x35a>
    2280:	4909      	ldr	r1, [pc, #36]	; (22a8 <_malloc_r+0x514>)
    2282:	428b      	cmp	r3, r1
    2284:	d80c      	bhi.n	22a0 <_malloc_r+0x50c>
    2286:	0c81      	lsrs	r1, r0, #18
    2288:	317c      	adds	r1, #124	; 0x7c
    228a:	468a      	mov	sl, r1
    228c:	0048      	lsls	r0, r1, #1
    228e:	e72e      	b.n	20ee <_malloc_r+0x35a>
    2290:	686b      	ldr	r3, [r5, #4]
    2292:	438b      	bics	r3, r1
    2294:	606b      	str	r3, [r5, #4]
    2296:	e769      	b.n	216c <_malloc_r+0x3d8>
    2298:	2204      	movs	r2, #4
    229a:	4491      	add	r9, r2
    229c:	0049      	lsls	r1, r1, #1
    229e:	e76c      	b.n	217a <_malloc_r+0x3e6>
    22a0:	217e      	movs	r1, #126	; 0x7e
    22a2:	20fc      	movs	r0, #252	; 0xfc
    22a4:	468a      	mov	sl, r1
    22a6:	e722      	b.n	20ee <_malloc_r+0x35a>
    22a8:	00000554 	.word	0x00000554

000022ac <memchr>:
    22ac:	b5f0      	push	{r4, r5, r6, r7, lr}
    22ae:	b2cc      	uxtb	r4, r1
    22b0:	0783      	lsls	r3, r0, #30
    22b2:	d03d      	beq.n	2330 <memchr+0x84>
    22b4:	1e53      	subs	r3, r2, #1
    22b6:	2a00      	cmp	r2, #0
    22b8:	d01f      	beq.n	22fa <memchr+0x4e>
    22ba:	7802      	ldrb	r2, [r0, #0]
    22bc:	42a2      	cmp	r2, r4
    22be:	d01d      	beq.n	22fc <memchr+0x50>
    22c0:	2503      	movs	r5, #3
    22c2:	e005      	b.n	22d0 <memchr+0x24>
    22c4:	2b00      	cmp	r3, #0
    22c6:	d018      	beq.n	22fa <memchr+0x4e>
    22c8:	7802      	ldrb	r2, [r0, #0]
    22ca:	3b01      	subs	r3, #1
    22cc:	42a2      	cmp	r2, r4
    22ce:	d015      	beq.n	22fc <memchr+0x50>
    22d0:	3001      	adds	r0, #1
    22d2:	4228      	tst	r0, r5
    22d4:	d1f6      	bne.n	22c4 <memchr+0x18>
    22d6:	2b03      	cmp	r3, #3
    22d8:	d811      	bhi.n	22fe <memchr+0x52>
    22da:	2b00      	cmp	r3, #0
    22dc:	d00d      	beq.n	22fa <memchr+0x4e>
    22de:	7802      	ldrb	r2, [r0, #0]
    22e0:	42a2      	cmp	r2, r4
    22e2:	d00b      	beq.n	22fc <memchr+0x50>
    22e4:	1c42      	adds	r2, r0, #1
    22e6:	18c3      	adds	r3, r0, r3
    22e8:	e004      	b.n	22f4 <memchr+0x48>
    22ea:	3201      	adds	r2, #1
    22ec:	1e51      	subs	r1, r2, #1
    22ee:	7809      	ldrb	r1, [r1, #0]
    22f0:	42a1      	cmp	r1, r4
    22f2:	d003      	beq.n	22fc <memchr+0x50>
    22f4:	1c10      	adds	r0, r2, #0
    22f6:	429a      	cmp	r2, r3
    22f8:	d1f7      	bne.n	22ea <memchr+0x3e>
    22fa:	2000      	movs	r0, #0
    22fc:	bdf0      	pop	{r4, r5, r6, r7, pc}
    22fe:	27ff      	movs	r7, #255	; 0xff
    2300:	4039      	ands	r1, r7
    2302:	020f      	lsls	r7, r1, #8
    2304:	4339      	orrs	r1, r7
    2306:	4d0b      	ldr	r5, [pc, #44]	; (2334 <memchr+0x88>)
    2308:	040f      	lsls	r7, r1, #16
    230a:	430f      	orrs	r7, r1
    230c:	46ac      	mov	ip, r5
    230e:	1c01      	adds	r1, r0, #0
    2310:	680a      	ldr	r2, [r1, #0]
    2312:	4e09      	ldr	r6, [pc, #36]	; (2338 <memchr+0x8c>)
    2314:	407a      	eors	r2, r7
    2316:	1995      	adds	r5, r2, r6
    2318:	4395      	bics	r5, r2
    231a:	1c2a      	adds	r2, r5, #0
    231c:	4665      	mov	r5, ip
    231e:	3004      	adds	r0, #4
    2320:	422a      	tst	r2, r5
    2322:	d103      	bne.n	232c <memchr+0x80>
    2324:	3b04      	subs	r3, #4
    2326:	2b03      	cmp	r3, #3
    2328:	d8f1      	bhi.n	230e <memchr+0x62>
    232a:	e7d6      	b.n	22da <memchr+0x2e>
    232c:	1c08      	adds	r0, r1, #0
    232e:	e7d4      	b.n	22da <memchr+0x2e>
    2330:	1c13      	adds	r3, r2, #0
    2332:	e7d0      	b.n	22d6 <memchr+0x2a>
    2334:	80808080 	.word	0x80808080
    2338:	fefefeff 	.word	0xfefefeff

0000233c <memcpy>:
    233c:	b5f0      	push	{r4, r5, r6, r7, lr}
    233e:	2a0f      	cmp	r2, #15
    2340:	d938      	bls.n	23b4 <memcpy+0x78>
    2342:	1c0b      	adds	r3, r1, #0
    2344:	4303      	orrs	r3, r0
    2346:	079c      	lsls	r4, r3, #30
    2348:	d139      	bne.n	23be <memcpy+0x82>
    234a:	1c13      	adds	r3, r2, #0
    234c:	3b10      	subs	r3, #16
    234e:	091b      	lsrs	r3, r3, #4
    2350:	3301      	adds	r3, #1
    2352:	011b      	lsls	r3, r3, #4
    2354:	18cc      	adds	r4, r1, r3
    2356:	1c05      	adds	r5, r0, #0
    2358:	680e      	ldr	r6, [r1, #0]
    235a:	602e      	str	r6, [r5, #0]
    235c:	684e      	ldr	r6, [r1, #4]
    235e:	606e      	str	r6, [r5, #4]
    2360:	688e      	ldr	r6, [r1, #8]
    2362:	60ae      	str	r6, [r5, #8]
    2364:	68ce      	ldr	r6, [r1, #12]
    2366:	3110      	adds	r1, #16
    2368:	60ee      	str	r6, [r5, #12]
    236a:	3510      	adds	r5, #16
    236c:	428c      	cmp	r4, r1
    236e:	d1f3      	bne.n	2358 <memcpy+0x1c>
    2370:	250f      	movs	r5, #15
    2372:	18c3      	adds	r3, r0, r3
    2374:	4015      	ands	r5, r2
    2376:	2d03      	cmp	r5, #3
    2378:	d924      	bls.n	23c4 <memcpy+0x88>
    237a:	3d04      	subs	r5, #4
    237c:	08ad      	lsrs	r5, r5, #2
    237e:	00af      	lsls	r7, r5, #2
    2380:	3704      	adds	r7, #4
    2382:	46ac      	mov	ip, r5
    2384:	1c21      	adds	r1, r4, #0
    2386:	19e7      	adds	r7, r4, r7
    2388:	1c1d      	adds	r5, r3, #0
    238a:	c940      	ldmia	r1!, {r6}
    238c:	c540      	stmia	r5!, {r6}
    238e:	42b9      	cmp	r1, r7
    2390:	d1fb      	bne.n	238a <memcpy+0x4e>
    2392:	4661      	mov	r1, ip
    2394:	3101      	adds	r1, #1
    2396:	0089      	lsls	r1, r1, #2
    2398:	2503      	movs	r5, #3
    239a:	402a      	ands	r2, r5
    239c:	1864      	adds	r4, r4, r1
    239e:	185b      	adds	r3, r3, r1
    23a0:	2a00      	cmp	r2, #0
    23a2:	d006      	beq.n	23b2 <memcpy+0x76>
    23a4:	189a      	adds	r2, r3, r2
    23a6:	7821      	ldrb	r1, [r4, #0]
    23a8:	3401      	adds	r4, #1
    23aa:	7019      	strb	r1, [r3, #0]
    23ac:	3301      	adds	r3, #1
    23ae:	4293      	cmp	r3, r2
    23b0:	d1f9      	bne.n	23a6 <memcpy+0x6a>
    23b2:	bdf0      	pop	{r4, r5, r6, r7, pc}
    23b4:	1c0c      	adds	r4, r1, #0
    23b6:	1c03      	adds	r3, r0, #0
    23b8:	2a00      	cmp	r2, #0
    23ba:	d1f3      	bne.n	23a4 <memcpy+0x68>
    23bc:	e7f9      	b.n	23b2 <memcpy+0x76>
    23be:	1c03      	adds	r3, r0, #0
    23c0:	1c0c      	adds	r4, r1, #0
    23c2:	e7ef      	b.n	23a4 <memcpy+0x68>
    23c4:	1c2a      	adds	r2, r5, #0
    23c6:	e7f7      	b.n	23b8 <memcpy+0x7c>

000023c8 <memmove>:
    23c8:	b5f0      	push	{r4, r5, r6, r7, lr}
    23ca:	4288      	cmp	r0, r1
    23cc:	d90e      	bls.n	23ec <memmove+0x24>
    23ce:	188d      	adds	r5, r1, r2
    23d0:	42a8      	cmp	r0, r5
    23d2:	d20b      	bcs.n	23ec <memmove+0x24>
    23d4:	1886      	adds	r6, r0, r2
    23d6:	1e53      	subs	r3, r2, #1
    23d8:	4251      	negs	r1, r2
    23da:	2a00      	cmp	r2, #0
    23dc:	d005      	beq.n	23ea <memmove+0x22>
    23de:	186a      	adds	r2, r5, r1
    23e0:	5cd4      	ldrb	r4, [r2, r3]
    23e2:	1872      	adds	r2, r6, r1
    23e4:	54d4      	strb	r4, [r2, r3]
    23e6:	3b01      	subs	r3, #1
    23e8:	d2f9      	bcs.n	23de <memmove+0x16>
    23ea:	bdf0      	pop	{r4, r5, r6, r7, pc}
    23ec:	2a0f      	cmp	r2, #15
    23ee:	d80b      	bhi.n	2408 <memmove+0x40>
    23f0:	1c0c      	adds	r4, r1, #0
    23f2:	1c03      	adds	r3, r0, #0
    23f4:	2a00      	cmp	r2, #0
    23f6:	d0f8      	beq.n	23ea <memmove+0x22>
    23f8:	189a      	adds	r2, r3, r2
    23fa:	7821      	ldrb	r1, [r4, #0]
    23fc:	3401      	adds	r4, #1
    23fe:	7019      	strb	r1, [r3, #0]
    2400:	3301      	adds	r3, #1
    2402:	4293      	cmp	r3, r2
    2404:	d1f9      	bne.n	23fa <memmove+0x32>
    2406:	e7f0      	b.n	23ea <memmove+0x22>
    2408:	1c0b      	adds	r3, r1, #0
    240a:	4303      	orrs	r3, r0
    240c:	079c      	lsls	r4, r3, #30
    240e:	d12b      	bne.n	2468 <memmove+0xa0>
    2410:	1c13      	adds	r3, r2, #0
    2412:	3b10      	subs	r3, #16
    2414:	091b      	lsrs	r3, r3, #4
    2416:	3301      	adds	r3, #1
    2418:	011b      	lsls	r3, r3, #4
    241a:	18cc      	adds	r4, r1, r3
    241c:	1c05      	adds	r5, r0, #0
    241e:	680e      	ldr	r6, [r1, #0]
    2420:	602e      	str	r6, [r5, #0]
    2422:	684e      	ldr	r6, [r1, #4]
    2424:	606e      	str	r6, [r5, #4]
    2426:	688e      	ldr	r6, [r1, #8]
    2428:	60ae      	str	r6, [r5, #8]
    242a:	68ce      	ldr	r6, [r1, #12]
    242c:	3110      	adds	r1, #16
    242e:	60ee      	str	r6, [r5, #12]
    2430:	3510      	adds	r5, #16
    2432:	428c      	cmp	r4, r1
    2434:	d1f3      	bne.n	241e <memmove+0x56>
    2436:	250f      	movs	r5, #15
    2438:	18c3      	adds	r3, r0, r3
    243a:	4015      	ands	r5, r2
    243c:	2d03      	cmp	r5, #3
    243e:	d916      	bls.n	246e <memmove+0xa6>
    2440:	3d04      	subs	r5, #4
    2442:	08ad      	lsrs	r5, r5, #2
    2444:	00af      	lsls	r7, r5, #2
    2446:	3704      	adds	r7, #4
    2448:	46ac      	mov	ip, r5
    244a:	1c21      	adds	r1, r4, #0
    244c:	19e7      	adds	r7, r4, r7
    244e:	1c1d      	adds	r5, r3, #0
    2450:	c940      	ldmia	r1!, {r6}
    2452:	c540      	stmia	r5!, {r6}
    2454:	42b9      	cmp	r1, r7
    2456:	d1fb      	bne.n	2450 <memmove+0x88>
    2458:	4661      	mov	r1, ip
    245a:	3101      	adds	r1, #1
    245c:	0089      	lsls	r1, r1, #2
    245e:	2503      	movs	r5, #3
    2460:	402a      	ands	r2, r5
    2462:	1864      	adds	r4, r4, r1
    2464:	185b      	adds	r3, r3, r1
    2466:	e7c5      	b.n	23f4 <memmove+0x2c>
    2468:	1c03      	adds	r3, r0, #0
    246a:	1c0c      	adds	r4, r1, #0
    246c:	e7c4      	b.n	23f8 <memmove+0x30>
    246e:	1c2a      	adds	r2, r5, #0
    2470:	e7c0      	b.n	23f4 <memmove+0x2c>
    2472:	46c0      	nop			; (mov r8, r8)

00002474 <__malloc_lock>:
    2474:	4770      	bx	lr
    2476:	46c0      	nop			; (mov r8, r8)

00002478 <__malloc_unlock>:
    2478:	4770      	bx	lr
    247a:	46c0      	nop			; (mov r8, r8)

0000247c <_realloc_r>:
    247c:	b5f0      	push	{r4, r5, r6, r7, lr}
    247e:	465f      	mov	r7, fp
    2480:	4644      	mov	r4, r8
    2482:	4656      	mov	r6, sl
    2484:	464d      	mov	r5, r9
    2486:	b4f0      	push	{r4, r5, r6, r7}
    2488:	4693      	mov	fp, r2
    248a:	b085      	sub	sp, #20
    248c:	1c07      	adds	r7, r0, #0
    248e:	1c0c      	adds	r4, r1, #0
    2490:	2900      	cmp	r1, #0
    2492:	d100      	bne.n	2496 <_realloc_r+0x1a>
    2494:	e101      	b.n	269a <_realloc_r+0x21e>
    2496:	1c26      	adds	r6, r4, #0
    2498:	3e08      	subs	r6, #8
    249a:	f7ff ffeb 	bl	2474 <__malloc_lock>
    249e:	6873      	ldr	r3, [r6, #4]
    24a0:	2203      	movs	r2, #3
    24a2:	1c18      	adds	r0, r3, #0
    24a4:	465d      	mov	r5, fp
    24a6:	4390      	bics	r0, r2
    24a8:	350b      	adds	r5, #11
    24aa:	4680      	mov	r8, r0
    24ac:	2d16      	cmp	r5, #22
    24ae:	d865      	bhi.n	257c <_realloc_r+0x100>
    24b0:	2110      	movs	r1, #16
    24b2:	2200      	movs	r2, #0
    24b4:	9101      	str	r1, [sp, #4]
    24b6:	2510      	movs	r5, #16
    24b8:	455d      	cmp	r5, fp
    24ba:	d200      	bcs.n	24be <_realloc_r+0x42>
    24bc:	e0f2      	b.n	26a4 <_realloc_r+0x228>
    24be:	2a00      	cmp	r2, #0
    24c0:	d000      	beq.n	24c4 <_realloc_r+0x48>
    24c2:	e0ef      	b.n	26a4 <_realloc_r+0x228>
    24c4:	9801      	ldr	r0, [sp, #4]
    24c6:	4580      	cmp	r8, r0
    24c8:	da5d      	bge.n	2586 <_realloc_r+0x10a>
    24ca:	48d3      	ldr	r0, [pc, #844]	; (2818 <_realloc_r+0x39c>)
    24cc:	4641      	mov	r1, r8
    24ce:	6880      	ldr	r0, [r0, #8]
    24d0:	1872      	adds	r2, r6, r1
    24d2:	9002      	str	r0, [sp, #8]
    24d4:	4290      	cmp	r0, r2
    24d6:	d100      	bne.n	24da <_realloc_r+0x5e>
    24d8:	e0e9      	b.n	26ae <_realloc_r+0x232>
    24da:	6851      	ldr	r1, [r2, #4]
    24dc:	2001      	movs	r0, #1
    24de:	468a      	mov	sl, r1
    24e0:	4381      	bics	r1, r0
    24e2:	4689      	mov	r9, r1
    24e4:	4491      	add	r9, r2
    24e6:	4684      	mov	ip, r0
    24e8:	4648      	mov	r0, r9
    24ea:	6841      	ldr	r1, [r0, #4]
    24ec:	4660      	mov	r0, ip
    24ee:	4201      	tst	r1, r0
    24f0:	d062      	beq.n	25b8 <_realloc_r+0x13c>
    24f2:	2100      	movs	r1, #0
    24f4:	468c      	mov	ip, r1
    24f6:	2200      	movs	r2, #0
    24f8:	07d9      	lsls	r1, r3, #31
    24fa:	d500      	bpl.n	24fe <_realloc_r+0x82>
    24fc:	e07b      	b.n	25f6 <_realloc_r+0x17a>
    24fe:	6833      	ldr	r3, [r6, #0]
    2500:	1af3      	subs	r3, r6, r3
    2502:	469a      	mov	sl, r3
    2504:	4651      	mov	r1, sl
    2506:	6848      	ldr	r0, [r1, #4]
    2508:	2303      	movs	r3, #3
    250a:	4398      	bics	r0, r3
    250c:	1c03      	adds	r3, r0, #0
    250e:	2a00      	cmp	r2, #0
    2510:	d100      	bne.n	2514 <_realloc_r+0x98>
    2512:	e097      	b.n	2644 <_realloc_r+0x1c8>
    2514:	9802      	ldr	r0, [sp, #8]
    2516:	4443      	add	r3, r8
    2518:	4282      	cmp	r2, r0
    251a:	d100      	bne.n	251e <_realloc_r+0xa2>
    251c:	e100      	b.n	2720 <_realloc_r+0x2a4>
    251e:	4699      	mov	r9, r3
    2520:	9302      	str	r3, [sp, #8]
    2522:	9b01      	ldr	r3, [sp, #4]
    2524:	44e1      	add	r9, ip
    2526:	4599      	cmp	r9, r3
    2528:	da00      	bge.n	252c <_realloc_r+0xb0>
    252a:	e08d      	b.n	2648 <_realloc_r+0x1cc>
    252c:	6893      	ldr	r3, [r2, #8]
    252e:	68d1      	ldr	r1, [r2, #12]
    2530:	4650      	mov	r0, sl
    2532:	60d9      	str	r1, [r3, #12]
    2534:	608b      	str	r3, [r1, #8]
    2536:	68c2      	ldr	r2, [r0, #12]
    2538:	6883      	ldr	r3, [r0, #8]
    253a:	4656      	mov	r6, sl
    253c:	60da      	str	r2, [r3, #12]
    253e:	6093      	str	r3, [r2, #8]
    2540:	4642      	mov	r2, r8
    2542:	3a04      	subs	r2, #4
    2544:	3608      	adds	r6, #8
    2546:	2a24      	cmp	r2, #36	; 0x24
    2548:	d900      	bls.n	254c <_realloc_r+0xd0>
    254a:	e134      	b.n	27b6 <_realloc_r+0x33a>
    254c:	1c33      	adds	r3, r6, #0
    254e:	2a13      	cmp	r2, #19
    2550:	d909      	bls.n	2566 <_realloc_r+0xea>
    2552:	6821      	ldr	r1, [r4, #0]
    2554:	6081      	str	r1, [r0, #8]
    2556:	6863      	ldr	r3, [r4, #4]
    2558:	60c3      	str	r3, [r0, #12]
    255a:	2a1b      	cmp	r2, #27
    255c:	d900      	bls.n	2560 <_realloc_r+0xe4>
    255e:	e133      	b.n	27c8 <_realloc_r+0x34c>
    2560:	4653      	mov	r3, sl
    2562:	3310      	adds	r3, #16
    2564:	3408      	adds	r4, #8
    2566:	6820      	ldr	r0, [r4, #0]
    2568:	4652      	mov	r2, sl
    256a:	6018      	str	r0, [r3, #0]
    256c:	6861      	ldr	r1, [r4, #4]
    256e:	6059      	str	r1, [r3, #4]
    2570:	68a4      	ldr	r4, [r4, #8]
    2572:	609c      	str	r4, [r3, #8]
    2574:	6853      	ldr	r3, [r2, #4]
    2576:	1c34      	adds	r4, r6, #0
    2578:	4656      	mov	r6, sl
    257a:	e005      	b.n	2588 <_realloc_r+0x10c>
    257c:	2207      	movs	r2, #7
    257e:	4395      	bics	r5, r2
    2580:	9501      	str	r5, [sp, #4]
    2582:	0fea      	lsrs	r2, r5, #31
    2584:	e798      	b.n	24b8 <_realloc_r+0x3c>
    2586:	46c1      	mov	r9, r8
    2588:	4649      	mov	r1, r9
    258a:	1b4a      	subs	r2, r1, r5
    258c:	2a0f      	cmp	r2, #15
    258e:	d821      	bhi.n	25d4 <_realloc_r+0x158>
    2590:	2201      	movs	r2, #1
    2592:	4013      	ands	r3, r2
    2594:	430b      	orrs	r3, r1
    2596:	6073      	str	r3, [r6, #4]
    2598:	444e      	add	r6, r9
    259a:	6871      	ldr	r1, [r6, #4]
    259c:	430a      	orrs	r2, r1
    259e:	6072      	str	r2, [r6, #4]
    25a0:	1c38      	adds	r0, r7, #0
    25a2:	f7ff ff69 	bl	2478 <__malloc_unlock>
    25a6:	46a1      	mov	r9, r4
    25a8:	4648      	mov	r0, r9
    25aa:	b005      	add	sp, #20
    25ac:	bc3c      	pop	{r2, r3, r4, r5}
    25ae:	4690      	mov	r8, r2
    25b0:	4699      	mov	r9, r3
    25b2:	46a2      	mov	sl, r4
    25b4:	46ab      	mov	fp, r5
    25b6:	bdf0      	pop	{r4, r5, r6, r7, pc}
    25b8:	2003      	movs	r0, #3
    25ba:	4651      	mov	r1, sl
    25bc:	4381      	bics	r1, r0
    25be:	4689      	mov	r9, r1
    25c0:	9801      	ldr	r0, [sp, #4]
    25c2:	44c1      	add	r9, r8
    25c4:	468c      	mov	ip, r1
    25c6:	4581      	cmp	r9, r0
    25c8:	db96      	blt.n	24f8 <_realloc_r+0x7c>
    25ca:	68d1      	ldr	r1, [r2, #12]
    25cc:	6892      	ldr	r2, [r2, #8]
    25ce:	60d1      	str	r1, [r2, #12]
    25d0:	608a      	str	r2, [r1, #8]
    25d2:	e7d9      	b.n	2588 <_realloc_r+0x10c>
    25d4:	2001      	movs	r0, #1
    25d6:	4003      	ands	r3, r0
    25d8:	1971      	adds	r1, r6, r5
    25da:	431d      	orrs	r5, r3
    25dc:	1c13      	adds	r3, r2, #0
    25de:	4303      	orrs	r3, r0
    25e0:	6075      	str	r5, [r6, #4]
    25e2:	188a      	adds	r2, r1, r2
    25e4:	604b      	str	r3, [r1, #4]
    25e6:	6853      	ldr	r3, [r2, #4]
    25e8:	3108      	adds	r1, #8
    25ea:	4318      	orrs	r0, r3
    25ec:	6050      	str	r0, [r2, #4]
    25ee:	1c38      	adds	r0, r7, #0
    25f0:	f7ff f87e 	bl	16f0 <_free_r>
    25f4:	e7d4      	b.n	25a0 <_realloc_r+0x124>
    25f6:	1c38      	adds	r0, r7, #0
    25f8:	4659      	mov	r1, fp
    25fa:	f7ff fbcb 	bl	1d94 <_malloc_r>
    25fe:	4681      	mov	r9, r0
    2600:	2800      	cmp	r0, #0
    2602:	d01b      	beq.n	263c <_realloc_r+0x1c0>
    2604:	6873      	ldr	r3, [r6, #4]
    2606:	1c02      	adds	r2, r0, #0
    2608:	2101      	movs	r1, #1
    260a:	1c18      	adds	r0, r3, #0
    260c:	4388      	bics	r0, r1
    260e:	3a08      	subs	r2, #8
    2610:	1831      	adds	r1, r6, r0
    2612:	428a      	cmp	r2, r1
    2614:	d100      	bne.n	2618 <_realloc_r+0x19c>
    2616:	e0c8      	b.n	27aa <_realloc_r+0x32e>
    2618:	4642      	mov	r2, r8
    261a:	3a04      	subs	r2, #4
    261c:	2a24      	cmp	r2, #36	; 0x24
    261e:	d87a      	bhi.n	2716 <_realloc_r+0x29a>
    2620:	2a13      	cmp	r2, #19
    2622:	d851      	bhi.n	26c8 <_realloc_r+0x24c>
    2624:	464b      	mov	r3, r9
    2626:	1c22      	adds	r2, r4, #0
    2628:	6811      	ldr	r1, [r2, #0]
    262a:	6019      	str	r1, [r3, #0]
    262c:	6850      	ldr	r0, [r2, #4]
    262e:	6058      	str	r0, [r3, #4]
    2630:	6892      	ldr	r2, [r2, #8]
    2632:	609a      	str	r2, [r3, #8]
    2634:	1c38      	adds	r0, r7, #0
    2636:	1c21      	adds	r1, r4, #0
    2638:	f7ff f85a 	bl	16f0 <_free_r>
    263c:	1c38      	adds	r0, r7, #0
    263e:	f7ff ff1b 	bl	2478 <__malloc_unlock>
    2642:	e7b1      	b.n	25a8 <_realloc_r+0x12c>
    2644:	4443      	add	r3, r8
    2646:	9302      	str	r3, [sp, #8]
    2648:	9a02      	ldr	r2, [sp, #8]
    264a:	9b01      	ldr	r3, [sp, #4]
    264c:	429a      	cmp	r2, r3
    264e:	dbd2      	blt.n	25f6 <_realloc_r+0x17a>
    2650:	4650      	mov	r0, sl
    2652:	68c2      	ldr	r2, [r0, #12]
    2654:	6883      	ldr	r3, [r0, #8]
    2656:	4656      	mov	r6, sl
    2658:	60da      	str	r2, [r3, #12]
    265a:	6093      	str	r3, [r2, #8]
    265c:	4642      	mov	r2, r8
    265e:	3a04      	subs	r2, #4
    2660:	3608      	adds	r6, #8
    2662:	2a24      	cmp	r2, #36	; 0x24
    2664:	d83c      	bhi.n	26e0 <_realloc_r+0x264>
    2666:	1c33      	adds	r3, r6, #0
    2668:	2a13      	cmp	r2, #19
    266a:	d909      	bls.n	2680 <_realloc_r+0x204>
    266c:	6821      	ldr	r1, [r4, #0]
    266e:	6081      	str	r1, [r0, #8]
    2670:	6863      	ldr	r3, [r4, #4]
    2672:	60c3      	str	r3, [r0, #12]
    2674:	2a1b      	cmp	r2, #27
    2676:	d900      	bls.n	267a <_realloc_r+0x1fe>
    2678:	e0ba      	b.n	27f0 <_realloc_r+0x374>
    267a:	4653      	mov	r3, sl
    267c:	3310      	adds	r3, #16
    267e:	3408      	adds	r4, #8
    2680:	6820      	ldr	r0, [r4, #0]
    2682:	4652      	mov	r2, sl
    2684:	6018      	str	r0, [r3, #0]
    2686:	6861      	ldr	r1, [r4, #4]
    2688:	9802      	ldr	r0, [sp, #8]
    268a:	6059      	str	r1, [r3, #4]
    268c:	68a4      	ldr	r4, [r4, #8]
    268e:	4681      	mov	r9, r0
    2690:	609c      	str	r4, [r3, #8]
    2692:	6853      	ldr	r3, [r2, #4]
    2694:	1c34      	adds	r4, r6, #0
    2696:	4656      	mov	r6, sl
    2698:	e776      	b.n	2588 <_realloc_r+0x10c>
    269a:	1c11      	adds	r1, r2, #0
    269c:	f7ff fb7a 	bl	1d94 <_malloc_r>
    26a0:	4681      	mov	r9, r0
    26a2:	e781      	b.n	25a8 <_realloc_r+0x12c>
    26a4:	230c      	movs	r3, #12
    26a6:	2200      	movs	r2, #0
    26a8:	603b      	str	r3, [r7, #0]
    26aa:	4691      	mov	r9, r2
    26ac:	e77c      	b.n	25a8 <_realloc_r+0x12c>
    26ae:	9902      	ldr	r1, [sp, #8]
    26b0:	2203      	movs	r2, #3
    26b2:	6849      	ldr	r1, [r1, #4]
    26b4:	4391      	bics	r1, r2
    26b6:	1c0a      	adds	r2, r1, #0
    26b8:	468c      	mov	ip, r1
    26ba:	2110      	movs	r1, #16
    26bc:	4442      	add	r2, r8
    26be:	1949      	adds	r1, r1, r5
    26c0:	428a      	cmp	r2, r1
    26c2:	da18      	bge.n	26f6 <_realloc_r+0x27a>
    26c4:	9a02      	ldr	r2, [sp, #8]
    26c6:	e717      	b.n	24f8 <_realloc_r+0x7c>
    26c8:	6823      	ldr	r3, [r4, #0]
    26ca:	4648      	mov	r0, r9
    26cc:	6003      	str	r3, [r0, #0]
    26ce:	6861      	ldr	r1, [r4, #4]
    26d0:	6041      	str	r1, [r0, #4]
    26d2:	2a1b      	cmp	r2, #27
    26d4:	d85d      	bhi.n	2792 <_realloc_r+0x316>
    26d6:	464b      	mov	r3, r9
    26d8:	1c22      	adds	r2, r4, #0
    26da:	3308      	adds	r3, #8
    26dc:	3208      	adds	r2, #8
    26de:	e7a3      	b.n	2628 <_realloc_r+0x1ac>
    26e0:	1c21      	adds	r1, r4, #0
    26e2:	1c30      	adds	r0, r6, #0
    26e4:	f7ff fe70 	bl	23c8 <memmove>
    26e8:	9a02      	ldr	r2, [sp, #8]
    26ea:	4651      	mov	r1, sl
    26ec:	1c34      	adds	r4, r6, #0
    26ee:	684b      	ldr	r3, [r1, #4]
    26f0:	4691      	mov	r9, r2
    26f2:	4656      	mov	r6, sl
    26f4:	e748      	b.n	2588 <_realloc_r+0x10c>
    26f6:	4b48      	ldr	r3, [pc, #288]	; (2818 <_realloc_r+0x39c>)
    26f8:	1971      	adds	r1, r6, r5
    26fa:	6099      	str	r1, [r3, #8]
    26fc:	1b52      	subs	r2, r2, r5
    26fe:	2301      	movs	r3, #1
    2700:	431a      	orrs	r2, r3
    2702:	604a      	str	r2, [r1, #4]
    2704:	6870      	ldr	r0, [r6, #4]
    2706:	46a1      	mov	r9, r4
    2708:	4003      	ands	r3, r0
    270a:	431d      	orrs	r5, r3
    270c:	6075      	str	r5, [r6, #4]
    270e:	1c38      	adds	r0, r7, #0
    2710:	f7ff feb2 	bl	2478 <__malloc_unlock>
    2714:	e748      	b.n	25a8 <_realloc_r+0x12c>
    2716:	4648      	mov	r0, r9
    2718:	1c21      	adds	r1, r4, #0
    271a:	f7ff fe55 	bl	23c8 <memmove>
    271e:	e789      	b.n	2634 <_realloc_r+0x1b8>
    2720:	9302      	str	r3, [sp, #8]
    2722:	4463      	add	r3, ip
    2724:	1c1a      	adds	r2, r3, #0
    2726:	9303      	str	r3, [sp, #12]
    2728:	1c2b      	adds	r3, r5, #0
    272a:	3310      	adds	r3, #16
    272c:	429a      	cmp	r2, r3
    272e:	db8b      	blt.n	2648 <_realloc_r+0x1cc>
    2730:	4653      	mov	r3, sl
    2732:	68da      	ldr	r2, [r3, #12]
    2734:	689b      	ldr	r3, [r3, #8]
    2736:	2008      	movs	r0, #8
    2738:	60da      	str	r2, [r3, #12]
    273a:	6093      	str	r3, [r2, #8]
    273c:	4642      	mov	r2, r8
    273e:	4681      	mov	r9, r0
    2740:	3a04      	subs	r2, #4
    2742:	44d1      	add	r9, sl
    2744:	2a24      	cmp	r2, #36	; 0x24
    2746:	d872      	bhi.n	282e <_realloc_r+0x3b2>
    2748:	464b      	mov	r3, r9
    274a:	2a13      	cmp	r2, #19
    274c:	d908      	bls.n	2760 <_realloc_r+0x2e4>
    274e:	6821      	ldr	r1, [r4, #0]
    2750:	4653      	mov	r3, sl
    2752:	6099      	str	r1, [r3, #8]
    2754:	6860      	ldr	r0, [r4, #4]
    2756:	60d8      	str	r0, [r3, #12]
    2758:	2a1b      	cmp	r2, #27
    275a:	d86d      	bhi.n	2838 <_realloc_r+0x3bc>
    275c:	3310      	adds	r3, #16
    275e:	3408      	adds	r4, #8
    2760:	6820      	ldr	r0, [r4, #0]
    2762:	6018      	str	r0, [r3, #0]
    2764:	6861      	ldr	r1, [r4, #4]
    2766:	6059      	str	r1, [r3, #4]
    2768:	68a4      	ldr	r4, [r4, #8]
    276a:	609c      	str	r4, [r3, #8]
    276c:	4653      	mov	r3, sl
    276e:	195a      	adds	r2, r3, r5
    2770:	9b03      	ldr	r3, [sp, #12]
    2772:	4829      	ldr	r0, [pc, #164]	; (2818 <_realloc_r+0x39c>)
    2774:	1b59      	subs	r1, r3, r5
    2776:	2301      	movs	r3, #1
    2778:	4319      	orrs	r1, r3
    277a:	6051      	str	r1, [r2, #4]
    277c:	6082      	str	r2, [r0, #8]
    277e:	4650      	mov	r0, sl
    2780:	6840      	ldr	r0, [r0, #4]
    2782:	4651      	mov	r1, sl
    2784:	4003      	ands	r3, r0
    2786:	431d      	orrs	r5, r3
    2788:	604d      	str	r5, [r1, #4]
    278a:	1c38      	adds	r0, r7, #0
    278c:	f7ff fe74 	bl	2478 <__malloc_unlock>
    2790:	e70a      	b.n	25a8 <_realloc_r+0x12c>
    2792:	68a3      	ldr	r3, [r4, #8]
    2794:	4648      	mov	r0, r9
    2796:	6083      	str	r3, [r0, #8]
    2798:	68e1      	ldr	r1, [r4, #12]
    279a:	60c1      	str	r1, [r0, #12]
    279c:	2a24      	cmp	r2, #36	; 0x24
    279e:	d01e      	beq.n	27de <_realloc_r+0x362>
    27a0:	464b      	mov	r3, r9
    27a2:	1c22      	adds	r2, r4, #0
    27a4:	3310      	adds	r3, #16
    27a6:	3210      	adds	r2, #16
    27a8:	e73e      	b.n	2628 <_realloc_r+0x1ac>
    27aa:	6852      	ldr	r2, [r2, #4]
    27ac:	2103      	movs	r1, #3
    27ae:	438a      	bics	r2, r1
    27b0:	4691      	mov	r9, r2
    27b2:	44c1      	add	r9, r8
    27b4:	e6e8      	b.n	2588 <_realloc_r+0x10c>
    27b6:	1c30      	adds	r0, r6, #0
    27b8:	1c21      	adds	r1, r4, #0
    27ba:	f7ff fe05 	bl	23c8 <memmove>
    27be:	4650      	mov	r0, sl
    27c0:	1c34      	adds	r4, r6, #0
    27c2:	6843      	ldr	r3, [r0, #4]
    27c4:	4656      	mov	r6, sl
    27c6:	e6df      	b.n	2588 <_realloc_r+0x10c>
    27c8:	68a0      	ldr	r0, [r4, #8]
    27ca:	4651      	mov	r1, sl
    27cc:	6108      	str	r0, [r1, #16]
    27ce:	68e3      	ldr	r3, [r4, #12]
    27d0:	614b      	str	r3, [r1, #20]
    27d2:	2a24      	cmp	r2, #36	; 0x24
    27d4:	d017      	beq.n	2806 <_realloc_r+0x38a>
    27d6:	4653      	mov	r3, sl
    27d8:	3318      	adds	r3, #24
    27da:	3410      	adds	r4, #16
    27dc:	e6c3      	b.n	2566 <_realloc_r+0xea>
    27de:	6922      	ldr	r2, [r4, #16]
    27e0:	464b      	mov	r3, r9
    27e2:	6102      	str	r2, [r0, #16]
    27e4:	6960      	ldr	r0, [r4, #20]
    27e6:	1c22      	adds	r2, r4, #0
    27e8:	6158      	str	r0, [r3, #20]
    27ea:	3218      	adds	r2, #24
    27ec:	3318      	adds	r3, #24
    27ee:	e71b      	b.n	2628 <_realloc_r+0x1ac>
    27f0:	68a0      	ldr	r0, [r4, #8]
    27f2:	4651      	mov	r1, sl
    27f4:	6108      	str	r0, [r1, #16]
    27f6:	68e3      	ldr	r3, [r4, #12]
    27f8:	614b      	str	r3, [r1, #20]
    27fa:	2a24      	cmp	r2, #36	; 0x24
    27fc:	d00e      	beq.n	281c <_realloc_r+0x3a0>
    27fe:	4653      	mov	r3, sl
    2800:	3318      	adds	r3, #24
    2802:	3410      	adds	r4, #16
    2804:	e73c      	b.n	2680 <_realloc_r+0x204>
    2806:	6920      	ldr	r0, [r4, #16]
    2808:	4651      	mov	r1, sl
    280a:	6188      	str	r0, [r1, #24]
    280c:	6962      	ldr	r2, [r4, #20]
    280e:	4653      	mov	r3, sl
    2810:	61ca      	str	r2, [r1, #28]
    2812:	3320      	adds	r3, #32
    2814:	3418      	adds	r4, #24
    2816:	e6a6      	b.n	2566 <_realloc_r+0xea>
    2818:	10000574 	.word	0x10000574
    281c:	6920      	ldr	r0, [r4, #16]
    281e:	4651      	mov	r1, sl
    2820:	6188      	str	r0, [r1, #24]
    2822:	6962      	ldr	r2, [r4, #20]
    2824:	4653      	mov	r3, sl
    2826:	61ca      	str	r2, [r1, #28]
    2828:	3320      	adds	r3, #32
    282a:	3418      	adds	r4, #24
    282c:	e728      	b.n	2680 <_realloc_r+0x204>
    282e:	4648      	mov	r0, r9
    2830:	1c21      	adds	r1, r4, #0
    2832:	f7ff fdc9 	bl	23c8 <memmove>
    2836:	e799      	b.n	276c <_realloc_r+0x2f0>
    2838:	68a1      	ldr	r1, [r4, #8]
    283a:	4653      	mov	r3, sl
    283c:	6119      	str	r1, [r3, #16]
    283e:	68e0      	ldr	r0, [r4, #12]
    2840:	6158      	str	r0, [r3, #20]
    2842:	2a24      	cmp	r2, #36	; 0x24
    2844:	d002      	beq.n	284c <_realloc_r+0x3d0>
    2846:	3318      	adds	r3, #24
    2848:	3410      	adds	r4, #16
    284a:	e789      	b.n	2760 <_realloc_r+0x2e4>
    284c:	6921      	ldr	r1, [r4, #16]
    284e:	4652      	mov	r2, sl
    2850:	6199      	str	r1, [r3, #24]
    2852:	6963      	ldr	r3, [r4, #20]
    2854:	3418      	adds	r4, #24
    2856:	61d3      	str	r3, [r2, #28]
    2858:	4653      	mov	r3, sl
    285a:	3320      	adds	r3, #32
    285c:	e780      	b.n	2760 <_realloc_r+0x2e4>
    285e:	46c0      	nop			; (mov r8, r8)

00002860 <__sread>:
    2860:	b538      	push	{r3, r4, r5, lr}
    2862:	1c0c      	adds	r4, r1, #0
    2864:	250e      	movs	r5, #14
    2866:	5f49      	ldrsh	r1, [r1, r5]
    2868:	f7fd fe3a 	bl	4e0 <_read_r>
    286c:	2800      	cmp	r0, #0
    286e:	db03      	blt.n	2878 <__sread+0x18>
    2870:	6d22      	ldr	r2, [r4, #80]	; 0x50
    2872:	1813      	adds	r3, r2, r0
    2874:	6523      	str	r3, [r4, #80]	; 0x50
    2876:	bd38      	pop	{r3, r4, r5, pc}
    2878:	89a2      	ldrh	r2, [r4, #12]
    287a:	4b02      	ldr	r3, [pc, #8]	; (2884 <__sread+0x24>)
    287c:	4013      	ands	r3, r2
    287e:	81a3      	strh	r3, [r4, #12]
    2880:	e7f9      	b.n	2876 <__sread+0x16>
    2882:	46c0      	nop			; (mov r8, r8)
    2884:	ffffefff 	.word	0xffffefff

00002888 <__seofread>:
    2888:	2000      	movs	r0, #0
    288a:	4770      	bx	lr

0000288c <__swrite>:
    288c:	b5f8      	push	{r3, r4, r5, r6, r7, lr}
    288e:	1c0c      	adds	r4, r1, #0
    2890:	8989      	ldrh	r1, [r1, #12]
    2892:	1c05      	adds	r5, r0, #0
    2894:	1c17      	adds	r7, r2, #0
    2896:	1c1e      	adds	r6, r3, #0
    2898:	05cb      	lsls	r3, r1, #23
    289a:	d506      	bpl.n	28aa <__swrite+0x1e>
    289c:	230e      	movs	r3, #14
    289e:	5ee1      	ldrsh	r1, [r4, r3]
    28a0:	2200      	movs	r2, #0
    28a2:	2302      	movs	r3, #2
    28a4:	f7fd fe24 	bl	4f0 <_lseek_r>
    28a8:	89a1      	ldrh	r1, [r4, #12]
    28aa:	4b05      	ldr	r3, [pc, #20]	; (28c0 <__swrite+0x34>)
    28ac:	1c28      	adds	r0, r5, #0
    28ae:	4019      	ands	r1, r3
    28b0:	81a1      	strh	r1, [r4, #12]
    28b2:	1c3a      	adds	r2, r7, #0
    28b4:	230e      	movs	r3, #14
    28b6:	5ee1      	ldrsh	r1, [r4, r3]
    28b8:	1c33      	adds	r3, r6, #0
    28ba:	f7fd fe1b 	bl	4f4 <_write_r>
    28be:	bdf8      	pop	{r3, r4, r5, r6, r7, pc}
    28c0:	ffffefff 	.word	0xffffefff

000028c4 <__sseek>:
    28c4:	b538      	push	{r3, r4, r5, lr}
    28c6:	1c0c      	adds	r4, r1, #0
    28c8:	250e      	movs	r5, #14
    28ca:	5f49      	ldrsh	r1, [r1, r5]
    28cc:	f7fd fe10 	bl	4f0 <_lseek_r>
    28d0:	89a2      	ldrh	r2, [r4, #12]
    28d2:	1c43      	adds	r3, r0, #1
    28d4:	d005      	beq.n	28e2 <__sseek+0x1e>
    28d6:	2380      	movs	r3, #128	; 0x80
    28d8:	015b      	lsls	r3, r3, #5
    28da:	4313      	orrs	r3, r2
    28dc:	81a3      	strh	r3, [r4, #12]
    28de:	6520      	str	r0, [r4, #80]	; 0x50
    28e0:	bd38      	pop	{r3, r4, r5, pc}
    28e2:	4b02      	ldr	r3, [pc, #8]	; (28ec <__sseek+0x28>)
    28e4:	4013      	ands	r3, r2
    28e6:	81a3      	strh	r3, [r4, #12]
    28e8:	e7fa      	b.n	28e0 <__sseek+0x1c>
    28ea:	46c0      	nop			; (mov r8, r8)
    28ec:	ffffefff 	.word	0xffffefff

000028f0 <__sclose>:
    28f0:	b508      	push	{r3, lr}
    28f2:	230e      	movs	r3, #14
    28f4:	5ec9      	ldrsh	r1, [r1, r3]
    28f6:	f7fd fe05 	bl	504 <_close_r>
    28fa:	bd08      	pop	{r3, pc}

000028fc <strcmp>:
    28fc:	7802      	ldrb	r2, [r0, #0]
    28fe:	780b      	ldrb	r3, [r1, #0]
    2900:	3001      	adds	r0, #1
    2902:	3101      	adds	r1, #1
    2904:	2a00      	cmp	r2, #0
    2906:	d001      	beq.n	290c <strcmp+0x10>
    2908:	429a      	cmp	r2, r3
    290a:	d0f7      	beq.n	28fc <strcmp>
    290c:	1ad0      	subs	r0, r2, r3
    290e:	4770      	bx	lr

00002910 <strlen>:
    2910:	2300      	movs	r3, #0
    2912:	5cc2      	ldrb	r2, [r0, r3]
    2914:	3301      	adds	r3, #1
    2916:	2a00      	cmp	r2, #0
    2918:	d1fb      	bne.n	2912 <strlen+0x2>
    291a:	1e58      	subs	r0, r3, #1
    291c:	4770      	bx	lr
    291e:	46c0      	nop			; (mov r8, r8)

00002920 <__swbuf_r>:
    2920:	b570      	push	{r4, r5, r6, lr}
    2922:	1c05      	adds	r5, r0, #0
    2924:	1c0e      	adds	r6, r1, #0
    2926:	1c14      	adds	r4, r2, #0
    2928:	2800      	cmp	r0, #0
    292a:	d002      	beq.n	2932 <__swbuf_r+0x12>
    292c:	6b81      	ldr	r1, [r0, #56]	; 0x38
    292e:	2900      	cmp	r1, #0
    2930:	d049      	beq.n	29c6 <__swbuf_r+0xa6>
    2932:	69a2      	ldr	r2, [r4, #24]
    2934:	89a3      	ldrh	r3, [r4, #12]
    2936:	60a2      	str	r2, [r4, #8]
    2938:	0719      	lsls	r1, r3, #28
    293a:	d53b      	bpl.n	29b4 <__swbuf_r+0x94>
    293c:	6922      	ldr	r2, [r4, #16]
    293e:	2a00      	cmp	r2, #0
    2940:	d038      	beq.n	29b4 <__swbuf_r+0x94>
    2942:	21ff      	movs	r1, #255	; 0xff
    2944:	400e      	ands	r6, r1
    2946:	2180      	movs	r1, #128	; 0x80
    2948:	0189      	lsls	r1, r1, #6
    294a:	420b      	tst	r3, r1
    294c:	d015      	beq.n	297a <__swbuf_r+0x5a>
    294e:	6823      	ldr	r3, [r4, #0]
    2950:	6961      	ldr	r1, [r4, #20]
    2952:	1a9a      	subs	r2, r3, r2
    2954:	428a      	cmp	r2, r1
    2956:	da1b      	bge.n	2990 <__swbuf_r+0x70>
    2958:	3201      	adds	r2, #1
    295a:	68a1      	ldr	r1, [r4, #8]
    295c:	3901      	subs	r1, #1
    295e:	60a1      	str	r1, [r4, #8]
    2960:	701e      	strb	r6, [r3, #0]
    2962:	3301      	adds	r3, #1
    2964:	6023      	str	r3, [r4, #0]
    2966:	6963      	ldr	r3, [r4, #20]
    2968:	4293      	cmp	r3, r2
    296a:	d01a      	beq.n	29a2 <__swbuf_r+0x82>
    296c:	89a3      	ldrh	r3, [r4, #12]
    296e:	07d9      	lsls	r1, r3, #31
    2970:	d501      	bpl.n	2976 <__swbuf_r+0x56>
    2972:	2e0a      	cmp	r6, #10
    2974:	d015      	beq.n	29a2 <__swbuf_r+0x82>
    2976:	1c30      	adds	r0, r6, #0
    2978:	bd70      	pop	{r4, r5, r6, pc}
    297a:	430b      	orrs	r3, r1
    297c:	81a3      	strh	r3, [r4, #12]
    297e:	6e61      	ldr	r1, [r4, #100]	; 0x64
    2980:	4b12      	ldr	r3, [pc, #72]	; (29cc <__swbuf_r+0xac>)
    2982:	400b      	ands	r3, r1
    2984:	6663      	str	r3, [r4, #100]	; 0x64
    2986:	6961      	ldr	r1, [r4, #20]
    2988:	6823      	ldr	r3, [r4, #0]
    298a:	1a9a      	subs	r2, r3, r2
    298c:	428a      	cmp	r2, r1
    298e:	dbe3      	blt.n	2958 <__swbuf_r+0x38>
    2990:	1c28      	adds	r0, r5, #0
    2992:	1c21      	adds	r1, r4, #0
    2994:	f7fe fcd8 	bl	1348 <_fflush_r>
    2998:	2800      	cmp	r0, #0
    299a:	d108      	bne.n	29ae <__swbuf_r+0x8e>
    299c:	6823      	ldr	r3, [r4, #0]
    299e:	2201      	movs	r2, #1
    29a0:	e7db      	b.n	295a <__swbuf_r+0x3a>
    29a2:	1c28      	adds	r0, r5, #0
    29a4:	1c21      	adds	r1, r4, #0
    29a6:	f7fe fccf 	bl	1348 <_fflush_r>
    29aa:	2800      	cmp	r0, #0
    29ac:	d0e3      	beq.n	2976 <__swbuf_r+0x56>
    29ae:	2601      	movs	r6, #1
    29b0:	4276      	negs	r6, r6
    29b2:	e7e0      	b.n	2976 <__swbuf_r+0x56>
    29b4:	1c28      	adds	r0, r5, #0
    29b6:	1c21      	adds	r1, r4, #0
    29b8:	f7fe fbb8 	bl	112c <__swsetup_r>
    29bc:	2800      	cmp	r0, #0
    29be:	d1f6      	bne.n	29ae <__swbuf_r+0x8e>
    29c0:	89a3      	ldrh	r3, [r4, #12]
    29c2:	6922      	ldr	r2, [r4, #16]
    29c4:	e7bd      	b.n	2942 <__swbuf_r+0x22>
    29c6:	f7fe fd37 	bl	1438 <__sinit>
    29ca:	e7b2      	b.n	2932 <__swbuf_r+0x12>
    29cc:	ffffdfff 	.word	0xffffdfff

000029d0 <__swbuf>:
    29d0:	b508      	push	{r3, lr}
    29d2:	1c0a      	adds	r2, r1, #0
    29d4:	4903      	ldr	r1, [pc, #12]	; (29e4 <__swbuf+0x14>)
    29d6:	1c03      	adds	r3, r0, #0
    29d8:	6808      	ldr	r0, [r1, #0]
    29da:	1c19      	adds	r1, r3, #0
    29dc:	f7ff ffa0 	bl	2920 <__swbuf_r>
    29e0:	bd08      	pop	{r3, pc}
    29e2:	46c0      	nop			; (mov r8, r8)
    29e4:	100000c8 	.word	0x100000c8

000029e8 <_wcrtomb_r>:
    29e8:	b5f0      	push	{r4, r5, r6, r7, lr}
    29ea:	4647      	mov	r7, r8
    29ec:	b480      	push	{r7}
    29ee:	1c1e      	adds	r6, r3, #0
    29f0:	b086      	sub	sp, #24
    29f2:	1c05      	adds	r5, r0, #0
    29f4:	1c0c      	adds	r4, r1, #0
    29f6:	1c17      	adds	r7, r2, #0
    29f8:	4b10      	ldr	r3, [pc, #64]	; (2a3c <_wcrtomb_r+0x54>)
    29fa:	2900      	cmp	r1, #0
    29fc:	d013      	beq.n	2a26 <_wcrtomb_r+0x3e>
    29fe:	681a      	ldr	r2, [r3, #0]
    2a00:	4690      	mov	r8, r2
    2a02:	f7ff f92f 	bl	1c64 <__locale_charset>
    2a06:	9600      	str	r6, [sp, #0]
    2a08:	1c03      	adds	r3, r0, #0
    2a0a:	1c21      	adds	r1, r4, #0
    2a0c:	1c28      	adds	r0, r5, #0
    2a0e:	1c3a      	adds	r2, r7, #0
    2a10:	47c0      	blx	r8
    2a12:	1c43      	adds	r3, r0, #1
    2a14:	d103      	bne.n	2a1e <_wcrtomb_r+0x36>
    2a16:	2300      	movs	r3, #0
    2a18:	6033      	str	r3, [r6, #0]
    2a1a:	238a      	movs	r3, #138	; 0x8a
    2a1c:	602b      	str	r3, [r5, #0]
    2a1e:	b006      	add	sp, #24
    2a20:	bc04      	pop	{r2}
    2a22:	4690      	mov	r8, r2
    2a24:	bdf0      	pop	{r4, r5, r6, r7, pc}
    2a26:	681c      	ldr	r4, [r3, #0]
    2a28:	f7ff f91c 	bl	1c64 <__locale_charset>
    2a2c:	9600      	str	r6, [sp, #0]
    2a2e:	1c03      	adds	r3, r0, #0
    2a30:	a903      	add	r1, sp, #12
    2a32:	1c28      	adds	r0, r5, #0
    2a34:	2200      	movs	r2, #0
    2a36:	47a0      	blx	r4
    2a38:	e7eb      	b.n	2a12 <_wcrtomb_r+0x2a>
    2a3a:	46c0      	nop			; (mov r8, r8)
    2a3c:	10000984 	.word	0x10000984

00002a40 <wcrtomb>:
    2a40:	b5f0      	push	{r4, r5, r6, r7, lr}
    2a42:	464f      	mov	r7, r9
    2a44:	4646      	mov	r6, r8
    2a46:	b4c0      	push	{r6, r7}
    2a48:	1c04      	adds	r4, r0, #0
    2a4a:	b087      	sub	sp, #28
    2a4c:	1c0f      	adds	r7, r1, #0
    2a4e:	1c16      	adds	r6, r2, #0
    2a50:	4b13      	ldr	r3, [pc, #76]	; (2aa0 <wcrtomb+0x60>)
    2a52:	2800      	cmp	r0, #0
    2a54:	d018      	beq.n	2a88 <wcrtomb+0x48>
    2a56:	4d13      	ldr	r5, [pc, #76]	; (2aa4 <wcrtomb+0x64>)
    2a58:	681a      	ldr	r2, [r3, #0]
    2a5a:	682b      	ldr	r3, [r5, #0]
    2a5c:	4690      	mov	r8, r2
    2a5e:	4699      	mov	r9, r3
    2a60:	f7ff f900 	bl	1c64 <__locale_charset>
    2a64:	9600      	str	r6, [sp, #0]
    2a66:	1c03      	adds	r3, r0, #0
    2a68:	1c21      	adds	r1, r4, #0
    2a6a:	4648      	mov	r0, r9
    2a6c:	1c3a      	adds	r2, r7, #0
    2a6e:	47c0      	blx	r8
    2a70:	1c42      	adds	r2, r0, #1
    2a72:	d104      	bne.n	2a7e <wcrtomb+0x3e>
    2a74:	2300      	movs	r3, #0
    2a76:	6033      	str	r3, [r6, #0]
    2a78:	682b      	ldr	r3, [r5, #0]
    2a7a:	228a      	movs	r2, #138	; 0x8a
    2a7c:	601a      	str	r2, [r3, #0]
    2a7e:	b007      	add	sp, #28
    2a80:	bc0c      	pop	{r2, r3}
    2a82:	4690      	mov	r8, r2
    2a84:	4699      	mov	r9, r3
    2a86:	bdf0      	pop	{r4, r5, r6, r7, pc}
    2a88:	4d06      	ldr	r5, [pc, #24]	; (2aa4 <wcrtomb+0x64>)
    2a8a:	681c      	ldr	r4, [r3, #0]
    2a8c:	682f      	ldr	r7, [r5, #0]
    2a8e:	f7ff f8e9 	bl	1c64 <__locale_charset>
    2a92:	9600      	str	r6, [sp, #0]
    2a94:	1c03      	adds	r3, r0, #0
    2a96:	a903      	add	r1, sp, #12
    2a98:	1c38      	adds	r0, r7, #0
    2a9a:	2200      	movs	r2, #0
    2a9c:	47a0      	blx	r4
    2a9e:	e7e7      	b.n	2a70 <wcrtomb+0x30>
    2aa0:	10000984 	.word	0x10000984
    2aa4:	100000c8 	.word	0x100000c8

00002aa8 <__ascii_wctomb>:
    2aa8:	b500      	push	{lr}
    2aaa:	2900      	cmp	r1, #0
    2aac:	d004      	beq.n	2ab8 <__ascii_wctomb+0x10>
    2aae:	2aff      	cmp	r2, #255	; 0xff
    2ab0:	d804      	bhi.n	2abc <__ascii_wctomb+0x14>
    2ab2:	700a      	strb	r2, [r1, #0]
    2ab4:	2001      	movs	r0, #1
    2ab6:	bd00      	pop	{pc}
    2ab8:	2000      	movs	r0, #0
    2aba:	e7fc      	b.n	2ab6 <__ascii_wctomb+0xe>
    2abc:	238a      	movs	r3, #138	; 0x8a
    2abe:	6003      	str	r3, [r0, #0]
    2ac0:	2001      	movs	r0, #1
    2ac2:	4240      	negs	r0, r0
    2ac4:	e7f7      	b.n	2ab6 <__ascii_wctomb+0xe>
    2ac6:	46c0      	nop			; (mov r8, r8)

00002ac8 <_wctomb_r>:
    2ac8:	b5f0      	push	{r4, r5, r6, r7, lr}
    2aca:	4647      	mov	r7, r8
    2acc:	b480      	push	{r7}
    2ace:	4698      	mov	r8, r3
    2ad0:	4b09      	ldr	r3, [pc, #36]	; (2af8 <_wctomb_r+0x30>)
    2ad2:	b082      	sub	sp, #8
    2ad4:	1c15      	adds	r5, r2, #0
    2ad6:	681c      	ldr	r4, [r3, #0]
    2ad8:	1c07      	adds	r7, r0, #0
    2ada:	1c0e      	adds	r6, r1, #0
    2adc:	f7ff f8c2 	bl	1c64 <__locale_charset>
    2ae0:	4642      	mov	r2, r8
    2ae2:	1c03      	adds	r3, r0, #0
    2ae4:	9200      	str	r2, [sp, #0]
    2ae6:	1c38      	adds	r0, r7, #0
    2ae8:	1c31      	adds	r1, r6, #0
    2aea:	1c2a      	adds	r2, r5, #0
    2aec:	47a0      	blx	r4
    2aee:	b002      	add	sp, #8
    2af0:	bc04      	pop	{r2}
    2af2:	4690      	mov	r8, r2
    2af4:	bdf0      	pop	{r4, r5, r6, r7, pc}
    2af6:	46c0      	nop			; (mov r8, r8)
    2af8:	10000984 	.word	0x10000984

00002afc <_fclose_r>:
    2afc:	b570      	push	{r4, r5, r6, lr}
    2afe:	1c05      	adds	r5, r0, #0
    2b00:	1e0c      	subs	r4, r1, #0
    2b02:	d008      	beq.n	2b16 <_fclose_r+0x1a>
    2b04:	2800      	cmp	r0, #0
    2b06:	d002      	beq.n	2b0e <_fclose_r+0x12>
    2b08:	6b82      	ldr	r2, [r0, #56]	; 0x38
    2b0a:	2a00      	cmp	r2, #0
    2b0c:	d031      	beq.n	2b72 <_fclose_r+0x76>
    2b0e:	220c      	movs	r2, #12
    2b10:	5ea3      	ldrsh	r3, [r4, r2]
    2b12:	2b00      	cmp	r3, #0
    2b14:	d102      	bne.n	2b1c <_fclose_r+0x20>
    2b16:	2600      	movs	r6, #0
    2b18:	1c30      	adds	r0, r6, #0
    2b1a:	bd70      	pop	{r4, r5, r6, pc}
    2b1c:	1c28      	adds	r0, r5, #0
    2b1e:	1c21      	adds	r1, r4, #0
    2b20:	f7fe fc12 	bl	1348 <_fflush_r>
    2b24:	6ae3      	ldr	r3, [r4, #44]	; 0x2c
    2b26:	1c06      	adds	r6, r0, #0
    2b28:	2b00      	cmp	r3, #0
    2b2a:	d004      	beq.n	2b36 <_fclose_r+0x3a>
    2b2c:	1c28      	adds	r0, r5, #0
    2b2e:	69e1      	ldr	r1, [r4, #28]
    2b30:	4798      	blx	r3
    2b32:	2800      	cmp	r0, #0
    2b34:	db20      	blt.n	2b78 <_fclose_r+0x7c>
    2b36:	89a3      	ldrh	r3, [r4, #12]
    2b38:	061a      	lsls	r2, r3, #24
    2b3a:	d420      	bmi.n	2b7e <_fclose_r+0x82>
    2b3c:	6b21      	ldr	r1, [r4, #48]	; 0x30
    2b3e:	2900      	cmp	r1, #0
    2b40:	d008      	beq.n	2b54 <_fclose_r+0x58>
    2b42:	1c23      	adds	r3, r4, #0
    2b44:	3340      	adds	r3, #64	; 0x40
    2b46:	4299      	cmp	r1, r3
    2b48:	d002      	beq.n	2b50 <_fclose_r+0x54>
    2b4a:	1c28      	adds	r0, r5, #0
    2b4c:	f7fe fdd0 	bl	16f0 <_free_r>
    2b50:	2300      	movs	r3, #0
    2b52:	6323      	str	r3, [r4, #48]	; 0x30
    2b54:	6c61      	ldr	r1, [r4, #68]	; 0x44
    2b56:	2900      	cmp	r1, #0
    2b58:	d004      	beq.n	2b64 <_fclose_r+0x68>
    2b5a:	1c28      	adds	r0, r5, #0
    2b5c:	f7fe fdc8 	bl	16f0 <_free_r>
    2b60:	2300      	movs	r3, #0
    2b62:	6463      	str	r3, [r4, #68]	; 0x44
    2b64:	f7fe fcd6 	bl	1514 <__sfp_lock_acquire>
    2b68:	2300      	movs	r3, #0
    2b6a:	81a3      	strh	r3, [r4, #12]
    2b6c:	f7fe fcd4 	bl	1518 <__sfp_lock_release>
    2b70:	e7d2      	b.n	2b18 <_fclose_r+0x1c>
    2b72:	f7fe fc61 	bl	1438 <__sinit>
    2b76:	e7ca      	b.n	2b0e <_fclose_r+0x12>
    2b78:	2601      	movs	r6, #1
    2b7a:	4276      	negs	r6, r6
    2b7c:	e7db      	b.n	2b36 <_fclose_r+0x3a>
    2b7e:	1c28      	adds	r0, r5, #0
    2b80:	6921      	ldr	r1, [r4, #16]
    2b82:	f7fe fdb5 	bl	16f0 <_free_r>
    2b86:	e7d9      	b.n	2b3c <_fclose_r+0x40>

00002b88 <fclose>:
    2b88:	b508      	push	{r3, lr}
    2b8a:	4b03      	ldr	r3, [pc, #12]	; (2b98 <fclose+0x10>)
    2b8c:	1c01      	adds	r1, r0, #0
    2b8e:	6818      	ldr	r0, [r3, #0]
    2b90:	f7ff ffb4 	bl	2afc <_fclose_r>
    2b94:	bd08      	pop	{r3, pc}
    2b96:	46c0      	nop			; (mov r8, r8)
    2b98:	100000c8 	.word	0x100000c8

00002b9c <CSWTCH.10>:
    2b9c:	0007a120 000c3500 0010c8e0 00155cc0      ....5.......\..
    2bac:	00186a00 001b7740 001e8480 002191c0     .j..@w........!.
    2bbc:	00249f00 0027ac40 002932e0 002c4020     ..$.@.'..2). @,.
    2bcc:	002f4d60 0030d400 0033e140 31335b1b     `M/...0.@.3..[31
    2bdc:	436d313b 656e6e6f 64657463 6544202e     ;1mConnected. De
    2bec:	65636976 3a444920 0d782520 305b1b0a     vice ID: %x...[0
    2bfc:	0000006d 000a0d31 000a0d32              m...1...2...

00002c08 <_global_impure_ptr>:
    2c08:	100000d0 00000043 00000a82 00000846     ....C.......F...
    2c18:	00000846 00000a78 00000846 00000846     F...x...F...F...
    2c28:	00000846 00000846 00000846 00000846     F...F...F...F...
    2c38:	0000091c 00000a74 00000846 00000932     ....t...F...2...
    2c48:	00000a14 00000846 00000a6a 00000a4c     ....F...j...L...
    2c58:	00000a4c 00000a4c 00000a4c 00000a4c     L...L...L...L...
    2c68:	00000a4c 00000a4c 00000a4c 00000a4c     L...L...L...L...
    2c78:	00000846 00000846 00000846 00000846     F...F...F...F...
    2c88:	00000846 00000846 00000846 00000846     F...F...F...F...
    2c98:	00000846 00000846 00000d56 00000846     F...F...V...F...
    2ca8:	00000846 00000846 00000846 00000846     F...F...F...F...
    2cb8:	00000846 00000846 00000846 00000846     F...F...F...F...
    2cc8:	00000846 000008fa 00000846 00000846     F.......F...F...
    2cd8:	00000846 00000846 00000846 0000086c     F...F...F...l...
    2ce8:	00000846 00000846 00000d0e 00000846     F...F.......F...
    2cf8:	00000846 00000846 00000846 00000846     F...F...F...F...
    2d08:	00000846 00000846 00000846 00000846     F...F...F...F...
    2d18:	00000846 00000adc 00000ab0 00000846     F...........F...
    2d28:	00000846 00000846 00000a94 00000ab0     F...F...........
    2d38:	00000846 00000846 00000a8c 00000846     F...F.......F...
    2d48:	000009b2 00000902 000009e6 000009de     ................
    2d58:	00000846 0000093c 00000846 00000874     F...<...F...t...
    2d68:	00000846 00000846 00000986              F...F.......

00002d74 <blanks.6690>:
    2d74:	20202020 20202020 20202020 20202020                     

00002d84 <zeroes.6691>:
    2d84:	30303030 30303030 30303030 30303030     0000000000000000
    2d94:	33323130 37363534 42413938 46454443     0123456789ABCDEF
    2da4:	00000000 33323130 37363534 62613938     ....0123456789ab
    2db4:	66656463 00000000 6c756e28 0000296c     cdef....(null)..
    2dc4:	49534f50 00000058 0000002e              POSIX.......
